SF:/Users/thanos/work/flyby/crates/flyby-core/src/error.rs
FN:141,_RINvMs_NtCscf8MsWp3cCb_10flyby_core5errorNtB5_5Error6configNtNtCs1OjIl8oxbrv_5alloc6string6StringECs6vtiqiiMncD_15flyby_simulator
FN:84,_RINvMs_NtCscf8MsWp3cCb_10flyby_core5errorNtB5_5Error3newNtNtCs1OjIl8oxbrv_5alloc6string6StringECshMj2EFajhOT_13flyby_storage
FN:93,_RINvMs_NtCscf8MsWp3cCb_10flyby_core5errorNtB5_5Error11with_sourceNtNtCs1OjIl8oxbrv_5alloc6string6StringNtNtNtCsg55jX0GwzBC_3std2io5error5ErrorEB7_
FN:84,_RINvMs_NtCscf8MsWp3cCb_10flyby_core5errorNtB5_5Error3newReEB7_
FN:141,_RINvMs_NtCscf8MsWp3cCb_10flyby_core5errorNtB5_5Error6configReEB7_
FN:210,_RNCNvXs4_NtCscf8MsWp3cCb_10flyby_core5errorNtB7_5ErrorNtNtCsl8K0bEFm1U0_4core5error5Error6source0B9_
FN:171,_RNvMs_NtCscf8MsWp3cCb_10flyby_core5errorNtB4_5Error4kind
FN:176,_RNvMs_NtCscf8MsWp3cCb_10flyby_core5errorNtB4_5Error7message
FN:51,_RNvXNtCscf8MsWp3cCb_10flyby_core5errorNtB2_9ErrorKindNtNtCsl8K0bEFm1U0_4core3fmt7Display3fmt
FN:182,_RNvXs0_NtCscf8MsWp3cCb_10flyby_core5errorNtB5_5ErrorNtNtCsl8K0bEFm1U0_4core5clone5Clone5clone
FN:193,_RNvXs1_NtCscf8MsWp3cCb_10flyby_core5errorNtB5_5ErrorNtNtCsl8K0bEFm1U0_4core3cmp9PartialEq2eq
FN:201,_RNvXs3_NtCscf8MsWp3cCb_10flyby_core5errorNtB5_5ErrorNtNtCsl8K0bEFm1U0_4core3fmt7Display3fmt
FN:207,_RNvXs4_NtCscf8MsWp3cCb_10flyby_core5errorNtB5_5ErrorNtNtCsl8K0bEFm1U0_4core5error5Error6source
FN:215,_RNvXs5_NtCscf8MsWp3cCb_10flyby_core5errorNtB5_5ErrorINtNtCsl8K0bEFm1U0_4core7convert4FromNtNtNtCsg55jX0GwzBC_3std2io5error5ErrorE4from
FN:156,_RINvMs_NtCscf8MsWp3cCb_10flyby_core5errorNtB5_5Error9lifecycleReECs47HsRTND2zd_11file_source
FN:116,_RINvMs_NtCscf8MsWp3cCb_10flyby_core5errorNtB5_5Error13back_pressureReECsggT0ekrhFaK_5flyby
FN:111,_RINvMs_NtCscf8MsWp3cCb_10flyby_core5errorNtB5_5Error4sinkNtNtCs1OjIl8oxbrv_5alloc6string6StringECsggT0ekrhFaK_5flyby
FN:111,_RINvMs_NtCscf8MsWp3cCb_10flyby_core5errorNtB5_5Error4sinkReECsggT0ekrhFaK_5flyby
FN:141,_RINvMs_NtCscf8MsWp3cCb_10flyby_core5errorNtB5_5Error6configNtNtCs1OjIl8oxbrv_5alloc6string6StringECsggT0ekrhFaK_5flyby
FN:131,_RINvMs_NtCscf8MsWp3cCb_10flyby_core5errorNtB5_5Error9placementNtNtCs1OjIl8oxbrv_5alloc6string6StringECsggT0ekrhFaK_5flyby
FN:156,_RINvMs_NtCscf8MsWp3cCb_10flyby_core5errorNtB5_5Error9lifecycleReECslaj7P7CWVfX_9flyby_net
FN:126,_RINvMs_NtCscf8MsWp3cCb_10flyby_core5errorNtB5_5Error6encodeReECseHB1QHhtQVt_12flyby_memory
FN:171,_RNvMs_NtCs9vRHrQZiaEo_10flyby_core5errorNtB4_5Error4kind
FN:51,_RNvXNtCs9vRHrQZiaEo_10flyby_core5errorNtB2_9ErrorKindNtNtCsl8K0bEFm1U0_4core3fmt7Display3fmt
FN:201,_RNvXs3_NtCs9vRHrQZiaEo_10flyby_core5errorNtB5_5ErrorNtNtCsl8K0bEFm1U0_4core3fmt7Display3fmt
FN:207,_RNvXs4_NtCs9vRHrQZiaEo_10flyby_core5errorNtB5_5ErrorNtNtCsl8K0bEFm1U0_4core5error5Error6source
FN:215,_RNvXs5_NtCs9vRHrQZiaEo_10flyby_core5errorNtB5_5ErrorINtNtCsl8K0bEFm1U0_4core7convert4FromNtNtNtCsg55jX0GwzBC_3std2io5error5ErrorE4from
FN:136,_RINvMs_NtCs9vRHrQZiaEo_10flyby_core5errorNtB5_5Error10preprocesspEB7_
FN:116,_RINvMs_NtCs9vRHrQZiaEo_10flyby_core5errorNtB5_5Error13back_pressurepEB7_
FN:146,_RINvMs_NtCs9vRHrQZiaEo_10flyby_core5errorNtB5_5Error19feature_not_enabledpEB7_
FN:161,_RINvMs_NtCs9vRHrQZiaEo_10flyby_core5errorNtB5_5Error2iopEB7_
FN:111,_RINvMs_NtCs9vRHrQZiaEo_10flyby_core5errorNtB5_5Error4sinkpEB7_
FN:166,_RINvMs_NtCs9vRHrQZiaEo_10flyby_core5errorNtB5_5Error5otherpEB7_
FN:121,_RINvMs_NtCs9vRHrQZiaEo_10flyby_core5errorNtB5_5Error6decodepEB7_
FN:126,_RINvMs_NtCs9vRHrQZiaEo_10flyby_core5errorNtB5_5Error6encodepEB7_
FN:156,_RINvMs_NtCs9vRHrQZiaEo_10flyby_core5errorNtB5_5Error9lifecyclepEB7_
FN:131,_RINvMs_NtCs9vRHrQZiaEo_10flyby_core5errorNtB5_5Error9placementpEB7_
FN:176,_RNvMs_NtCs9vRHrQZiaEo_10flyby_core5errorNtB4_5Error7message
FN:182,_RNvXs0_NtCs9vRHrQZiaEo_10flyby_core5errorNtB5_5ErrorNtNtCsl8K0bEFm1U0_4core5clone5Clone5clone
FN:193,_RNvXs1_NtCs9vRHrQZiaEo_10flyby_core5errorNtB5_5ErrorNtNtCsl8K0bEFm1U0_4core3cmp9PartialEq2eq
FN:254,_RNvNtNtCs9vRHrQZiaEo_10flyby_core5error5testss_22not_implemented_helper
FN:233,_RNvNtNtCs9vRHrQZiaEo_10flyby_core5error5testss_30display_uses_stable_kind_label
FN:239,_RNvNtNtCs9vRHrQZiaEo_10flyby_core5error5testss_30from_io_preserves_source_chain
FN:247,_RNvNtNtCs9vRHrQZiaEo_10flyby_core5error5testss_33would_block_maps_to_back_pressure
FN:93,_RINvMs_NtCs9vRHrQZiaEo_10flyby_core5errorNtB5_5Error11with_sourceNtNtCs1OjIl8oxbrv_5alloc6string6StringNtNtNtCsg55jX0GwzBC_3std2io5error5ErrorEB7_
FN:151,_RINvMs_NtCs9vRHrQZiaEo_10flyby_core5errorNtB5_5Error15not_implementedReEB7_
FN:84,_RINvMs_NtCs9vRHrQZiaEo_10flyby_core5errorNtB5_5Error3newReEB7_
FN:141,_RINvMs_NtCs9vRHrQZiaEo_10flyby_core5errorNtB5_5Error6configReEB7_
FN:106,_RINvMs_NtCs9vRHrQZiaEo_10flyby_core5errorNtB5_5Error6sourceReEB7_
FN:210,_RNCNvXs4_NtCs9vRHrQZiaEo_10flyby_core5errorNtB7_5ErrorNtNtCsl8K0bEFm1U0_4core5error5Error6source0B9_
FN:116,_RINvMs_NtCscf8MsWp3cCb_10flyby_core5errorNtB5_5Error13back_pressureReECs4YFPOoCgYDP_12flyby_memory
FN:84,_RINvMs_NtCscf8MsWp3cCb_10flyby_core5errorNtB5_5Error3newNtNtCs1OjIl8oxbrv_5alloc6string6StringECs4YFPOoCgYDP_12flyby_memory
FN:111,_RINvMs_NtCscf8MsWp3cCb_10flyby_core5errorNtB5_5Error4sinkNtNtCs1OjIl8oxbrv_5alloc6string6StringECs4YFPOoCgYDP_12flyby_memory
FN:111,_RINvMs_NtCscf8MsWp3cCb_10flyby_core5errorNtB5_5Error4sinkReECs4YFPOoCgYDP_12flyby_memory
FN:126,_RINvMs_NtCscf8MsWp3cCb_10flyby_core5errorNtB5_5Error6encodeReECs4YFPOoCgYDP_12flyby_memory
FN:156,_RINvMs_NtCscf8MsWp3cCb_10flyby_core5errorNtB5_5Error9lifecycleReECsiazm9e7eIkx_9flyby_net
FN:141,_RINvMs_NtCscf8MsWp3cCb_10flyby_core5errorNtB5_5Error6configNtNtCs1OjIl8oxbrv_5alloc6string6StringECsgBpleClnEuB_15flyby_simulator
FN:84,_RINvMs_NtCscf8MsWp3cCb_10flyby_core5errorNtB5_5Error3newNtNtCs1OjIl8oxbrv_5alloc6string6StringECsaY8j7BoaK8w_13flyby_storage
FN:156,_RINvMs_NtCscf8MsWp3cCb_10flyby_core5errorNtB5_5Error9lifecycleReECsaY8j7BoaK8w_13flyby_storage
FN:156,_RINvMs_NtCscf8MsWp3cCb_10flyby_core5errorNtB5_5Error9lifecycleNtNtCs1OjIl8oxbrv_5alloc6string6StringECsip1xAQdcTWT_7runtime
FN:131,_RINvMs_NtCscf8MsWp3cCb_10flyby_core5errorNtB5_5Error9placementNtNtCs1OjIl8oxbrv_5alloc6string6StringECsip1xAQdcTWT_7runtime
FN:141,_RINvMs_NtCscf8MsWp3cCb_10flyby_core5errorNtB5_5Error6configNtNtCs1OjIl8oxbrv_5alloc6string6StringECseu8ThHmJ8jM_5flyby
FN:116,_RINvMs_NtCscf8MsWp3cCb_10flyby_core5errorNtB5_5Error13back_pressureReECs70JimhUohXZ_13shared_memory
FN:84,_RINvMs_NtCscf8MsWp3cCb_10flyby_core5errorNtB5_5Error3newNtNtCs1OjIl8oxbrv_5alloc6string6StringECs70JimhUohXZ_13shared_memory
FN:111,_RINvMs_NtCscf8MsWp3cCb_10flyby_core5errorNtB5_5Error4sinkNtNtCs1OjIl8oxbrv_5alloc6string6StringECs70JimhUohXZ_13shared_memory
FN:111,_RINvMs_NtCscf8MsWp3cCb_10flyby_core5errorNtB5_5Error4sinkReECs70JimhUohXZ_13shared_memory
FNDA:0,_RINvMs_NtCscf8MsWp3cCb_10flyby_core5errorNtB5_5Error6configNtNtCs1OjIl8oxbrv_5alloc6string6StringECs6vtiqiiMncD_15flyby_simulator
FNDA:8,_RINvMs_NtCscf8MsWp3cCb_10flyby_core5errorNtB5_5Error3newNtNtCs1OjIl8oxbrv_5alloc6string6StringECshMj2EFajhOT_13flyby_storage
FNDA:1,_RINvMs_NtCscf8MsWp3cCb_10flyby_core5errorNtB5_5Error11with_sourceNtNtCs1OjIl8oxbrv_5alloc6string6StringNtNtNtCsg55jX0GwzBC_3std2io5error5ErrorEB7_
FNDA:35,_RINvMs_NtCscf8MsWp3cCb_10flyby_core5errorNtB5_5Error3newReEB7_
FNDA:10,_RINvMs_NtCscf8MsWp3cCb_10flyby_core5errorNtB5_5Error6configReEB7_
FNDA:0,_RNCNvXs4_NtCscf8MsWp3cCb_10flyby_core5errorNtB7_5ErrorNtNtCsl8K0bEFm1U0_4core5error5Error6source0B9_
FNDA:17,_RNvMs_NtCscf8MsWp3cCb_10flyby_core5errorNtB4_5Error4kind
FNDA:0,_RNvMs_NtCscf8MsWp3cCb_10flyby_core5errorNtB4_5Error7message
FNDA:1,_RNvXNtCscf8MsWp3cCb_10flyby_core5errorNtB2_9ErrorKindNtNtCsl8K0bEFm1U0_4core3fmt7Display3fmt
FNDA:0,_RNvXs0_NtCscf8MsWp3cCb_10flyby_core5errorNtB5_5ErrorNtNtCsl8K0bEFm1U0_4core5clone5Clone5clone
FNDA:0,_RNvXs1_NtCscf8MsWp3cCb_10flyby_core5errorNtB5_5ErrorNtNtCsl8K0bEFm1U0_4core3cmp9PartialEq2eq
FNDA:1,_RNvXs3_NtCscf8MsWp3cCb_10flyby_core5errorNtB5_5ErrorNtNtCsl8K0bEFm1U0_4core3fmt7Display3fmt
FNDA:0,_RNvXs4_NtCscf8MsWp3cCb_10flyby_core5errorNtB5_5ErrorNtNtCsl8K0bEFm1U0_4core5error5Error6source
FNDA:0,_RNvXs5_NtCscf8MsWp3cCb_10flyby_core5errorNtB5_5ErrorINtNtCsl8K0bEFm1U0_4core7convert4FromNtNtNtCsg55jX0GwzBC_3std2io5error5ErrorE4from
FNDA:1,_RINvMs_NtCscf8MsWp3cCb_10flyby_core5errorNtB5_5Error9lifecycleReECs47HsRTND2zd_11file_source
FNDA:0,_RINvMs_NtCscf8MsWp3cCb_10flyby_core5errorNtB5_5Error13back_pressureReECsggT0ekrhFaK_5flyby
FNDA:0,_RINvMs_NtCscf8MsWp3cCb_10flyby_core5errorNtB5_5Error4sinkNtNtCs1OjIl8oxbrv_5alloc6string6StringECsggT0ekrhFaK_5flyby
FNDA:0,_RINvMs_NtCscf8MsWp3cCb_10flyby_core5errorNtB5_5Error4sinkReECsggT0ekrhFaK_5flyby
FNDA:0,_RINvMs_NtCscf8MsWp3cCb_10flyby_core5errorNtB5_5Error6configNtNtCs1OjIl8oxbrv_5alloc6string6StringECsggT0ekrhFaK_5flyby
FNDA:0,_RINvMs_NtCscf8MsWp3cCb_10flyby_core5errorNtB5_5Error9placementNtNtCs1OjIl8oxbrv_5alloc6string6StringECsggT0ekrhFaK_5flyby
FNDA:2,_RINvMs_NtCscf8MsWp3cCb_10flyby_core5errorNtB5_5Error9lifecycleReECslaj7P7CWVfX_9flyby_net
FNDA:0,_RINvMs_NtCscf8MsWp3cCb_10flyby_core5errorNtB5_5Error6encodeReECseHB1QHhtQVt_12flyby_memory
FNDA:3,_RNvMs_NtCs9vRHrQZiaEo_10flyby_core5errorNtB4_5Error4kind
FNDA:1,_RNvXNtCs9vRHrQZiaEo_10flyby_core5errorNtB2_9ErrorKindNtNtCsl8K0bEFm1U0_4core3fmt7Display3fmt
FNDA:1,_RNvXs3_NtCs9vRHrQZiaEo_10flyby_core5errorNtB5_5ErrorNtNtCsl8K0bEFm1U0_4core3fmt7Display3fmt
FNDA:1,_RNvXs4_NtCs9vRHrQZiaEo_10flyby_core5errorNtB5_5ErrorNtNtCsl8K0bEFm1U0_4core5error5Error6source
FNDA:2,_RNvXs5_NtCs9vRHrQZiaEo_10flyby_core5errorNtB5_5ErrorINtNtCsl8K0bEFm1U0_4core7convert4FromNtNtNtCsg55jX0GwzBC_3std2io5error5ErrorE4from
FNDA:0,_RINvMs_NtCs9vRHrQZiaEo_10flyby_core5errorNtB5_5Error10preprocesspEB7_
FNDA:0,_RINvMs_NtCs9vRHrQZiaEo_10flyby_core5errorNtB5_5Error13back_pressurepEB7_
FNDA:0,_RINvMs_NtCs9vRHrQZiaEo_10flyby_core5errorNtB5_5Error19feature_not_enabledpEB7_
FNDA:0,_RINvMs_NtCs9vRHrQZiaEo_10flyby_core5errorNtB5_5Error2iopEB7_
FNDA:0,_RINvMs_NtCs9vRHrQZiaEo_10flyby_core5errorNtB5_5Error4sinkpEB7_
FNDA:0,_RINvMs_NtCs9vRHrQZiaEo_10flyby_core5errorNtB5_5Error5otherpEB7_
FNDA:0,_RINvMs_NtCs9vRHrQZiaEo_10flyby_core5errorNtB5_5Error6decodepEB7_
FNDA:0,_RINvMs_NtCs9vRHrQZiaEo_10flyby_core5errorNtB5_5Error6encodepEB7_
FNDA:0,_RINvMs_NtCs9vRHrQZiaEo_10flyby_core5errorNtB5_5Error9lifecyclepEB7_
FNDA:0,_RINvMs_NtCs9vRHrQZiaEo_10flyby_core5errorNtB5_5Error9placementpEB7_
FNDA:0,_RNvMs_NtCs9vRHrQZiaEo_10flyby_core5errorNtB4_5Error7message
FNDA:0,_RNvXs0_NtCs9vRHrQZiaEo_10flyby_core5errorNtB5_5ErrorNtNtCsl8K0bEFm1U0_4core5clone5Clone5clone
FNDA:0,_RNvXs1_NtCs9vRHrQZiaEo_10flyby_core5errorNtB5_5ErrorNtNtCsl8K0bEFm1U0_4core3cmp9PartialEq2eq
FNDA:1,_RNvNtNtCs9vRHrQZiaEo_10flyby_core5error5testss_22not_implemented_helper
FNDA:1,_RNvNtNtCs9vRHrQZiaEo_10flyby_core5error5testss_30display_uses_stable_kind_label
FNDA:1,_RNvNtNtCs9vRHrQZiaEo_10flyby_core5error5testss_30from_io_preserves_source_chain
FNDA:1,_RNvNtNtCs9vRHrQZiaEo_10flyby_core5error5testss_33would_block_maps_to_back_pressure
FNDA:2,_RINvMs_NtCs9vRHrQZiaEo_10flyby_core5errorNtB5_5Error11with_sourceNtNtCs1OjIl8oxbrv_5alloc6string6StringNtNtNtCsg55jX0GwzBC_3std2io5error5ErrorEB7_
FNDA:1,_RINvMs_NtCs9vRHrQZiaEo_10flyby_core5errorNtB5_5Error15not_implementedReEB7_
FNDA:3,_RINvMs_NtCs9vRHrQZiaEo_10flyby_core5errorNtB5_5Error3newReEB7_
FNDA:1,_RINvMs_NtCs9vRHrQZiaEo_10flyby_core5errorNtB5_5Error6configReEB7_
FNDA:1,_RINvMs_NtCs9vRHrQZiaEo_10flyby_core5errorNtB5_5Error6sourceReEB7_
FNDA:1,_RNCNvXs4_NtCs9vRHrQZiaEo_10flyby_core5errorNtB7_5ErrorNtNtCsl8K0bEFm1U0_4core5error5Error6source0B9_
FNDA:1,_RINvMs_NtCscf8MsWp3cCb_10flyby_core5errorNtB5_5Error13back_pressureReECs4YFPOoCgYDP_12flyby_memory
FNDA:1,_RINvMs_NtCscf8MsWp3cCb_10flyby_core5errorNtB5_5Error3newNtNtCs1OjIl8oxbrv_5alloc6string6StringECs4YFPOoCgYDP_12flyby_memory
FNDA:1,_RINvMs_NtCscf8MsWp3cCb_10flyby_core5errorNtB5_5Error4sinkNtNtCs1OjIl8oxbrv_5alloc6string6StringECs4YFPOoCgYDP_12flyby_memory
FNDA:0,_RINvMs_NtCscf8MsWp3cCb_10flyby_core5errorNtB5_5Error4sinkReECs4YFPOoCgYDP_12flyby_memory
FNDA:1,_RINvMs_NtCscf8MsWp3cCb_10flyby_core5errorNtB5_5Error6encodeReECs4YFPOoCgYDP_12flyby_memory
FNDA:2,_RINvMs_NtCscf8MsWp3cCb_10flyby_core5errorNtB5_5Error9lifecycleReECsiazm9e7eIkx_9flyby_net
FNDA:0,_RINvMs_NtCscf8MsWp3cCb_10flyby_core5errorNtB5_5Error6configNtNtCs1OjIl8oxbrv_5alloc6string6StringECsgBpleClnEuB_15flyby_simulator
FNDA:4,_RINvMs_NtCscf8MsWp3cCb_10flyby_core5errorNtB5_5Error3newNtNtCs1OjIl8oxbrv_5alloc6string6StringECsaY8j7BoaK8w_13flyby_storage
FNDA:1,_RINvMs_NtCscf8MsWp3cCb_10flyby_core5errorNtB5_5Error9lifecycleReECsaY8j7BoaK8w_13flyby_storage
FNDA:0,_RINvMs_NtCscf8MsWp3cCb_10flyby_core5errorNtB5_5Error9lifecycleNtNtCs1OjIl8oxbrv_5alloc6string6StringECsip1xAQdcTWT_7runtime
FNDA:0,_RINvMs_NtCscf8MsWp3cCb_10flyby_core5errorNtB5_5Error9placementNtNtCs1OjIl8oxbrv_5alloc6string6StringECsip1xAQdcTWT_7runtime
FNDA:0,_RINvMs_NtCscf8MsWp3cCb_10flyby_core5errorNtB5_5Error6configNtNtCs1OjIl8oxbrv_5alloc6string6StringECseu8ThHmJ8jM_5flyby
FNDA:1,_RINvMs_NtCscf8MsWp3cCb_10flyby_core5errorNtB5_5Error13back_pressureReECs70JimhUohXZ_13shared_memory
FNDA:1,_RINvMs_NtCscf8MsWp3cCb_10flyby_core5errorNtB5_5Error3newNtNtCs1OjIl8oxbrv_5alloc6string6StringECs70JimhUohXZ_13shared_memory
FNDA:1,_RINvMs_NtCscf8MsWp3cCb_10flyby_core5errorNtB5_5Error4sinkNtNtCs1OjIl8oxbrv_5alloc6string6StringECs70JimhUohXZ_13shared_memory
FNDA:0,_RINvMs_NtCscf8MsWp3cCb_10flyby_core5errorNtB5_5Error4sinkReECs70JimhUohXZ_13shared_memory
FNF:28
FNH:19
DA:51,2
DA:52,2
DA:53,1
DA:54,0
DA:55,0
DA:56,0
DA:57,0
DA:58,0
DA:59,0
DA:60,1
DA:61,0
DA:62,0
DA:63,0
DA:64,0
DA:65,0
DA:67,2
DA:68,2
DA:84,52
DA:85,52
DA:86,52
DA:87,52
DA:88,52
DA:89,52
DA:90,52
DA:93,3
DA:94,3
DA:95,3
DA:96,3
DA:97,3
DA:98,3
DA:99,3
DA:100,3
DA:101,3
DA:102,3
DA:103,3
DA:106,1
DA:107,1
DA:108,1
DA:111,2
DA:112,2
DA:113,2
DA:116,2
DA:117,2
DA:118,2
DA:121,0
DA:122,0
DA:123,0
DA:126,1
DA:127,1
DA:128,1
DA:131,0
DA:132,0
DA:133,0
DA:136,0
DA:137,0
DA:138,0
DA:141,11
DA:142,11
DA:143,11
DA:146,0
DA:147,0
DA:148,0
DA:151,1
DA:152,1
DA:153,1
DA:156,6
DA:157,6
DA:158,6
DA:161,0
DA:162,0
DA:163,0
DA:166,0
DA:167,0
DA:168,0
DA:171,20
DA:172,20
DA:173,20
DA:176,0
DA:177,0
DA:178,0
DA:182,0
DA:183,0
DA:184,0
DA:185,0
DA:186,0
DA:187,0
DA:188,0
DA:189,0
DA:193,0
DA:194,0
DA:195,0
DA:201,2
DA:202,2
DA:203,2
DA:207,1
DA:208,1
DA:209,1
DA:210,1
DA:211,1
DA:215,2
DA:216,2
DA:217,1
DA:218,1
DA:220,2
DA:221,2
DA:222,2
DA:233,1
DA:234,1
DA:235,1
DA:236,1
DA:239,1
DA:240,1
DA:241,1
DA:242,1
DA:243,1
DA:244,1
DA:247,1
DA:248,1
DA:249,1
DA:250,1
DA:251,1
DA:254,1
DA:255,1
DA:256,1
DA:257,1
BRF:0
BRH:0
LF:126
LH:82
end_of_record
SF:/Users/thanos/work/flyby/crates/flyby-core/src/lifecycle.rs
FN:48,_RNvYINtCseHB1QHhtQVt_12flyby_memory16SharedMemorySinkNtB5_11StubMessageENtNtCscf8MsWp3cCb_10flyby_core9lifecycle9Lifecycle3runCsggT0ekrhFaK_5flyby
FN:48,_RNvYNtNtNtCsggT0ekrhFaK_5flyby8pipeline5tests11CollectSinkNtNtCscf8MsWp3cCb_10flyby_core9lifecycle9Lifecycle3runB8_
FN:40,_RNvYNtNtNtCsggT0ekrhFaK_5flyby8pipeline5tests11CollectSinkNtNtCscf8MsWp3cCb_10flyby_core9lifecycle9Lifecycle4initB8_
FN:57,_RNvYNtNtNtCsggT0ekrhFaK_5flyby8pipeline5tests11CollectSinkNtNtCscf8MsWp3cCb_10flyby_core9lifecycle9Lifecycle8shutdownB8_
FN:48,_RNvYpNtNtCs9vRHrQZiaEo_10flyby_core9lifecycle9Lifecycle3runB7_
FN:40,_RNvYpNtNtCs9vRHrQZiaEo_10flyby_core9lifecycle9Lifecycle4initB7_
FN:57,_RNvYpNtNtCs9vRHrQZiaEo_10flyby_core9lifecycle9Lifecycle8shutdownB7_
FN:48,_RNvYNtCsip1xAQdcTWT_7runtime12CountingSinkNtNtCscf8MsWp3cCb_10flyby_core9lifecycle9Lifecycle3runB4_
FN:40,_RNvYNtCsip1xAQdcTWT_7runtime12CountingSinkNtNtCscf8MsWp3cCb_10flyby_core9lifecycle9Lifecycle4initB4_
FN:57,_RNvYNtCsip1xAQdcTWT_7runtime12CountingSinkNtNtCscf8MsWp3cCb_10flyby_core9lifecycle9Lifecycle8shutdownB4_
FNDA:0,_RNvYINtCseHB1QHhtQVt_12flyby_memory16SharedMemorySinkNtB5_11StubMessageENtNtCscf8MsWp3cCb_10flyby_core9lifecycle9Lifecycle3runCsggT0ekrhFaK_5flyby
FNDA:0,_RNvYNtNtNtCsggT0ekrhFaK_5flyby8pipeline5tests11CollectSinkNtNtCscf8MsWp3cCb_10flyby_core9lifecycle9Lifecycle3runB8_
FNDA:1,_RNvYNtNtNtCsggT0ekrhFaK_5flyby8pipeline5tests11CollectSinkNtNtCscf8MsWp3cCb_10flyby_core9lifecycle9Lifecycle4initB8_
FNDA:1,_RNvYNtNtNtCsggT0ekrhFaK_5flyby8pipeline5tests11CollectSinkNtNtCscf8MsWp3cCb_10flyby_core9lifecycle9Lifecycle8shutdownB8_
FNDA:0,_RNvYpNtNtCs9vRHrQZiaEo_10flyby_core9lifecycle9Lifecycle3runB7_
FNDA:0,_RNvYpNtNtCs9vRHrQZiaEo_10flyby_core9lifecycle9Lifecycle4initB7_
FNDA:0,_RNvYpNtNtCs9vRHrQZiaEo_10flyby_core9lifecycle9Lifecycle8shutdownB7_
FNDA:0,_RNvYNtCsip1xAQdcTWT_7runtime12CountingSinkNtNtCscf8MsWp3cCb_10flyby_core9lifecycle9Lifecycle3runB4_
FNDA:8,_RNvYNtCsip1xAQdcTWT_7runtime12CountingSinkNtNtCscf8MsWp3cCb_10flyby_core9lifecycle9Lifecycle4initB4_
FNDA:8,_RNvYNtCsip1xAQdcTWT_7runtime12CountingSinkNtNtCscf8MsWp3cCb_10flyby_core9lifecycle9Lifecycle8shutdownB4_
FNF:3
FNH:2
DA:40,9
DA:41,9
DA:42,9
DA:48,0
DA:49,0
DA:50,0
DA:57,9
DA:58,9
DA:59,9
BRF:0
BRH:0
LF:9
LH:6
end_of_record
SF:/Users/thanos/work/flyby/crates/flyby-core/src/message.rs
FN:58,_RNvMs_NtCscf8MsWp3cCb_10flyby_core7messageNtB4_9Timestamp10from_nanos
FN:63,_RNvMs_NtCscf8MsWp3cCb_10flyby_core7messageNtB4_9Timestamp8as_nanos
FN:42,_RNvXNtCscf8MsWp3cCb_10flyby_core7messageNtB2_15DefaultSchemaIdNtB2_8SchemaId2id
FN:37,_RNvXNtCscf8MsWp3cCb_10flyby_core7messageNtB2_15DefaultSchemaIdNtB2_8SchemaId4name
FN:58,_RNvMs_NtCs9vRHrQZiaEo_10flyby_core7messageNtB4_9Timestamp10from_nanos
FN:63,_RNvMs_NtCs9vRHrQZiaEo_10flyby_core7messageNtB4_9Timestamp8as_nanos
FN:42,_RNvXNtCs9vRHrQZiaEo_10flyby_core7messageNtB2_15DefaultSchemaIdNtB2_8SchemaId2id
FN:37,_RNvXNtCs9vRHrQZiaEo_10flyby_core7messageNtB2_15DefaultSchemaIdNtB2_8SchemaId4name
FNDA:41,_RNvMs_NtCscf8MsWp3cCb_10flyby_core7messageNtB4_9Timestamp10from_nanos
FNDA:41,_RNvMs_NtCscf8MsWp3cCb_10flyby_core7messageNtB4_9Timestamp8as_nanos
FNDA:41,_RNvXNtCscf8MsWp3cCb_10flyby_core7messageNtB2_15DefaultSchemaIdNtB2_8SchemaId2id
FNDA:0,_RNvXNtCscf8MsWp3cCb_10flyby_core7messageNtB2_15DefaultSchemaIdNtB2_8SchemaId4name
FNDA:0,_RNvMs_NtCs9vRHrQZiaEo_10flyby_core7messageNtB4_9Timestamp10from_nanos
FNDA:0,_RNvMs_NtCs9vRHrQZiaEo_10flyby_core7messageNtB4_9Timestamp8as_nanos
FNDA:0,_RNvXNtCs9vRHrQZiaEo_10flyby_core7messageNtB2_15DefaultSchemaIdNtB2_8SchemaId2id
FNDA:0,_RNvXNtCs9vRHrQZiaEo_10flyby_core7messageNtB2_15DefaultSchemaIdNtB2_8SchemaId4name
FNF:4
FNH:3
DA:37,0
DA:39,0
DA:40,0
DA:42,41
DA:43,41
DA:44,41
DA:58,41
DA:59,41
DA:60,41
DA:63,41
DA:64,41
DA:65,41
BRF:0
BRH:0
LF:12
LH:9
end_of_record
SF:/Users/thanos/work/flyby/crates/flyby-core/src/metrics.rs
FN:55,_RNvYINtNtCs1OjIl8oxbrv_5alloc4sync3ArcDNtNtCscf8MsWp3cCb_10flyby_core7metrics16MetricsCollectorEL_EBB_12record_gaugeCs6vtiqiiMncD_15flyby_simulator
FN:55,_RNvYNtNtCscf8MsWp3cCb_10flyby_core7metrics13NullCollectorNtB4_16MetricsCollector12record_gaugeCslaj7P7CWVfX_9flyby_net
FN:50,_RNvYNtNtCscf8MsWp3cCb_10flyby_core7metrics13NullCollectorNtB4_16MetricsCollector14record_counterCslaj7P7CWVfX_9flyby_net
FN:60,_RNvYNtNtCscf8MsWp3cCb_10flyby_core7metrics13NullCollectorNtB4_16MetricsCollector16record_histogramCslaj7P7CWVfX_9flyby_net
FN:50,_RNvYINtNtCs1OjIl8oxbrv_5alloc4sync3ArcDNtNtCscf8MsWp3cCb_10flyby_core7metrics16MetricsCollectorEL_EBB_14record_counterCslaj7P7CWVfX_9flyby_net
FN:60,_RNvYINtNtCs1OjIl8oxbrv_5alloc4sync3ArcDNtNtCscf8MsWp3cCb_10flyby_core7metrics16MetricsCollectorEL_EBB_16record_histogramCslaj7P7CWVfX_9flyby_net
FN:74,_RNvXs_NtCscf8MsWp3cCb_10flyby_core7metricsINtNtCs1OjIl8oxbrv_5alloc4sync3ArcDNtB4_16MetricsCollectorEL_EB1d_6record
FN:93,_RNvMs0_NtCscf8MsWp3cCb_10flyby_core7metricsNtB5_17CountingCollector3new
FN:98,_RNvMs0_NtCscf8MsWp3cCb_10flyby_core7metricsNtB5_17CountingCollector6shared
FN:70,_RNvXNtCscf8MsWp3cCb_10flyby_core7metricsNtB2_13NullCollectorNtB2_16MetricsCollector6record
FN:104,_RNvXs1_NtCscf8MsWp3cCb_10flyby_core7metricsNtB5_17CountingCollectorNtB5_16MetricsCollector6record
FN:55,_RNvYNtNtCscf8MsWp3cCb_10flyby_core7metrics13NullCollectorNtB4_16MetricsCollector12record_gaugeCs47HsRTND2zd_11file_source
FN:50,_RNvYNtNtCscf8MsWp3cCb_10flyby_core7metrics13NullCollectorNtB4_16MetricsCollector14record_counterCs47HsRTND2zd_11file_source
FN:60,_RNvYNtNtCscf8MsWp3cCb_10flyby_core7metrics13NullCollectorNtB4_16MetricsCollector16record_histogramCs47HsRTND2zd_11file_source
FN:50,_RNvYINtNtCs1OjIl8oxbrv_5alloc4sync3ArcDNtNtCscf8MsWp3cCb_10flyby_core7metrics16MetricsCollectorEL_EBB_14record_counterCs47HsRTND2zd_11file_source
FN:117,_RNvNtNtCs9vRHrQZiaEo_10flyby_core7metrics5testss_20null_collector_smoke
FN:125,_RNvNtNtCs9vRHrQZiaEo_10flyby_core7metrics5testss_23counting_collector_sums
FN:136,_RNvXNtNtCs9vRHrQZiaEo_10flyby_core7metrics5testsNtB2_7TestKeyNtB4_9MetricKey4name
FN:55,_RNvYNtNtCs9vRHrQZiaEo_10flyby_core7metrics13NullCollectorNtB4_16MetricsCollector12record_gaugeB6_
FN:50,_RNvYNtNtCs9vRHrQZiaEo_10flyby_core7metrics13NullCollectorNtB4_16MetricsCollector14record_counterB6_
FN:60,_RNvYNtNtCs9vRHrQZiaEo_10flyby_core7metrics13NullCollectorNtB4_16MetricsCollector16record_histogramB6_
FN:50,_RNvYNtNtCs9vRHrQZiaEo_10flyby_core7metrics17CountingCollectorNtB4_16MetricsCollector14record_counterB6_
FN:98,_RNvMs0_NtCs9vRHrQZiaEo_10flyby_core7metricsNtB5_17CountingCollector6shared
FN:74,_RNvXs_NtCs9vRHrQZiaEo_10flyby_core7metricsINtNtCs1OjIl8oxbrv_5alloc4sync3ArcDNtB4_16MetricsCollectorEL_EB1d_6record
FN:93,_RNvMs0_NtCs9vRHrQZiaEo_10flyby_core7metricsNtB5_17CountingCollector3new
FN:70,_RNvXNtCs9vRHrQZiaEo_10flyby_core7metricsNtB2_13NullCollectorNtB2_16MetricsCollector6record
FN:104,_RNvXs1_NtCs9vRHrQZiaEo_10flyby_core7metricsNtB5_17CountingCollectorNtB5_16MetricsCollector6record
FN:50,_RNvYINtNtCs1OjIl8oxbrv_5alloc4sync3ArcDNtNtCscf8MsWp3cCb_10flyby_core7metrics16MetricsCollectorEL_EBB_14record_counterCs4YFPOoCgYDP_12flyby_memory
FN:55,_RNvYNtNtCscf8MsWp3cCb_10flyby_core7metrics13NullCollectorNtB4_16MetricsCollector12record_gaugeCs4YFPOoCgYDP_12flyby_memory
FN:50,_RNvYNtNtCscf8MsWp3cCb_10flyby_core7metrics13NullCollectorNtB4_16MetricsCollector14record_counterCs4YFPOoCgYDP_12flyby_memory
FN:60,_RNvYNtNtCscf8MsWp3cCb_10flyby_core7metrics13NullCollectorNtB4_16MetricsCollector16record_histogramCs4YFPOoCgYDP_12flyby_memory
FN:55,_RNvYNtNtCscf8MsWp3cCb_10flyby_core7metrics13NullCollectorNtB4_16MetricsCollector12record_gaugeCsiazm9e7eIkx_9flyby_net
FN:50,_RNvYNtNtCscf8MsWp3cCb_10flyby_core7metrics13NullCollectorNtB4_16MetricsCollector14record_counterCsiazm9e7eIkx_9flyby_net
FN:60,_RNvYNtNtCscf8MsWp3cCb_10flyby_core7metrics13NullCollectorNtB4_16MetricsCollector16record_histogramCsiazm9e7eIkx_9flyby_net
FN:50,_RNvYINtNtCs1OjIl8oxbrv_5alloc4sync3ArcDNtNtCscf8MsWp3cCb_10flyby_core7metrics16MetricsCollectorEL_EBB_14record_counterCsiazm9e7eIkx_9flyby_net
FN:60,_RNvYINtNtCs1OjIl8oxbrv_5alloc4sync3ArcDNtNtCscf8MsWp3cCb_10flyby_core7metrics16MetricsCollectorEL_EBB_16record_histogramCsiazm9e7eIkx_9flyby_net
FN:55,_RNvYINtNtCs1OjIl8oxbrv_5alloc4sync3ArcDNtNtCscf8MsWp3cCb_10flyby_core7metrics16MetricsCollectorEL_EBB_12record_gaugeCsgBpleClnEuB_15flyby_simulator
FN:50,_RNvYINtNtCs1OjIl8oxbrv_5alloc4sync3ArcDNtNtCscf8MsWp3cCb_10flyby_core7metrics16MetricsCollectorEL_EBB_14record_counterCsaY8j7BoaK8w_13flyby_storage
FN:55,_RNvYNtNtCscf8MsWp3cCb_10flyby_core7metrics13NullCollectorNtB4_16MetricsCollector12record_gaugeCsaY8j7BoaK8w_13flyby_storage
FN:50,_RNvYNtNtCscf8MsWp3cCb_10flyby_core7metrics13NullCollectorNtB4_16MetricsCollector14record_counterCsaY8j7BoaK8w_13flyby_storage
FN:60,_RNvYNtNtCscf8MsWp3cCb_10flyby_core7metrics13NullCollectorNtB4_16MetricsCollector16record_histogramCsaY8j7BoaK8w_13flyby_storage
FN:55,_RNvYINtNtCs1OjIl8oxbrv_5alloc4sync3ArcDNtNtCscf8MsWp3cCb_10flyby_core7metrics16MetricsCollectorEL_EBB_12record_gaugeCsip1xAQdcTWT_7runtime
FN:55,_RNvYNtNtCscf8MsWp3cCb_10flyby_core7metrics17CountingCollectorNtB4_16MetricsCollector12record_gaugeCshkIP76xL6qM_9scenarios
FN:50,_RNvYNtNtCscf8MsWp3cCb_10flyby_core7metrics17CountingCollectorNtB4_16MetricsCollector14record_counterCshkIP76xL6qM_9scenarios
FN:60,_RNvYNtNtCscf8MsWp3cCb_10flyby_core7metrics17CountingCollectorNtB4_16MetricsCollector16record_histogramCshkIP76xL6qM_9scenarios
FN:55,_RNvYNtNtCscf8MsWp3cCb_10flyby_core7metrics13NullCollectorNtB4_16MetricsCollector12record_gaugeCs70JimhUohXZ_13shared_memory
FN:50,_RNvYNtNtCscf8MsWp3cCb_10flyby_core7metrics13NullCollectorNtB4_16MetricsCollector14record_counterCs70JimhUohXZ_13shared_memory
FN:60,_RNvYNtNtCscf8MsWp3cCb_10flyby_core7metrics13NullCollectorNtB4_16MetricsCollector16record_histogramCs70JimhUohXZ_13shared_memory
FN:50,_RNvYINtNtCs1OjIl8oxbrv_5alloc4sync3ArcDNtNtCscf8MsWp3cCb_10flyby_core7metrics16MetricsCollectorEL_EBB_14record_counterCs70JimhUohXZ_13shared_memory
FNDA:8030,_RNvYINtNtCs1OjIl8oxbrv_5alloc4sync3ArcDNtNtCscf8MsWp3cCb_10flyby_core7metrics16MetricsCollectorEL_EBB_12record_gaugeCs6vtiqiiMncD_15flyby_simulator
FNDA:0,_RNvYNtNtCscf8MsWp3cCb_10flyby_core7metrics13NullCollectorNtB4_16MetricsCollector12record_gaugeCslaj7P7CWVfX_9flyby_net
FNDA:76,_RNvYNtNtCscf8MsWp3cCb_10flyby_core7metrics13NullCollectorNtB4_16MetricsCollector14record_counterCslaj7P7CWVfX_9flyby_net
FNDA:0,_RNvYNtNtCscf8MsWp3cCb_10flyby_core7metrics13NullCollectorNtB4_16MetricsCollector16record_histogramCslaj7P7CWVfX_9flyby_net
FNDA:304712,_RNvYINtNtCs1OjIl8oxbrv_5alloc4sync3ArcDNtNtCscf8MsWp3cCb_10flyby_core7metrics16MetricsCollectorEL_EBB_14record_counterCslaj7P7CWVfX_9flyby_net
FNDA:19143,_RNvYINtNtCs1OjIl8oxbrv_5alloc4sync3ArcDNtNtCscf8MsWp3cCb_10flyby_core7metrics16MetricsCollectorEL_EBB_16record_histogramCslaj7P7CWVfX_9flyby_net
FNDA:332154,_RNvXs_NtCscf8MsWp3cCb_10flyby_core7metricsINtNtCs1OjIl8oxbrv_5alloc4sync3ArcDNtB4_16MetricsCollectorEL_EB1d_6record
FNDA:1,_RNvMs0_NtCscf8MsWp3cCb_10flyby_core7metricsNtB5_17CountingCollector3new
FNDA:1,_RNvMs0_NtCscf8MsWp3cCb_10flyby_core7metricsNtB5_17CountingCollector6shared
FNDA:332218,_RNvXNtCscf8MsWp3cCb_10flyby_core7metricsNtB2_13NullCollectorNtB2_16MetricsCollector6record
FNDA:12,_RNvXs1_NtCscf8MsWp3cCb_10flyby_core7metricsNtB5_17CountingCollectorNtB5_16MetricsCollector6record
FNDA:0,_RNvYNtNtCscf8MsWp3cCb_10flyby_core7metrics13NullCollectorNtB4_16MetricsCollector12record_gaugeCs47HsRTND2zd_11file_source
FNDA:0,_RNvYNtNtCscf8MsWp3cCb_10flyby_core7metrics13NullCollectorNtB4_16MetricsCollector14record_counterCs47HsRTND2zd_11file_source
FNDA:0,_RNvYNtNtCscf8MsWp3cCb_10flyby_core7metrics13NullCollectorNtB4_16MetricsCollector16record_histogramCs47HsRTND2zd_11file_source
FNDA:99,_RNvYINtNtCs1OjIl8oxbrv_5alloc4sync3ArcDNtNtCscf8MsWp3cCb_10flyby_core7metrics16MetricsCollectorEL_EBB_14record_counterCs47HsRTND2zd_11file_source
FNDA:1,_RNvNtNtCs9vRHrQZiaEo_10flyby_core7metrics5testss_20null_collector_smoke
FNDA:1,_RNvNtNtCs9vRHrQZiaEo_10flyby_core7metrics5testss_23counting_collector_sums
FNDA:0,_RNvXNtNtCs9vRHrQZiaEo_10flyby_core7metrics5testsNtB2_7TestKeyNtB4_9MetricKey4name
FNDA:1,_RNvYNtNtCs9vRHrQZiaEo_10flyby_core7metrics13NullCollectorNtB4_16MetricsCollector12record_gaugeB6_
FNDA:1,_RNvYNtNtCs9vRHrQZiaEo_10flyby_core7metrics13NullCollectorNtB4_16MetricsCollector14record_counterB6_
FNDA:1,_RNvYNtNtCs9vRHrQZiaEo_10flyby_core7metrics13NullCollectorNtB4_16MetricsCollector16record_histogramB6_
FNDA:2,_RNvYNtNtCs9vRHrQZiaEo_10flyby_core7metrics17CountingCollectorNtB4_16MetricsCollector14record_counterB6_
FNDA:0,_RNvMs0_NtCs9vRHrQZiaEo_10flyby_core7metricsNtB5_17CountingCollector6shared
FNDA:0,_RNvXs_NtCs9vRHrQZiaEo_10flyby_core7metricsINtNtCs1OjIl8oxbrv_5alloc4sync3ArcDNtB4_16MetricsCollectorEL_EB1d_6record
FNDA:1,_RNvMs0_NtCs9vRHrQZiaEo_10flyby_core7metricsNtB5_17CountingCollector3new
FNDA:3,_RNvXNtCs9vRHrQZiaEo_10flyby_core7metricsNtB2_13NullCollectorNtB2_16MetricsCollector6record
FNDA:2,_RNvXs1_NtCs9vRHrQZiaEo_10flyby_core7metricsNtB5_17CountingCollectorNtB5_16MetricsCollector6record
FNDA:17,_RNvYINtNtCs1OjIl8oxbrv_5alloc4sync3ArcDNtNtCscf8MsWp3cCb_10flyby_core7metrics16MetricsCollectorEL_EBB_14record_counterCs4YFPOoCgYDP_12flyby_memory
FNDA:0,_RNvYNtNtCscf8MsWp3cCb_10flyby_core7metrics13NullCollectorNtB4_16MetricsCollector12record_gaugeCs4YFPOoCgYDP_12flyby_memory
FNDA:0,_RNvYNtNtCscf8MsWp3cCb_10flyby_core7metrics13NullCollectorNtB4_16MetricsCollector14record_counterCs4YFPOoCgYDP_12flyby_memory
FNDA:0,_RNvYNtNtCscf8MsWp3cCb_10flyby_core7metrics13NullCollectorNtB4_16MetricsCollector16record_histogramCs4YFPOoCgYDP_12flyby_memory
FNDA:0,_RNvYNtNtCscf8MsWp3cCb_10flyby_core7metrics13NullCollectorNtB4_16MetricsCollector12record_gaugeCsiazm9e7eIkx_9flyby_net
FNDA:0,_RNvYNtNtCscf8MsWp3cCb_10flyby_core7metrics13NullCollectorNtB4_16MetricsCollector14record_counterCsiazm9e7eIkx_9flyby_net
FNDA:0,_RNvYNtNtCscf8MsWp3cCb_10flyby_core7metrics13NullCollectorNtB4_16MetricsCollector16record_histogramCsiazm9e7eIkx_9flyby_net
FNDA:73,_RNvYINtNtCs1OjIl8oxbrv_5alloc4sync3ArcDNtNtCscf8MsWp3cCb_10flyby_core7metrics16MetricsCollectorEL_EBB_14record_counterCsiazm9e7eIkx_9flyby_net
FNDA:7,_RNvYINtNtCs1OjIl8oxbrv_5alloc4sync3ArcDNtNtCscf8MsWp3cCb_10flyby_core7metrics16MetricsCollectorEL_EBB_16record_histogramCsiazm9e7eIkx_9flyby_net
FNDA:12,_RNvYINtNtCs1OjIl8oxbrv_5alloc4sync3ArcDNtNtCscf8MsWp3cCb_10flyby_core7metrics16MetricsCollectorEL_EBB_12record_gaugeCsgBpleClnEuB_15flyby_simulator
FNDA:39,_RNvYINtNtCs1OjIl8oxbrv_5alloc4sync3ArcDNtNtCscf8MsWp3cCb_10flyby_core7metrics16MetricsCollectorEL_EBB_14record_counterCsaY8j7BoaK8w_13flyby_storage
FNDA:0,_RNvYNtNtCscf8MsWp3cCb_10flyby_core7metrics13NullCollectorNtB4_16MetricsCollector12record_gaugeCsaY8j7BoaK8w_13flyby_storage
FNDA:0,_RNvYNtNtCscf8MsWp3cCb_10flyby_core7metrics13NullCollectorNtB4_16MetricsCollector14record_counterCsaY8j7BoaK8w_13flyby_storage
FNDA:0,_RNvYNtNtCscf8MsWp3cCb_10flyby_core7metrics13NullCollectorNtB4_16MetricsCollector16record_histogramCsaY8j7BoaK8w_13flyby_storage
FNDA:7,_RNvYINtNtCs1OjIl8oxbrv_5alloc4sync3ArcDNtNtCscf8MsWp3cCb_10flyby_core7metrics16MetricsCollectorEL_EBB_12record_gaugeCsip1xAQdcTWT_7runtime
FNDA:0,_RNvYNtNtCscf8MsWp3cCb_10flyby_core7metrics17CountingCollectorNtB4_16MetricsCollector12record_gaugeCshkIP76xL6qM_9scenarios
FNDA:0,_RNvYNtNtCscf8MsWp3cCb_10flyby_core7metrics17CountingCollectorNtB4_16MetricsCollector14record_counterCshkIP76xL6qM_9scenarios
FNDA:0,_RNvYNtNtCscf8MsWp3cCb_10flyby_core7metrics17CountingCollectorNtB4_16MetricsCollector16record_histogramCshkIP76xL6qM_9scenarios
FNDA:0,_RNvYNtNtCscf8MsWp3cCb_10flyby_core7metrics13NullCollectorNtB4_16MetricsCollector12record_gaugeCs70JimhUohXZ_13shared_memory
FNDA:0,_RNvYNtNtCscf8MsWp3cCb_10flyby_core7metrics13NullCollectorNtB4_16MetricsCollector14record_counterCs70JimhUohXZ_13shared_memory
FNDA:0,_RNvYNtNtCscf8MsWp3cCb_10flyby_core7metrics13NullCollectorNtB4_16MetricsCollector16record_histogramCs70JimhUohXZ_13shared_memory
FNDA:13,_RNvYINtNtCs1OjIl8oxbrv_5alloc4sync3ArcDNtNtCscf8MsWp3cCb_10flyby_core7metrics16MetricsCollectorEL_EBB_14record_counterCs70JimhUohXZ_13shared_memory
FNF:11
FNH:10
DA:50,305032
DA:51,305032
DA:52,305032
DA:55,8050
DA:56,8050
DA:57,8050
DA:60,19151
DA:61,19151
DA:62,19151
DA:70,332221
DA:74,332154
DA:75,332154
DA:76,332154
DA:93,2
DA:94,2
DA:95,2
DA:98,1
DA:99,1
DA:100,1
DA:104,14
DA:105,14
DA:106,14
DA:107,11
DA:108,11
DA:109,14
DA:117,1
DA:118,1
DA:119,1
DA:120,1
DA:121,1
DA:122,1
DA:125,1
DA:126,1
DA:127,1
DA:128,1
DA:129,1
DA:130,1
DA:131,1
DA:136,0
DA:137,0
DA:138,0
BRF:0
BRH:0
LF:41
LH:38
end_of_record
SF:/Users/thanos/work/flyby/crates/flyby-core/src/pipeline.rs
FN:61,_RNvYpNtNtCs9vRHrQZiaEo_10flyby_core8pipeline8Pipeline12step_outcomeB7_
FNDA:0,_RNvYpNtNtCs9vRHrQZiaEo_10flyby_core8pipeline8Pipeline12step_outcomeB7_
FNF:1
FNH:0
DA:61,0
DA:62,0
DA:63,0
DA:65,0
DA:67,0
BRF:0
BRH:0
LF:5
LH:0
end_of_record
SF:/Users/thanos/work/flyby/crates/flyby-core/src/placement.rs
FN:44,_RNvMNtCscf8MsWp3cCb_10flyby_core9placementNtB2_6SinkId3new
FN:50,_RNvMNtCscf8MsWp3cCb_10flyby_core9placementNtB2_6SinkId6as_u32
FN:55,_RNvMNtCscf8MsWp3cCb_10flyby_core9placementNtB2_6SinkId7is_none
FN:32,_RNvMNtCscf8MsWp3cCb_10flyby_core9placementNtB2_6SinkId7try_new
FN:44,_RNvMNtCs9vRHrQZiaEo_10flyby_core9placementNtB2_6SinkId3new
FN:50,_RNvMNtCs9vRHrQZiaEo_10flyby_core9placementNtB2_6SinkId6as_u32
FN:55,_RNvMNtCs9vRHrQZiaEo_10flyby_core9placementNtB2_6SinkId7is_none
FN:32,_RNvMNtCs9vRHrQZiaEo_10flyby_core9placementNtB2_6SinkId7try_new
FN:77,_RNvNtNtCs9vRHrQZiaEo_10flyby_core9placement5testss_12none_is_zero
FN:90,_RNvNtNtCs9vRHrQZiaEo_10flyby_core9placement5testss_18new_panics_on_zero
FN:83,_RNvNtNtCs9vRHrQZiaEo_10flyby_core9placement5testss_20try_new_rejects_zero
FNDA:21,_RNvMNtCscf8MsWp3cCb_10flyby_core9placementNtB2_6SinkId3new
FNDA:55,_RNvMNtCscf8MsWp3cCb_10flyby_core9placementNtB2_6SinkId6as_u32
FNDA:57,_RNvMNtCscf8MsWp3cCb_10flyby_core9placementNtB2_6SinkId7is_none
FNDA:0,_RNvMNtCscf8MsWp3cCb_10flyby_core9placementNtB2_6SinkId7try_new
FNDA:1,_RNvMNtCs9vRHrQZiaEo_10flyby_core9placementNtB2_6SinkId3new
FNDA:2,_RNvMNtCs9vRHrQZiaEo_10flyby_core9placementNtB2_6SinkId6as_u32
FNDA:1,_RNvMNtCs9vRHrQZiaEo_10flyby_core9placementNtB2_6SinkId7is_none
FNDA:2,_RNvMNtCs9vRHrQZiaEo_10flyby_core9placementNtB2_6SinkId7try_new
FNDA:1,_RNvNtNtCs9vRHrQZiaEo_10flyby_core9placement5testss_12none_is_zero
FNDA:1,_RNvNtNtCs9vRHrQZiaEo_10flyby_core9placement5testss_18new_panics_on_zero
FNDA:1,_RNvNtNtCs9vRHrQZiaEo_10flyby_core9placement5testss_20try_new_rejects_zero
FNF:7
FNH:7
DA:32,2
DA:33,2
DA:34,1
DA:35,1
DA:36,1
DA:37,2
DA:44,22
DA:45,22
DA:46,21
DA:47,21
DA:50,57
DA:51,57
DA:52,57
DA:55,58
DA:56,58
DA:57,58
DA:77,1
DA:78,1
DA:79,1
DA:80,1
DA:83,1
DA:84,1
DA:85,1
DA:86,1
DA:90,1
DA:91,1
DA:92,1
BRF:0
BRH:0
LF:27
LH:27
end_of_record
SF:/Users/thanos/work/flyby/crates/flyby-core/src/sink.rs
FN:30,_RNvYINtCseHB1QHhtQVt_12flyby_memory16SharedMemorySinkNtB5_11StubMessageENtNtCscf8MsWp3cCb_10flyby_core4sink4Sink5flushCsggT0ekrhFaK_5flyby
FN:30,_RNvYNtNtNtCsggT0ekrhFaK_5flyby8pipeline5tests11CollectSinkNtNtCscf8MsWp3cCb_10flyby_core4sink4Sink5flushB8_
FN:30,_RNvYpNtNtCs9vRHrQZiaEo_10flyby_core4sink4Sink5flushB7_
FN:30,_RNvYNtCsip1xAQdcTWT_7runtime12CountingSinkNtNtCscf8MsWp3cCb_10flyby_core4sink4Sink5flushB4_
FNDA:2,_RNvYINtCseHB1QHhtQVt_12flyby_memory16SharedMemorySinkNtB5_11StubMessageENtNtCscf8MsWp3cCb_10flyby_core4sink4Sink5flushCsggT0ekrhFaK_5flyby
FNDA:1,_RNvYNtNtNtCsggT0ekrhFaK_5flyby8pipeline5tests11CollectSinkNtNtCscf8MsWp3cCb_10flyby_core4sink4Sink5flushB8_
FNDA:0,_RNvYpNtNtCs9vRHrQZiaEo_10flyby_core4sink4Sink5flushB7_
FNDA:8,_RNvYNtCsip1xAQdcTWT_7runtime12CountingSinkNtNtCscf8MsWp3cCb_10flyby_core4sink4Sink5flushB4_
FNF:1
FNH:1
DA:30,11
DA:31,11
DA:32,11
BRF:0
BRH:0
LF:3
LH:3
end_of_record
SF:/Users/thanos/work/flyby/crates/flyby-memory/src/lib.rs
FN:162,_RNCNvMs_CseHB1QHhtQVt_12flyby_memoryINtB6_16SharedMemorySinkNtB6_11StubMessageE10reset_ring0CsggT0ekrhFaK_5flyby
FN:193,_RNCNvXs1_CseHB1QHhtQVt_12flyby_memoryINtB7_16SharedMemorySinkNtB7_11StubMessageENtNtCscf8MsWp3cCb_10flyby_core4sink4Sink5write0CsggT0ekrhFaK_5flyby
FN:229,_RNCNvXs1_CseHB1QHhtQVt_12flyby_memoryINtB7_16SharedMemorySinkNtB7_11StubMessageENtNtCscf8MsWp3cCb_10flyby_core4sink4Sink5writes0_0CsggT0ekrhFaK_5flyby
FN:219,_RNCNvXs1_CseHB1QHhtQVt_12flyby_memoryINtB7_16SharedMemorySinkNtB7_11StubMessageENtNtCscf8MsWp3cCb_10flyby_core4sink4Sink5writes_0CsggT0ekrhFaK_5flyby
FN:161,_RNvMs_CseHB1QHhtQVt_12flyby_memoryINtB4_16SharedMemorySinkNtB4_11StubMessageE10reset_ringCsggT0ekrhFaK_5flyby
FN:112,_RNvMs_CseHB1QHhtQVt_12flyby_memoryINtB4_16SharedMemorySinkNtB4_11StubMessageE3newCsggT0ekrhFaK_5flyby
FN:168,_RNvXs0_CseHB1QHhtQVt_12flyby_memoryINtB5_16SharedMemorySinkNtB5_11StubMessageENtNtCscf8MsWp3cCb_10flyby_core9lifecycle9Lifecycle4initCsggT0ekrhFaK_5flyby
FN:173,_RNvXs0_CseHB1QHhtQVt_12flyby_memoryINtB5_16SharedMemorySinkNtB5_11StubMessageENtNtCscf8MsWp3cCb_10flyby_core9lifecycle9Lifecycle8shutdownCsggT0ekrhFaK_5flyby
FN:182,_RNvXs1_CseHB1QHhtQVt_12flyby_memoryINtB5_16SharedMemorySinkNtB5_11StubMessageENtNtCscf8MsWp3cCb_10flyby_core4sink4Sink5writeCsggT0ekrhFaK_5flyby
FN:68,_RNvXCseHB1QHhtQVt_12flyby_memoryNtB2_15MemoryMetricKeyNtNtCscf8MsWp3cCb_10flyby_core7metrics9MetricKey4name
FN:268,_RNvXs2_CseHB1QHhtQVt_12flyby_memoryNtB5_11StubMessageNtNtCscf8MsWp3cCb_10flyby_core7message7Message8metadata
FN:260,_RNvXs2_CseHB1QHhtQVt_12flyby_memoryNtB5_11StubMessageNtNtCscf8MsWp3cCb_10flyby_core7message7Message9schema_id
FN:264,_RNvXs2_CseHB1QHhtQVt_12flyby_memoryNtB5_11StubMessageNtNtCscf8MsWp3cCb_10flyby_core7message7Message9timestamp
FN:281,_RNvXs3_CseHB1QHhtQVt_12flyby_memoryNtB5_11StubMessageNtNtCscf8MsWp3cCb_10flyby_core7encoder6Encode11encode_into
FN:277,_RNvXs3_CseHB1QHhtQVt_12flyby_memoryNtB5_11StubMessageNtNtCscf8MsWp3cCb_10flyby_core7encoder6Encode11encoded_len
FN:318,_RNCNvNtCs4YFPOoCgYDP_12flyby_memory5testss_19write_pop_roundtrip0B5_
FN:348,_RNCNvNtCs4YFPOoCgYDP_12flyby_memory5testss_32sequence_monotonic_across_writes0B5_
FN:157,_RINvMs_Cs4YFPOoCgYDP_12flyby_memoryINtB5_16SharedMemorySinkNtB5_11StubMessageE3popNCNvNtB5_5testss_19write_pop_roundtrip0EB5_
FN:157,_RINvMs_Cs4YFPOoCgYDP_12flyby_memoryINtB5_16SharedMemorySinkNtB5_11StubMessageE3popNCNvNtB5_5testss_32sequence_monotonic_across_writes0EB5_
FN:162,_RNCNvMs_Cs4YFPOoCgYDP_12flyby_memoryINtB6_16SharedMemorySinkNtB6_11StubMessageE10reset_ring0B6_
FN:193,_RNCNvXs1_Cs4YFPOoCgYDP_12flyby_memoryINtB7_16SharedMemorySinkNtB7_11StubMessageENtNtCscf8MsWp3cCb_10flyby_core4sink4Sink5write0B7_
FN:229,_RNCNvXs1_Cs4YFPOoCgYDP_12flyby_memoryINtB7_16SharedMemorySinkNtB7_11StubMessageENtNtCscf8MsWp3cCb_10flyby_core4sink4Sink5writes0_0B7_
FN:219,_RNCNvXs1_Cs4YFPOoCgYDP_12flyby_memoryINtB7_16SharedMemorySinkNtB7_11StubMessageENtNtCscf8MsWp3cCb_10flyby_core4sink4Sink5writes_0B7_
FN:193,_RNCNvXs1_Cs4YFPOoCgYDP_12flyby_memoryINtB7_16SharedMemorySinkNtNvNtB7_5testss_35failed_encode_does_not_advance_ring6BadMsgENtNtCscf8MsWp3cCb_10flyby_core4sink4Sink5write0B7_
FN:229,_RNCNvXs1_Cs4YFPOoCgYDP_12flyby_memoryINtB7_16SharedMemorySinkNtNvNtB7_5testss_35failed_encode_does_not_advance_ring6BadMsgENtNtCscf8MsWp3cCb_10flyby_core4sink4Sink5writes0_0B7_
FN:219,_RNCNvXs1_Cs4YFPOoCgYDP_12flyby_memoryINtB7_16SharedMemorySinkNtNvNtB7_5testss_35failed_encode_does_not_advance_ring6BadMsgENtNtCscf8MsWp3cCb_10flyby_core4sink4Sink5writes_0B7_
FN:161,_RNvMs_Cs4YFPOoCgYDP_12flyby_memoryINtB4_16SharedMemorySinkNtB4_11StubMessageE10reset_ringB4_
FN:139,_RNvMs_Cs4YFPOoCgYDP_12flyby_memoryINtB4_16SharedMemorySinkNtB4_11StubMessageE3lenB4_
FN:112,_RNvMs_Cs4YFPOoCgYDP_12flyby_memoryINtB4_16SharedMemorySinkNtB4_11StubMessageE3newB4_
FN:134,_RNvMs_Cs4YFPOoCgYDP_12flyby_memoryINtB4_16SharedMemorySinkNtB4_11StubMessageE7writtenB4_
FN:144,_RNvMs_Cs4YFPOoCgYDP_12flyby_memoryINtB4_16SharedMemorySinkNtB4_11StubMessageE8is_emptyB4_
FN:112,_RNvMs_Cs4YFPOoCgYDP_12flyby_memoryINtB4_16SharedMemorySinkNtNvNtB4_5testss_35failed_encode_does_not_advance_ring6BadMsgE3newB4_
FN:144,_RNvMs_Cs4YFPOoCgYDP_12flyby_memoryINtB4_16SharedMemorySinkNtNvNtB4_5testss_35failed_encode_does_not_advance_ring6BadMsgE8is_emptyB4_
FN:168,_RNvXs0_Cs4YFPOoCgYDP_12flyby_memoryINtB5_16SharedMemorySinkNtB5_11StubMessageENtNtCscf8MsWp3cCb_10flyby_core9lifecycle9Lifecycle4initB5_
FN:173,_RNvXs0_Cs4YFPOoCgYDP_12flyby_memoryINtB5_16SharedMemorySinkNtB5_11StubMessageENtNtCscf8MsWp3cCb_10flyby_core9lifecycle9Lifecycle8shutdownB5_
FN:182,_RNvXs1_Cs4YFPOoCgYDP_12flyby_memoryINtB5_16SharedMemorySinkNtB5_11StubMessageENtNtCscf8MsWp3cCb_10flyby_core4sink4Sink5writeB5_
FN:182,_RNvXs1_Cs4YFPOoCgYDP_12flyby_memoryINtB5_16SharedMemorySinkNtNvNtB5_5testss_35failed_encode_does_not_advance_ring6BadMsgENtNtCscf8MsWp3cCb_10flyby_core4sink4Sink5writeB5_
FN:299,_RNvNtCs4YFPOoCgYDP_12flyby_memory5tests3msg
FN:295,_RNvNtCs4YFPOoCgYDP_12flyby_memory5tests9make_sink
FN:304,_RNvNtCs4YFPOoCgYDP_12flyby_memory5testss_15write_and_count
FN:357,_RNvNtCs4YFPOoCgYDP_12flyby_memory5testss_18reinit_clears_ring
FN:313,_RNvNtCs4YFPOoCgYDP_12flyby_memory5testss_19write_pop_roundtrip
FN:326,_RNvNtCs4YFPOoCgYDP_12flyby_memory5testss_31full_ring_returns_back_pressure
FN:336,_RNvNtCs4YFPOoCgYDP_12flyby_memory5testss_31oversized_payload_returns_error
FN:342,_RNvNtCs4YFPOoCgYDP_12flyby_memory5testss_32sequence_monotonic_across_writes
FN:369,_RNvNtCs4YFPOoCgYDP_12flyby_memory5testss_35failed_encode_does_not_advance_ring
FN:379,_RNvXNvNtCs4YFPOoCgYDP_12flyby_memory5testss_35failed_encode_does_not_advance_ringNtB2_6BadMsgNtNtCscf8MsWp3cCb_10flyby_core7message7Message8metadata
FN:373,_RNvXNvNtCs4YFPOoCgYDP_12flyby_memory5testss_35failed_encode_does_not_advance_ringNtB2_6BadMsgNtNtCscf8MsWp3cCb_10flyby_core7message7Message9schema_id
FN:376,_RNvXNvNtCs4YFPOoCgYDP_12flyby_memory5testss_35failed_encode_does_not_advance_ringNtB2_6BadMsgNtNtCscf8MsWp3cCb_10flyby_core7message7Message9timestamp
FN:387,_RNvXs_NvNtCs4YFPOoCgYDP_12flyby_memory5testss_35failed_encode_does_not_advance_ringNtB4_6BadMsgNtNtCscf8MsWp3cCb_10flyby_core7encoder6Encode11encode_into
FN:384,_RNvXs_NvNtCs4YFPOoCgYDP_12flyby_memory5testss_35failed_encode_does_not_advance_ringNtB4_6BadMsgNtNtCscf8MsWp3cCb_10flyby_core7encoder6Encode11encoded_len
FN:128,_RNvMs_Cs4YFPOoCgYDP_12flyby_memoryINtB4_16SharedMemorySinkpE12with_metricsB4_
FN:149,_RNvMs_Cs4YFPOoCgYDP_12flyby_memoryINtB4_16SharedMemorySinkpE7is_fullB4_
FN:68,_RNvXCs4YFPOoCgYDP_12flyby_memoryNtB2_15MemoryMetricKeyNtNtCscf8MsWp3cCb_10flyby_core7metrics9MetricKey4name
FN:268,_RNvXs2_Cs4YFPOoCgYDP_12flyby_memoryNtB5_11StubMessageNtNtCscf8MsWp3cCb_10flyby_core7message7Message8metadata
FN:260,_RNvXs2_Cs4YFPOoCgYDP_12flyby_memoryNtB5_11StubMessageNtNtCscf8MsWp3cCb_10flyby_core7message7Message9schema_id
FN:264,_RNvXs2_Cs4YFPOoCgYDP_12flyby_memoryNtB5_11StubMessageNtNtCscf8MsWp3cCb_10flyby_core7message7Message9timestamp
FN:281,_RNvXs3_Cs4YFPOoCgYDP_12flyby_memoryNtB5_11StubMessageNtNtCscf8MsWp3cCb_10flyby_core7encoder6Encode11encode_into
FN:277,_RNvXs3_Cs4YFPOoCgYDP_12flyby_memoryNtB5_11StubMessageNtNtCscf8MsWp3cCb_10flyby_core7encoder6Encode11encoded_len
FN:157,_RINvMs_CseHB1QHhtQVt_12flyby_memoryINtB5_16SharedMemorySinkNtB5_11StubMessageE3popNCNvCs70JimhUohXZ_13shared_memorys_27write_and_read_back_payload0EB1m_
FN:157,_RINvMs_CseHB1QHhtQVt_12flyby_memoryINtB5_16SharedMemorySinkNtB5_11StubMessageE3popNCNvCs70JimhUohXZ_13shared_memorys_45sequence_numbers_are_monotonically_increasing0EB1m_
FN:162,_RNCNvMs_CseHB1QHhtQVt_12flyby_memoryINtB6_16SharedMemorySinkNtB6_11StubMessageE10reset_ring0Cs70JimhUohXZ_13shared_memory
FN:193,_RNCNvXs1_CseHB1QHhtQVt_12flyby_memoryINtB7_16SharedMemorySinkNtB7_11StubMessageENtNtCscf8MsWp3cCb_10flyby_core4sink4Sink5write0Cs70JimhUohXZ_13shared_memory
FN:229,_RNCNvXs1_CseHB1QHhtQVt_12flyby_memoryINtB7_16SharedMemorySinkNtB7_11StubMessageENtNtCscf8MsWp3cCb_10flyby_core4sink4Sink5writes0_0Cs70JimhUohXZ_13shared_memory
FN:219,_RNCNvXs1_CseHB1QHhtQVt_12flyby_memoryINtB7_16SharedMemorySinkNtB7_11StubMessageENtNtCscf8MsWp3cCb_10flyby_core4sink4Sink5writes_0Cs70JimhUohXZ_13shared_memory
FN:161,_RNvMs_CseHB1QHhtQVt_12flyby_memoryINtB4_16SharedMemorySinkNtB4_11StubMessageE10reset_ringCs70JimhUohXZ_13shared_memory
FN:139,_RNvMs_CseHB1QHhtQVt_12flyby_memoryINtB4_16SharedMemorySinkNtB4_11StubMessageE3lenCs70JimhUohXZ_13shared_memory
FN:112,_RNvMs_CseHB1QHhtQVt_12flyby_memoryINtB4_16SharedMemorySinkNtB4_11StubMessageE3newCs70JimhUohXZ_13shared_memory
FN:134,_RNvMs_CseHB1QHhtQVt_12flyby_memoryINtB4_16SharedMemorySinkNtB4_11StubMessageE7writtenCs70JimhUohXZ_13shared_memory
FN:144,_RNvMs_CseHB1QHhtQVt_12flyby_memoryINtB4_16SharedMemorySinkNtB4_11StubMessageE8is_emptyCs70JimhUohXZ_13shared_memory
FN:168,_RNvXs0_CseHB1QHhtQVt_12flyby_memoryINtB5_16SharedMemorySinkNtB5_11StubMessageENtNtCscf8MsWp3cCb_10flyby_core9lifecycle9Lifecycle4initCs70JimhUohXZ_13shared_memory
FN:173,_RNvXs0_CseHB1QHhtQVt_12flyby_memoryINtB5_16SharedMemorySinkNtB5_11StubMessageENtNtCscf8MsWp3cCb_10flyby_core9lifecycle9Lifecycle8shutdownCs70JimhUohXZ_13shared_memory
FN:182,_RNvXs1_CseHB1QHhtQVt_12flyby_memoryINtB5_16SharedMemorySinkNtB5_11StubMessageENtNtCscf8MsWp3cCb_10flyby_core4sink4Sink5writeCs70JimhUohXZ_13shared_memory
FNDA:0,_RNCNvMs_CseHB1QHhtQVt_12flyby_memoryINtB6_16SharedMemorySinkNtB6_11StubMessageE10reset_ring0CsggT0ekrhFaK_5flyby
FNDA:0,_RNCNvXs1_CseHB1QHhtQVt_12flyby_memoryINtB7_16SharedMemorySinkNtB7_11StubMessageENtNtCscf8MsWp3cCb_10flyby_core4sink4Sink5write0CsggT0ekrhFaK_5flyby
FNDA:0,_RNCNvXs1_CseHB1QHhtQVt_12flyby_memoryINtB7_16SharedMemorySinkNtB7_11StubMessageENtNtCscf8MsWp3cCb_10flyby_core4sink4Sink5writes0_0CsggT0ekrhFaK_5flyby
FNDA:10,_RNCNvXs1_CseHB1QHhtQVt_12flyby_memoryINtB7_16SharedMemorySinkNtB7_11StubMessageENtNtCscf8MsWp3cCb_10flyby_core4sink4Sink5writes_0CsggT0ekrhFaK_5flyby
FNDA:2,_RNvMs_CseHB1QHhtQVt_12flyby_memoryINtB4_16SharedMemorySinkNtB4_11StubMessageE10reset_ringCsggT0ekrhFaK_5flyby
FNDA:2,_RNvMs_CseHB1QHhtQVt_12flyby_memoryINtB4_16SharedMemorySinkNtB4_11StubMessageE3newCsggT0ekrhFaK_5flyby
FNDA:2,_RNvXs0_CseHB1QHhtQVt_12flyby_memoryINtB5_16SharedMemorySinkNtB5_11StubMessageENtNtCscf8MsWp3cCb_10flyby_core9lifecycle9Lifecycle4initCsggT0ekrhFaK_5flyby
FNDA:2,_RNvXs0_CseHB1QHhtQVt_12flyby_memoryINtB5_16SharedMemorySinkNtB5_11StubMessageENtNtCscf8MsWp3cCb_10flyby_core9lifecycle9Lifecycle8shutdownCsggT0ekrhFaK_5flyby
FNDA:10,_RNvXs1_CseHB1QHhtQVt_12flyby_memoryINtB5_16SharedMemorySinkNtB5_11StubMessageENtNtCscf8MsWp3cCb_10flyby_core4sink4Sink5writeCsggT0ekrhFaK_5flyby
FNDA:0,_RNvXCseHB1QHhtQVt_12flyby_memoryNtB2_15MemoryMetricKeyNtNtCscf8MsWp3cCb_10flyby_core7metrics9MetricKey4name
FNDA:23,_RNvXs2_CseHB1QHhtQVt_12flyby_memoryNtB5_11StubMessageNtNtCscf8MsWp3cCb_10flyby_core7message7Message8metadata
FNDA:23,_RNvXs2_CseHB1QHhtQVt_12flyby_memoryNtB5_11StubMessageNtNtCscf8MsWp3cCb_10flyby_core7message7Message9schema_id
FNDA:23,_RNvXs2_CseHB1QHhtQVt_12flyby_memoryNtB5_11StubMessageNtNtCscf8MsWp3cCb_10flyby_core7message7Message9timestamp
FNDA:23,_RNvXs3_CseHB1QHhtQVt_12flyby_memoryNtB5_11StubMessageNtNtCscf8MsWp3cCb_10flyby_core7encoder6Encode11encode_into
FNDA:24,_RNvXs3_CseHB1QHhtQVt_12flyby_memoryNtB5_11StubMessageNtNtCscf8MsWp3cCb_10flyby_core7encoder6Encode11encoded_len
FNDA:1,_RNCNvNtCs4YFPOoCgYDP_12flyby_memory5testss_19write_pop_roundtrip0B5_
FNDA:8,_RNCNvNtCs4YFPOoCgYDP_12flyby_memory5testss_32sequence_monotonic_across_writes0B5_
FNDA:1,_RINvMs_Cs4YFPOoCgYDP_12flyby_memoryINtB5_16SharedMemorySinkNtB5_11StubMessageE3popNCNvNtB5_5testss_19write_pop_roundtrip0EB5_
FNDA:9,_RINvMs_Cs4YFPOoCgYDP_12flyby_memoryINtB5_16SharedMemorySinkNtB5_11StubMessageE3popNCNvNtB5_5testss_32sequence_monotonic_across_writes0EB5_
FNDA:1,_RNCNvMs_Cs4YFPOoCgYDP_12flyby_memoryINtB6_16SharedMemorySinkNtB6_11StubMessageE10reset_ring0B6_
FNDA:0,_RNCNvXs1_Cs4YFPOoCgYDP_12flyby_memoryINtB7_16SharedMemorySinkNtB7_11StubMessageENtNtCscf8MsWp3cCb_10flyby_core4sink4Sink5write0B7_
FNDA:0,_RNCNvXs1_Cs4YFPOoCgYDP_12flyby_memoryINtB7_16SharedMemorySinkNtB7_11StubMessageENtNtCscf8MsWp3cCb_10flyby_core4sink4Sink5writes0_0B7_
FNDA:16,_RNCNvXs1_Cs4YFPOoCgYDP_12flyby_memoryINtB7_16SharedMemorySinkNtB7_11StubMessageENtNtCscf8MsWp3cCb_10flyby_core4sink4Sink5writes_0B7_
FNDA:0,_RNCNvXs1_Cs4YFPOoCgYDP_12flyby_memoryINtB7_16SharedMemorySinkNtNvNtB7_5testss_35failed_encode_does_not_advance_ring6BadMsgENtNtCscf8MsWp3cCb_10flyby_core4sink4Sink5write0B7_
FNDA:0,_RNCNvXs1_Cs4YFPOoCgYDP_12flyby_memoryINtB7_16SharedMemorySinkNtNvNtB7_5testss_35failed_encode_does_not_advance_ring6BadMsgENtNtCscf8MsWp3cCb_10flyby_core4sink4Sink5writes0_0B7_
FNDA:0,_RNCNvXs1_Cs4YFPOoCgYDP_12flyby_memoryINtB7_16SharedMemorySinkNtNvNtB7_5testss_35failed_encode_does_not_advance_ring6BadMsgENtNtCscf8MsWp3cCb_10flyby_core4sink4Sink5writes_0B7_
FNDA:2,_RNvMs_Cs4YFPOoCgYDP_12flyby_memoryINtB4_16SharedMemorySinkNtB4_11StubMessageE10reset_ringB4_
FNDA:2,_RNvMs_Cs4YFPOoCgYDP_12flyby_memoryINtB4_16SharedMemorySinkNtB4_11StubMessageE3lenB4_
FNDA:6,_RNvMs_Cs4YFPOoCgYDP_12flyby_memoryINtB4_16SharedMemorySinkNtB4_11StubMessageE3newB4_
FNDA:2,_RNvMs_Cs4YFPOoCgYDP_12flyby_memoryINtB4_16SharedMemorySinkNtB4_11StubMessageE7writtenB4_
FNDA:1,_RNvMs_Cs4YFPOoCgYDP_12flyby_memoryINtB4_16SharedMemorySinkNtB4_11StubMessageE8is_emptyB4_
FNDA:1,_RNvMs_Cs4YFPOoCgYDP_12flyby_memoryINtB4_16SharedMemorySinkNtNvNtB4_5testss_35failed_encode_does_not_advance_ring6BadMsgE3newB4_
FNDA:1,_RNvMs_Cs4YFPOoCgYDP_12flyby_memoryINtB4_16SharedMemorySinkNtNvNtB4_5testss_35failed_encode_does_not_advance_ring6BadMsgE8is_emptyB4_
FNDA:2,_RNvXs0_Cs4YFPOoCgYDP_12flyby_memoryINtB5_16SharedMemorySinkNtB5_11StubMessageENtNtCscf8MsWp3cCb_10flyby_core9lifecycle9Lifecycle4initB5_
FNDA:1,_RNvXs0_Cs4YFPOoCgYDP_12flyby_memoryINtB5_16SharedMemorySinkNtB5_11StubMessageENtNtCscf8MsWp3cCb_10flyby_core9lifecycle9Lifecycle8shutdownB5_
FNDA:18,_RNvXs1_Cs4YFPOoCgYDP_12flyby_memoryINtB5_16SharedMemorySinkNtB5_11StubMessageENtNtCscf8MsWp3cCb_10flyby_core4sink4Sink5writeB5_
FNDA:1,_RNvXs1_Cs4YFPOoCgYDP_12flyby_memoryINtB5_16SharedMemorySinkNtNvNtB5_5testss_35failed_encode_does_not_advance_ring6BadMsgENtNtCscf8MsWp3cCb_10flyby_core4sink4Sink5writeB5_
FNDA:18,_RNvNtCs4YFPOoCgYDP_12flyby_memory5tests3msg
FNDA:4,_RNvNtCs4YFPOoCgYDP_12flyby_memory5tests9make_sink
FNDA:1,_RNvNtCs4YFPOoCgYDP_12flyby_memory5testss_15write_and_count
FNDA:1,_RNvNtCs4YFPOoCgYDP_12flyby_memory5testss_18reinit_clears_ring
FNDA:1,_RNvNtCs4YFPOoCgYDP_12flyby_memory5testss_19write_pop_roundtrip
FNDA:1,_RNvNtCs4YFPOoCgYDP_12flyby_memory5testss_31full_ring_returns_back_pressure
FNDA:1,_RNvNtCs4YFPOoCgYDP_12flyby_memory5testss_31oversized_payload_returns_error
FNDA:1,_RNvNtCs4YFPOoCgYDP_12flyby_memory5testss_32sequence_monotonic_across_writes
FNDA:1,_RNvNtCs4YFPOoCgYDP_12flyby_memory5testss_35failed_encode_does_not_advance_ring
FNDA:1,_RNvXNvNtCs4YFPOoCgYDP_12flyby_memory5testss_35failed_encode_does_not_advance_ringNtB2_6BadMsgNtNtCscf8MsWp3cCb_10flyby_core7message7Message8metadata
FNDA:1,_RNvXNvNtCs4YFPOoCgYDP_12flyby_memory5testss_35failed_encode_does_not_advance_ringNtB2_6BadMsgNtNtCscf8MsWp3cCb_10flyby_core7message7Message9schema_id
FNDA:1,_RNvXNvNtCs4YFPOoCgYDP_12flyby_memory5testss_35failed_encode_does_not_advance_ringNtB2_6BadMsgNtNtCscf8MsWp3cCb_10flyby_core7message7Message9timestamp
FNDA:1,_RNvXs_NvNtCs4YFPOoCgYDP_12flyby_memory5testss_35failed_encode_does_not_advance_ringNtB4_6BadMsgNtNtCscf8MsWp3cCb_10flyby_core7encoder6Encode11encode_into
FNDA:1,_RNvXs_NvNtCs4YFPOoCgYDP_12flyby_memory5testss_35failed_encode_does_not_advance_ringNtB4_6BadMsgNtNtCscf8MsWp3cCb_10flyby_core7encoder6Encode11encoded_len
FNDA:0,_RNvMs_Cs4YFPOoCgYDP_12flyby_memoryINtB4_16SharedMemorySinkpE12with_metricsB4_
FNDA:0,_RNvMs_Cs4YFPOoCgYDP_12flyby_memoryINtB4_16SharedMemorySinkpE7is_fullB4_
FNDA:0,_RNvXCs4YFPOoCgYDP_12flyby_memoryNtB2_15MemoryMetricKeyNtNtCscf8MsWp3cCb_10flyby_core7metrics9MetricKey4name
FNDA:17,_RNvXs2_Cs4YFPOoCgYDP_12flyby_memoryNtB5_11StubMessageNtNtCscf8MsWp3cCb_10flyby_core7message7Message8metadata
FNDA:17,_RNvXs2_Cs4YFPOoCgYDP_12flyby_memoryNtB5_11StubMessageNtNtCscf8MsWp3cCb_10flyby_core7message7Message9schema_id
FNDA:17,_RNvXs2_Cs4YFPOoCgYDP_12flyby_memoryNtB5_11StubMessageNtNtCscf8MsWp3cCb_10flyby_core7message7Message9timestamp
FNDA:17,_RNvXs3_Cs4YFPOoCgYDP_12flyby_memoryNtB5_11StubMessageNtNtCscf8MsWp3cCb_10flyby_core7encoder6Encode11encode_into
FNDA:18,_RNvXs3_Cs4YFPOoCgYDP_12flyby_memoryNtB5_11StubMessageNtNtCscf8MsWp3cCb_10flyby_core7encoder6Encode11encoded_len
FNDA:1,_RINvMs_CseHB1QHhtQVt_12flyby_memoryINtB5_16SharedMemorySinkNtB5_11StubMessageE3popNCNvCs70JimhUohXZ_13shared_memorys_27write_and_read_back_payload0EB1m_
FNDA:6,_RINvMs_CseHB1QHhtQVt_12flyby_memoryINtB5_16SharedMemorySinkNtB5_11StubMessageE3popNCNvCs70JimhUohXZ_13shared_memorys_45sequence_numbers_are_monotonically_increasing0EB1m_
FNDA:1,_RNCNvMs_CseHB1QHhtQVt_12flyby_memoryINtB6_16SharedMemorySinkNtB6_11StubMessageE10reset_ring0Cs70JimhUohXZ_13shared_memory
FNDA:0,_RNCNvXs1_CseHB1QHhtQVt_12flyby_memoryINtB7_16SharedMemorySinkNtB7_11StubMessageENtNtCscf8MsWp3cCb_10flyby_core4sink4Sink5write0Cs70JimhUohXZ_13shared_memory
FNDA:0,_RNCNvXs1_CseHB1QHhtQVt_12flyby_memoryINtB7_16SharedMemorySinkNtB7_11StubMessageENtNtCscf8MsWp3cCb_10flyby_core4sink4Sink5writes0_0Cs70JimhUohXZ_13shared_memory
FNDA:12,_RNCNvXs1_CseHB1QHhtQVt_12flyby_memoryINtB7_16SharedMemorySinkNtB7_11StubMessageENtNtCscf8MsWp3cCb_10flyby_core4sink4Sink5writes_0Cs70JimhUohXZ_13shared_memory
FNDA:7,_RNvMs_CseHB1QHhtQVt_12flyby_memoryINtB4_16SharedMemorySinkNtB4_11StubMessageE10reset_ringCs70JimhUohXZ_13shared_memory
FNDA:1,_RNvMs_CseHB1QHhtQVt_12flyby_memoryINtB4_16SharedMemorySinkNtB4_11StubMessageE3lenCs70JimhUohXZ_13shared_memory
FNDA:6,_RNvMs_CseHB1QHhtQVt_12flyby_memoryINtB4_16SharedMemorySinkNtB4_11StubMessageE3newCs70JimhUohXZ_13shared_memory
FNDA:3,_RNvMs_CseHB1QHhtQVt_12flyby_memoryINtB4_16SharedMemorySinkNtB4_11StubMessageE7writtenCs70JimhUohXZ_13shared_memory
FNDA:1,_RNvMs_CseHB1QHhtQVt_12flyby_memoryINtB4_16SharedMemorySinkNtB4_11StubMessageE8is_emptyCs70JimhUohXZ_13shared_memory
FNDA:7,_RNvXs0_CseHB1QHhtQVt_12flyby_memoryINtB5_16SharedMemorySinkNtB5_11StubMessageENtNtCscf8MsWp3cCb_10flyby_core9lifecycle9Lifecycle4initCs70JimhUohXZ_13shared_memory
FNDA:1,_RNvXs0_CseHB1QHhtQVt_12flyby_memoryINtB5_16SharedMemorySinkNtB5_11StubMessageENtNtCscf8MsWp3cCb_10flyby_core9lifecycle9Lifecycle8shutdownCs70JimhUohXZ_13shared_memory
FNDA:14,_RNvXs1_CseHB1QHhtQVt_12flyby_memoryINtB5_16SharedMemorySinkNtB5_11StubMessageENtNtCscf8MsWp3cCb_10flyby_core4sink4Sink5writeCs70JimhUohXZ_13shared_memory
FNF:37
FNH:32
DA:68,0
DA:69,0
DA:70,0
DA:71,0
DA:72,0
DA:74,0
DA:112,15
DA:113,15
DA:114,0
DA:115,15
DA:116,15
DA:117,15
DA:118,15
DA:119,15
DA:120,15
DA:121,15
DA:122,15
DA:123,15
DA:124,15
DA:125,15
DA:128,0
DA:129,0
DA:130,0
DA:131,0
DA:134,5
DA:135,5
DA:136,5
DA:139,3
DA:140,3
DA:141,3
DA:144,3
DA:145,3
DA:146,3
DA:149,0
DA:150,0
DA:151,0
DA:157,17
DA:158,17
DA:159,17
DA:161,11
DA:162,13
DA:163,11
DA:164,11
DA:168,11
DA:169,11
DA:170,11
DA:171,11
DA:173,4
DA:175,4
DA:176,4
DA:182,43
DA:183,43
DA:184,43
DA:185,2
DA:186,2
DA:187,2
DA:188,2
DA:189,2
DA:190,2
DA:191,41
DA:192,41
DA:193,41
DA:195,41
DA:196,41
DA:197,41
DA:198,41
DA:200,41
DA:201,41
DA:202,41
DA:203,41
DA:204,41
DA:205,41
DA:210,41
DA:211,41
DA:212,41
DA:213,40
DA:214,0
DA:215,0
DA:216,0
DA:217,40
DA:218,40
DA:219,40
DA:221,0
DA:222,0
DA:223,0
DA:224,0
DA:225,0
DA:226,0
DA:227,0
DA:228,0
DA:229,0
DA:232,40
DA:233,38
DA:234,38
DA:235,38
DA:236,38
DA:238,2
DA:239,2
DA:241,43
DA:260,40
DA:261,40
DA:262,40
DA:264,40
DA:265,40
DA:266,40
DA:268,40
DA:269,40
DA:270,40
DA:271,40
DA:272,40
DA:273,40
DA:277,42
DA:278,42
DA:279,42
DA:281,40
DA:282,40
DA:283,0
DA:284,40
DA:285,40
DA:286,40
DA:287,40
DA:295,4
DA:296,4
DA:297,4
DA:299,18
DA:300,18
DA:301,18
DA:304,1
DA:305,1
DA:306,1
DA:307,1
DA:308,1
DA:309,1
DA:310,1
DA:313,1
DA:314,1
DA:315,1
DA:317,1
DA:318,1
DA:319,1
DA:320,1
DA:321,1
DA:322,1
DA:323,1
DA:326,1
DA:327,1
DA:328,4
DA:329,4
DA:330,4
DA:331,1
DA:332,1
DA:333,1
DA:336,1
DA:337,1
DA:338,1
DA:339,1
DA:342,1
DA:343,1
DA:344,8
DA:345,8
DA:346,8
DA:347,1
DA:348,9
DA:349,8
DA:350,8
DA:351,8
DA:352,1
DA:353,1
DA:354,1
DA:357,1
DA:358,1
DA:359,1
DA:360,1
DA:361,1
DA:362,1
DA:363,1
DA:364,1
DA:365,1
DA:366,1
DA:369,1
DA:373,1
DA:374,1
DA:375,1
DA:376,1
DA:377,1
DA:378,1
DA:379,1
DA:380,1
DA:381,1
DA:384,1
DA:385,1
DA:386,1
DA:387,1
DA:388,1
DA:389,1
DA:391,1
DA:392,1
DA:393,1
DA:394,1
BRF:0
BRH:0
LF:206
LH:177
end_of_record
SF:/Users/thanos/work/flyby/crates/flyby-memory/src/region.rs
FN:259,_RINvMs0_NtCseHB1QHhtQVt_12flyby_memory6regionNtB6_6Region3popNCNvMs_B8_INtB8_16SharedMemorySinkNtB8_11StubMessageE10reset_ring0ECsggT0ekrhFaK_5flyby
FN:240,_RINvMs0_NtCseHB1QHhtQVt_12flyby_memory6regionNtB6_6Region4pushNCNvXs1_B8_INtB8_16SharedMemorySinkNtB8_11StubMessageENtNtCscf8MsWp3cCb_10flyby_core4sink4Sink5writes0_0ECsggT0ekrhFaK_5flyby
FN:240,_RINvMs0_NtCseHB1QHhtQVt_12flyby_memory6regionNtB6_6Region4pushNCNvXs1_B8_INtB8_16SharedMemorySinkNtB8_11StubMessageENtNtCscf8MsWp3cCb_10flyby_core4sink4Sink5writes_0ECsggT0ekrhFaK_5flyby
FN:298,_RNvXs1_NtCseHB1QHhtQVt_12flyby_memory6regionNtB5_6RegionNtNtNtCsl8K0bEFm1U0_4core3ops4drop4Drop4drop
FN:272,_RNvMs0_NtCseHB1QHhtQVt_12flyby_memory6regionNtB5_6Region10slot_count
FN:184,_RNvMs0_NtCseHB1QHhtQVt_12flyby_memory6regionNtB5_6Region15validate_params
FN:282,_RNvMs0_NtCseHB1QHhtQVt_12flyby_memory6regionNtB5_6Region3len
FN:292,_RNvMs0_NtCseHB1QHhtQVt_12flyby_memory6regionNtB5_6Region7is_full
FN:287,_RNvMs0_NtCseHB1QHhtQVt_12flyby_memory6regionNtB5_6Region8is_empty
FN:216,_RNvMs0_NtCseHB1QHhtQVt_12flyby_memory6regionNtB5_6Region8slot_mut
FN:225,_RNvMs0_NtCseHB1QHhtQVt_12flyby_memory6regionNtB5_6Region8slot_ref
FN:116,_RNvMs0_NtCseHB1QHhtQVt_12flyby_memory6regionNtB5_6Region9anonymous
FN:277,_RNvMs0_NtCseHB1QHhtQVt_12flyby_memory6regionNtB5_6Region9slot_size
FN:205,_RNCNvMs0_NtCseHB1QHhtQVt_12flyby_memory6regionNtB7_6Region15validate_params0B9_
FN:206,_RNCNvMs0_NtCseHB1QHhtQVt_12flyby_memory6regionNtB7_6Region15validate_paramss_0B9_
FN:319,_RNCNvNtNtCs4YFPOoCgYDP_12flyby_memory6region5tests9fill_slot0B7_
FN:352,_RNCNvNtNtCs4YFPOoCgYDP_12flyby_memory6region5testss_18push_pop_roundtrip0B7_
FN:389,_RNCNvNtNtCs4YFPOoCgYDP_12flyby_memory6region5testss_27wrap_around_preserves_order0B7_
FN:374,_RNCNvNtNtCs4YFPOoCgYDP_12flyby_memory6region5testss_28empty_ring_pop_returns_false0B7_
FN:277,_RNvMs0_NtCs4YFPOoCgYDP_12flyby_memory6regionNtB5_6Region9slot_size
FN:314,_RNvNtNtCs4YFPOoCgYDP_12flyby_memory6region5tests14default_region
FN:318,_RNvNtNtCs4YFPOoCgYDP_12flyby_memory6region5tests9fill_slot
FN:401,_RNvNtNtCs4YFPOoCgYDP_12flyby_memory6region5testss_14mmap_lifecycle
FN:326,_RNvNtNtCs4YFPOoCgYDP_12flyby_memory6region5testss_15create_and_drop
FN:345,_RNvNtNtCs4YFPOoCgYDP_12flyby_memory6region5testss_18push_pop_roundtrip
FN:339,_RNvNtNtCs4YFPOoCgYDP_12flyby_memory6region5testss_26invalid_slot_size_rejected
FN:333,_RNvNtNtCs4YFPOoCgYDP_12flyby_memory6region5testss_27invalid_slot_count_rejected
FN:378,_RNvNtNtCs4YFPOoCgYDP_12flyby_memory6region5testss_27wrap_around_preserves_order
FN:372,_RNvNtNtCs4YFPOoCgYDP_12flyby_memory6region5testss_28empty_ring_pop_returns_false
FN:362,_RNvNtNtCs4YFPOoCgYDP_12flyby_memory6region5testss_28full_ring_push_returns_false
FN:298,_RNvXs1_NtCs4YFPOoCgYDP_12flyby_memory6regionNtB5_6RegionNtNtNtCsl8K0bEFm1U0_4core3ops4drop4Drop4drop
FN:259,_RINvMs0_NtCs4YFPOoCgYDP_12flyby_memory6regionNtB6_6Region3popNCNvMs_B8_INtB8_16SharedMemorySinkNtB8_11StubMessageE10reset_ring0EB8_
FN:259,_RINvMs0_NtCs4YFPOoCgYDP_12flyby_memory6regionNtB6_6Region3popNCNvNtB6_5testss_18push_pop_roundtrip0EB8_
FN:259,_RINvMs0_NtCs4YFPOoCgYDP_12flyby_memory6regionNtB6_6Region3popNCNvNtB6_5testss_27wrap_around_preserves_order0EB8_
FN:259,_RINvMs0_NtCs4YFPOoCgYDP_12flyby_memory6regionNtB6_6Region3popNCNvNtB6_5testss_28empty_ring_pop_returns_false0EB8_
FN:259,_RINvMs0_NtCs4YFPOoCgYDP_12flyby_memory6regionNtB6_6Region3popNCNvNtB8_5testss_19write_pop_roundtrip0EB8_
FN:259,_RINvMs0_NtCs4YFPOoCgYDP_12flyby_memory6regionNtB6_6Region3popNCNvNtB8_5testss_32sequence_monotonic_across_writes0EB8_
FN:240,_RINvMs0_NtCs4YFPOoCgYDP_12flyby_memory6regionNtB6_6Region4pushNCNvNtB6_5tests9fill_slot0EB8_
FN:240,_RINvMs0_NtCs4YFPOoCgYDP_12flyby_memory6regionNtB6_6Region4pushNCNvXs1_B8_INtB8_16SharedMemorySinkNtB8_11StubMessageENtNtCscf8MsWp3cCb_10flyby_core4sink4Sink5writes0_0EB8_
FN:240,_RINvMs0_NtCs4YFPOoCgYDP_12flyby_memory6regionNtB6_6Region4pushNCNvXs1_B8_INtB8_16SharedMemorySinkNtB8_11StubMessageENtNtCscf8MsWp3cCb_10flyby_core4sink4Sink5writes_0EB8_
FN:240,_RINvMs0_NtCs4YFPOoCgYDP_12flyby_memory6regionNtB6_6Region4pushNCNvXs1_B8_INtB8_16SharedMemorySinkNtNvNtB8_5testss_35failed_encode_does_not_advance_ring6BadMsgENtNtCscf8MsWp3cCb_10flyby_core4sink4Sink5writes0_0EB8_
FN:240,_RINvMs0_NtCs4YFPOoCgYDP_12flyby_memory6regionNtB6_6Region4pushNCNvXs1_B8_INtB8_16SharedMemorySinkNtNvNtB8_5testss_35failed_encode_does_not_advance_ring6BadMsgENtNtCscf8MsWp3cCb_10flyby_core4sink4Sink5writes_0EB8_
FN:205,_RNCNvMs0_NtCs4YFPOoCgYDP_12flyby_memory6regionNtB7_6Region15validate_params0B9_
FN:206,_RNCNvMs0_NtCs4YFPOoCgYDP_12flyby_memory6regionNtB7_6Region15validate_paramss_0B9_
FN:272,_RNvMs0_NtCs4YFPOoCgYDP_12flyby_memory6regionNtB5_6Region10slot_count
FN:184,_RNvMs0_NtCs4YFPOoCgYDP_12flyby_memory6regionNtB5_6Region15validate_params
FN:282,_RNvMs0_NtCs4YFPOoCgYDP_12flyby_memory6regionNtB5_6Region3len
FN:292,_RNvMs0_NtCs4YFPOoCgYDP_12flyby_memory6regionNtB5_6Region7is_full
FN:287,_RNvMs0_NtCs4YFPOoCgYDP_12flyby_memory6regionNtB5_6Region8is_empty
FN:216,_RNvMs0_NtCs4YFPOoCgYDP_12flyby_memory6regionNtB5_6Region8slot_mut
FN:225,_RNvMs0_NtCs4YFPOoCgYDP_12flyby_memory6regionNtB5_6Region8slot_ref
FN:116,_RNvMs0_NtCs4YFPOoCgYDP_12flyby_memory6regionNtB5_6Region9anonymous
FN:259,_RINvMs0_NtCseHB1QHhtQVt_12flyby_memory6regionNtB6_6Region3popNCNvCs70JimhUohXZ_13shared_memorys_27write_and_read_back_payload0EB11_
FN:259,_RINvMs0_NtCseHB1QHhtQVt_12flyby_memory6regionNtB6_6Region3popNCNvCs70JimhUohXZ_13shared_memorys_45sequence_numbers_are_monotonically_increasing0EB11_
FN:259,_RINvMs0_NtCseHB1QHhtQVt_12flyby_memory6regionNtB6_6Region3popNCNvMs_B8_INtB8_16SharedMemorySinkNtB8_11StubMessageE10reset_ring0ECs70JimhUohXZ_13shared_memory
FN:240,_RINvMs0_NtCseHB1QHhtQVt_12flyby_memory6regionNtB6_6Region4pushNCNvXs1_B8_INtB8_16SharedMemorySinkNtB8_11StubMessageENtNtCscf8MsWp3cCb_10flyby_core4sink4Sink5writes0_0ECs70JimhUohXZ_13shared_memory
FN:240,_RINvMs0_NtCseHB1QHhtQVt_12flyby_memory6regionNtB6_6Region4pushNCNvXs1_B8_INtB8_16SharedMemorySinkNtB8_11StubMessageENtNtCscf8MsWp3cCb_10flyby_core4sink4Sink5writes_0ECs70JimhUohXZ_13shared_memory
FNDA:2,_RINvMs0_NtCseHB1QHhtQVt_12flyby_memory6regionNtB6_6Region3popNCNvMs_B8_INtB8_16SharedMemorySinkNtB8_11StubMessageE10reset_ring0ECsggT0ekrhFaK_5flyby
FNDA:0,_RINvMs0_NtCseHB1QHhtQVt_12flyby_memory6regionNtB6_6Region4pushNCNvXs1_B8_INtB8_16SharedMemorySinkNtB8_11StubMessageENtNtCscf8MsWp3cCb_10flyby_core4sink4Sink5writes0_0ECsggT0ekrhFaK_5flyby
FNDA:10,_RINvMs0_NtCseHB1QHhtQVt_12flyby_memory6regionNtB6_6Region4pushNCNvXs1_B8_INtB8_16SharedMemorySinkNtB8_11StubMessageENtNtCscf8MsWp3cCb_10flyby_core4sink4Sink5writes_0ECsggT0ekrhFaK_5flyby
FNDA:8,_RNvXs1_NtCseHB1QHhtQVt_12flyby_memory6regionNtB5_6RegionNtNtNtCsl8K0bEFm1U0_4core3ops4drop4Drop4drop
FNDA:0,_RNvMs0_NtCseHB1QHhtQVt_12flyby_memory6regionNtB5_6Region10slot_count
FNDA:8,_RNvMs0_NtCseHB1QHhtQVt_12flyby_memory6regionNtB5_6Region15validate_params
FNDA:1,_RNvMs0_NtCseHB1QHhtQVt_12flyby_memory6regionNtB5_6Region3len
FNDA:0,_RNvMs0_NtCseHB1QHhtQVt_12flyby_memory6regionNtB5_6Region7is_full
FNDA:1,_RNvMs0_NtCseHB1QHhtQVt_12flyby_memory6regionNtB5_6Region8is_empty
FNDA:22,_RNvMs0_NtCseHB1QHhtQVt_12flyby_memory6regionNtB5_6Region8slot_mut
FNDA:7,_RNvMs0_NtCseHB1QHhtQVt_12flyby_memory6regionNtB5_6Region8slot_ref
FNDA:8,_RNvMs0_NtCseHB1QHhtQVt_12flyby_memory6regionNtB5_6Region9anonymous
FNDA:0,_RNvMs0_NtCseHB1QHhtQVt_12flyby_memory6regionNtB5_6Region9slot_size
FNDA:8,_RNCNvMs0_NtCseHB1QHhtQVt_12flyby_memory6regionNtB7_6Region15validate_params0B9_
FNDA:0,_RNCNvMs0_NtCseHB1QHhtQVt_12flyby_memory6regionNtB7_6Region15validate_paramss_0B9_
FNDA:22,_RNCNvNtNtCs4YFPOoCgYDP_12flyby_memory6region5tests9fill_slot0B7_
FNDA:1,_RNCNvNtNtCs4YFPOoCgYDP_12flyby_memory6region5testss_18push_pop_roundtrip0B7_
FNDA:12,_RNCNvNtNtCs4YFPOoCgYDP_12flyby_memory6region5testss_27wrap_around_preserves_order0B7_
FNDA:0,_RNCNvNtNtCs4YFPOoCgYDP_12flyby_memory6region5testss_28empty_ring_pop_returns_false0B7_
FNDA:0,_RNvMs0_NtCs4YFPOoCgYDP_12flyby_memory6regionNtB5_6Region9slot_size
FNDA:4,_RNvNtNtCs4YFPOoCgYDP_12flyby_memory6region5tests14default_region
FNDA:23,_RNvNtNtCs4YFPOoCgYDP_12flyby_memory6region5tests9fill_slot
FNDA:1,_RNvNtNtCs4YFPOoCgYDP_12flyby_memory6region5testss_14mmap_lifecycle
FNDA:1,_RNvNtNtCs4YFPOoCgYDP_12flyby_memory6region5testss_15create_and_drop
FNDA:1,_RNvNtNtCs4YFPOoCgYDP_12flyby_memory6region5testss_18push_pop_roundtrip
FNDA:1,_RNvNtNtCs4YFPOoCgYDP_12flyby_memory6region5testss_26invalid_slot_size_rejected
FNDA:1,_RNvNtNtCs4YFPOoCgYDP_12flyby_memory6region5testss_27invalid_slot_count_rejected
FNDA:1,_RNvNtNtCs4YFPOoCgYDP_12flyby_memory6region5testss_27wrap_around_preserves_order
FNDA:1,_RNvNtNtCs4YFPOoCgYDP_12flyby_memory6region5testss_28empty_ring_pop_returns_false
FNDA:1,_RNvNtNtCs4YFPOoCgYDP_12flyby_memory6region5testss_28full_ring_push_returns_false
FNDA:13,_RNvXs1_NtCs4YFPOoCgYDP_12flyby_memory6regionNtB5_6RegionNtNtNtCsl8K0bEFm1U0_4core3ops4drop4Drop4drop
FNDA:3,_RINvMs0_NtCs4YFPOoCgYDP_12flyby_memory6regionNtB6_6Region3popNCNvMs_B8_INtB8_16SharedMemorySinkNtB8_11StubMessageE10reset_ring0EB8_
FNDA:1,_RINvMs0_NtCs4YFPOoCgYDP_12flyby_memory6regionNtB6_6Region3popNCNvNtB6_5testss_18push_pop_roundtrip0EB8_
FNDA:12,_RINvMs0_NtCs4YFPOoCgYDP_12flyby_memory6regionNtB6_6Region3popNCNvNtB6_5testss_27wrap_around_preserves_order0EB8_
FNDA:1,_RINvMs0_NtCs4YFPOoCgYDP_12flyby_memory6regionNtB6_6Region3popNCNvNtB6_5testss_28empty_ring_pop_returns_false0EB8_
FNDA:1,_RINvMs0_NtCs4YFPOoCgYDP_12flyby_memory6regionNtB6_6Region3popNCNvNtB8_5testss_19write_pop_roundtrip0EB8_
FNDA:9,_RINvMs0_NtCs4YFPOoCgYDP_12flyby_memory6regionNtB6_6Region3popNCNvNtB8_5testss_32sequence_monotonic_across_writes0EB8_
FNDA:23,_RINvMs0_NtCs4YFPOoCgYDP_12flyby_memory6regionNtB6_6Region4pushNCNvNtB6_5tests9fill_slot0EB8_
FNDA:0,_RINvMs0_NtCs4YFPOoCgYDP_12flyby_memory6regionNtB6_6Region4pushNCNvXs1_B8_INtB8_16SharedMemorySinkNtB8_11StubMessageENtNtCscf8MsWp3cCb_10flyby_core4sink4Sink5writes0_0EB8_
FNDA:17,_RINvMs0_NtCs4YFPOoCgYDP_12flyby_memory6regionNtB6_6Region4pushNCNvXs1_B8_INtB8_16SharedMemorySinkNtB8_11StubMessageENtNtCscf8MsWp3cCb_10flyby_core4sink4Sink5writes_0EB8_
FNDA:0,_RINvMs0_NtCs4YFPOoCgYDP_12flyby_memory6regionNtB6_6Region4pushNCNvXs1_B8_INtB8_16SharedMemorySinkNtNvNtB8_5testss_35failed_encode_does_not_advance_ring6BadMsgENtNtCscf8MsWp3cCb_10flyby_core4sink4Sink5writes0_0EB8_
FNDA:0,_RINvMs0_NtCs4YFPOoCgYDP_12flyby_memory6regionNtB6_6Region4pushNCNvXs1_B8_INtB8_16SharedMemorySinkNtNvNtB8_5testss_35failed_encode_does_not_advance_ring6BadMsgENtNtCscf8MsWp3cCb_10flyby_core4sink4Sink5writes_0EB8_
FNDA:13,_RNCNvMs0_NtCs4YFPOoCgYDP_12flyby_memory6regionNtB7_6Region15validate_params0B9_
FNDA:0,_RNCNvMs0_NtCs4YFPOoCgYDP_12flyby_memory6regionNtB7_6Region15validate_paramss_0B9_
FNDA:1,_RNvMs0_NtCs4YFPOoCgYDP_12flyby_memory6regionNtB5_6Region10slot_count
FNDA:17,_RNvMs0_NtCs4YFPOoCgYDP_12flyby_memory6regionNtB5_6Region15validate_params
FNDA:3,_RNvMs0_NtCs4YFPOoCgYDP_12flyby_memory6regionNtB5_6Region3len
FNDA:1,_RNvMs0_NtCs4YFPOoCgYDP_12flyby_memory6regionNtB5_6Region7is_full
FNDA:4,_RNvMs0_NtCs4YFPOoCgYDP_12flyby_memory6regionNtB5_6Region8is_empty
FNDA:38,_RNvMs0_NtCs4YFPOoCgYDP_12flyby_memory6regionNtB5_6Region8slot_mut
FNDA:23,_RNvMs0_NtCs4YFPOoCgYDP_12flyby_memory6regionNtB5_6Region8slot_ref
FNDA:17,_RNvMs0_NtCs4YFPOoCgYDP_12flyby_memory6regionNtB5_6Region9anonymous
FNDA:1,_RINvMs0_NtCseHB1QHhtQVt_12flyby_memory6regionNtB6_6Region3popNCNvCs70JimhUohXZ_13shared_memorys_27write_and_read_back_payload0EB11_
FNDA:6,_RINvMs0_NtCseHB1QHhtQVt_12flyby_memory6regionNtB6_6Region3popNCNvCs70JimhUohXZ_13shared_memorys_45sequence_numbers_are_monotonically_increasing0EB11_
FNDA:8,_RINvMs0_NtCseHB1QHhtQVt_12flyby_memory6regionNtB6_6Region3popNCNvMs_B8_INtB8_16SharedMemorySinkNtB8_11StubMessageE10reset_ring0ECs70JimhUohXZ_13shared_memory
FNDA:0,_RINvMs0_NtCseHB1QHhtQVt_12flyby_memory6regionNtB6_6Region4pushNCNvXs1_B8_INtB8_16SharedMemorySinkNtB8_11StubMessageENtNtCscf8MsWp3cCb_10flyby_core4sink4Sink5writes0_0ECs70JimhUohXZ_13shared_memory
FNDA:13,_RINvMs0_NtCseHB1QHhtQVt_12flyby_memory6regionNtB6_6Region4pushNCNvXs1_B8_INtB8_16SharedMemorySinkNtB8_11StubMessageENtNtCscf8MsWp3cCb_10flyby_core4sink4Sink5writes_0ECs70JimhUohXZ_13shared_memory
FNF:28
FNH:25
DA:116,25
DA:117,25
DA:118,21
DA:129,21
DA:130,21
DA:131,21
DA:132,21
DA:133,21
DA:134,21
DA:139,21
DA:140,0
DA:141,21
DA:144,21
DA:148,21
DA:149,21
DA:150,21
DA:151,21
DA:152,21
DA:153,21
DA:154,21
DA:155,21
DA:156,21
DA:157,21
DA:158,21
DA:159,21
DA:160,21
DA:161,21
DA:169,21
DA:170,21
DA:171,21
DA:172,21
DA:175,21
DA:176,21
DA:177,21
DA:178,21
DA:179,21
DA:180,21
DA:181,21
DA:182,25
DA:184,25
DA:185,25
DA:186,2
DA:187,23
DA:188,23
DA:189,0
DA:190,23
DA:191,23
DA:192,1
DA:193,22
DA:194,22
DA:195,0
DA:196,22
DA:197,22
DA:198,1
DA:199,1
DA:200,1
DA:201,21
DA:203,21
DA:204,21
DA:205,21
DA:206,21
DA:207,21
DA:208,25
DA:216,60
DA:217,60
DA:221,60
DA:222,60
DA:225,30
DA:226,30
DA:229,30
DA:230,30
DA:240,63
DA:241,63
DA:242,3
DA:243,60
DA:244,60
DA:245,60
DA:246,60
DA:247,60
DA:250,63
DA:259,44
DA:260,44
DA:261,14
DA:262,30
DA:263,30
DA:264,30
DA:265,30
DA:266,30
DA:269,44
DA:272,1
DA:273,1
DA:274,1
DA:277,0
DA:278,0
DA:279,0
DA:282,4
DA:283,4
DA:284,4
DA:287,5
DA:288,5
DA:289,5
DA:292,1
DA:293,1
DA:294,1
DA:298,21
DA:303,21
DA:304,21
DA:305,21
DA:306,21
DA:314,4
DA:315,4
DA:316,4
DA:318,23
DA:319,22
DA:320,22
DA:321,22
DA:322,22
DA:323,23
DA:326,1
DA:327,1
DA:328,1
DA:329,1
DA:330,1
DA:333,1
DA:334,1
DA:335,1
DA:336,1
DA:339,1
DA:340,1
DA:341,1
DA:342,1
DA:345,1
DA:346,1
DA:347,1
DA:348,1
DA:349,1
DA:351,1
DA:352,1
DA:353,1
DA:354,1
DA:355,1
DA:356,1
DA:357,1
DA:358,1
DA:359,1
DA:362,1
DA:363,1
DA:364,8
DA:365,8
DA:367,1
DA:368,1
DA:369,1
DA:372,1
DA:373,1
DA:374,1
DA:375,1
DA:378,1
DA:379,1
DA:380,1
DA:382,3
DA:384,12
DA:385,12
DA:386,12
DA:388,3
DA:389,12
DA:390,12
DA:391,12
DA:392,12
DA:396,1
DA:397,1
DA:398,1
DA:401,1
DA:403,1
DA:404,1
DA:405,1
DA:406,1
DA:407,1
BRF:0
BRH:0
LF:182
LH:174
end_of_record
SF:/Users/thanos/work/flyby/crates/flyby-memory/src/ring.rs
FN:145,_RNvMs0_NtCseHB1QHhtQVt_12flyby_memory4ringNtB5_8SpscRing10commit_pop
FN:121,_RNvMs0_NtCseHB1QHhtQVt_12flyby_memory4ringNtB5_8SpscRing11commit_push
FN:161,_RNvMs0_NtCseHB1QHhtQVt_12flyby_memory4ringNtB5_8SpscRing3len
FN:74,_RNvMs0_NtCseHB1QHhtQVt_12flyby_memory4ringNtB5_8SpscRing3new
FN:92,_RNvMs0_NtCseHB1QHhtQVt_12flyby_memory4ringNtB5_8SpscRing4head
FN:97,_RNvMs0_NtCseHB1QHhtQVt_12flyby_memory4ringNtB5_8SpscRing4tail
FN:171,_RNvMs0_NtCseHB1QHhtQVt_12flyby_memory4ringNtB5_8SpscRing7is_full
FN:131,_RNvMs0_NtCseHB1QHhtQVt_12flyby_memory4ringNtB5_8SpscRing7try_pop
FN:167,_RNvMs0_NtCseHB1QHhtQVt_12flyby_memory4ringNtB5_8SpscRing8is_empty
FN:107,_RNvMs0_NtCseHB1QHhtQVt_12flyby_memory4ringNtB5_8SpscRing8try_push
FN:145,_RNvMs0_NtCs4YFPOoCgYDP_12flyby_memory4ringNtB5_8SpscRing10commit_pop
FN:121,_RNvMs0_NtCs4YFPOoCgYDP_12flyby_memory4ringNtB5_8SpscRing11commit_push
FN:161,_RNvMs0_NtCs4YFPOoCgYDP_12flyby_memory4ringNtB5_8SpscRing3len
FN:74,_RNvMs0_NtCs4YFPOoCgYDP_12flyby_memory4ringNtB5_8SpscRing3new
FN:92,_RNvMs0_NtCs4YFPOoCgYDP_12flyby_memory4ringNtB5_8SpscRing4head
FN:97,_RNvMs0_NtCs4YFPOoCgYDP_12flyby_memory4ringNtB5_8SpscRing4tail
FN:171,_RNvMs0_NtCs4YFPOoCgYDP_12flyby_memory4ringNtB5_8SpscRing7is_full
FN:131,_RNvMs0_NtCs4YFPOoCgYDP_12flyby_memory4ringNtB5_8SpscRing7try_pop
FN:152,_RNvMs0_NtCs4YFPOoCgYDP_12flyby_memory4ringNtB5_8SpscRing8capacity
FN:167,_RNvMs0_NtCs4YFPOoCgYDP_12flyby_memory4ringNtB5_8SpscRing8is_empty
FN:107,_RNvMs0_NtCs4YFPOoCgYDP_12flyby_memory4ringNtB5_8SpscRing8try_push
FN:266,_RNCNvNtNtCs4YFPOoCgYDP_12flyby_memory4ring5testss_30concurrent_spsc_no_loss_or_dup0B7_
FN:284,_RNCNvNtNtCs4YFPOoCgYDP_12flyby_memory4ring5testss_30concurrent_spsc_no_loss_or_dups0_0B7_
FN:269,_RNCNvNtNtCs4YFPOoCgYDP_12flyby_memory4ring5testss_30concurrent_spsc_no_loss_or_dups_0B7_
FN:181,_RNvNtNtCs4YFPOoCgYDP_12flyby_memory4ring5tests9make_ring
FN:237,_RNvNtNtCs4YFPOoCgYDP_12flyby_memory4ring5testss_11wrap_around
FN:250,_RNvNtNtCs4YFPOoCgYDP_12flyby_memory4ring5testss_21capacity_is_preserved
FN:214,_RNvNtNtCs4YFPOoCgYDP_12flyby_memory4ring5testss_27push_pop_sequence_monotonic
FN:256,_RNvNtNtCs4YFPOoCgYDP_12flyby_memory4ring5testss_30concurrent_spsc_no_loss_or_dup
FN:195,_RNvNtNtCs4YFPOoCgYDP_12flyby_memory4ring5testss_30empty_ring_returns_none_on_pop
FN:202,_RNvNtNtCs4YFPOoCgYDP_12flyby_memory4ring5testss_30full_ring_returns_none_on_push
FNDA:7,_RNvMs0_NtCseHB1QHhtQVt_12flyby_memory4ringNtB5_8SpscRing10commit_pop
FNDA:22,_RNvMs0_NtCseHB1QHhtQVt_12flyby_memory4ringNtB5_8SpscRing11commit_push
FNDA:2,_RNvMs0_NtCseHB1QHhtQVt_12flyby_memory4ringNtB5_8SpscRing3len
FNDA:8,_RNvMs0_NtCseHB1QHhtQVt_12flyby_memory4ringNtB5_8SpscRing3new
FNDA:86,_RNvMs0_NtCseHB1QHhtQVt_12flyby_memory4ringNtB5_8SpscRing4head
FNDA:56,_RNvMs0_NtCseHB1QHhtQVt_12flyby_memory4ringNtB5_8SpscRing4tail
FNDA:0,_RNvMs0_NtCseHB1QHhtQVt_12flyby_memory4ringNtB5_8SpscRing7is_full
FNDA:17,_RNvMs0_NtCseHB1QHhtQVt_12flyby_memory4ringNtB5_8SpscRing7try_pop
FNDA:1,_RNvMs0_NtCseHB1QHhtQVt_12flyby_memory4ringNtB5_8SpscRing8is_empty
FNDA:23,_RNvMs0_NtCseHB1QHhtQVt_12flyby_memory4ringNtB5_8SpscRing8try_push
FNDA:50035,_RNvMs0_NtCs4YFPOoCgYDP_12flyby_memory4ringNtB5_8SpscRing10commit_pop
FNDA:50054,_RNvMs0_NtCs4YFPOoCgYDP_12flyby_memory4ringNtB5_8SpscRing11commit_push
FNDA:15,_RNvMs0_NtCs4YFPOoCgYDP_12flyby_memory4ringNtB5_8SpscRing3len
FNDA:20,_RNvMs0_NtCs4YFPOoCgYDP_12flyby_memory4ringNtB5_8SpscRing3new
FNDA:208260,_RNvMs0_NtCs4YFPOoCgYDP_12flyby_memory4ringNtB5_8SpscRing4head
FNDA:208222,_RNvMs0_NtCs4YFPOoCgYDP_12flyby_memory4ringNtB5_8SpscRing4tail
FNDA:2,_RNvMs0_NtCs4YFPOoCgYDP_12flyby_memory4ringNtB5_8SpscRing7is_full
FNDA:58080,_RNvMs0_NtCs4YFPOoCgYDP_12flyby_memory4ringNtB5_8SpscRing7try_pop
FNDA:1,_RNvMs0_NtCs4YFPOoCgYDP_12flyby_memory4ringNtB5_8SpscRing8capacity
FNDA:6,_RNvMs0_NtCs4YFPOoCgYDP_12flyby_memory4ringNtB5_8SpscRing8is_empty
FNDA:50057,_RNvMs0_NtCs4YFPOoCgYDP_12flyby_memory4ringNtB5_8SpscRing8try_push
FNDA:1024,_RNCNvNtNtCs4YFPOoCgYDP_12flyby_memory4ring5testss_30concurrent_spsc_no_loss_or_dup0B7_
FNDA:1,_RNCNvNtNtCs4YFPOoCgYDP_12flyby_memory4ring5testss_30concurrent_spsc_no_loss_or_dups0_0B7_
FNDA:1,_RNCNvNtNtCs4YFPOoCgYDP_12flyby_memory4ring5testss_30concurrent_spsc_no_loss_or_dups_0B7_
FNDA:5,_RNvNtNtCs4YFPOoCgYDP_12flyby_memory4ring5tests9make_ring
FNDA:1,_RNvNtNtCs4YFPOoCgYDP_12flyby_memory4ring5testss_11wrap_around
FNDA:1,_RNvNtNtCs4YFPOoCgYDP_12flyby_memory4ring5testss_21capacity_is_preserved
FNDA:1,_RNvNtNtCs4YFPOoCgYDP_12flyby_memory4ring5testss_27push_pop_sequence_monotonic
FNDA:1,_RNvNtNtCs4YFPOoCgYDP_12flyby_memory4ring5testss_30concurrent_spsc_no_loss_or_dup
FNDA:1,_RNvNtNtCs4YFPOoCgYDP_12flyby_memory4ring5testss_30empty_ring_returns_none_on_pop
FNDA:1,_RNvNtNtCs4YFPOoCgYDP_12flyby_memory4ring5testss_30full_ring_returns_none_on_push
FNF:21
FNH:21
DA:74,28
DA:75,28
DA:76,28
DA:77,28
DA:78,28
DA:79,28
DA:80,28
DA:83,28
DA:84,28
DA:85,28
DA:86,28
DA:87,28
DA:88,28
DA:89,28
DA:90,28
DA:92,208346
DA:94,208346
DA:95,208346
DA:97,208278
DA:99,208278
DA:100,208278
DA:107,50080
DA:108,50080
DA:109,50080
DA:110,50080
DA:111,4
DA:112,50076
DA:113,50076
DA:114,50080
DA:121,50076
DA:122,50076
DA:123,50076
DA:124,50076
DA:131,58097
DA:132,58097
DA:133,58097
DA:134,58097
DA:135,8055
DA:136,50042
DA:137,50042
DA:138,58097
DA:145,50042
DA:146,50042
DA:147,50042
DA:148,50042
DA:152,1
DA:153,1
DA:154,1
DA:161,17
DA:162,17
DA:163,17
DA:164,17
DA:165,17
DA:167,7
DA:168,7
DA:169,7
DA:171,2
DA:172,2
DA:173,2
DA:181,5
DA:182,5
DA:183,5
DA:184,5
DA:185,5
DA:186,5
DA:187,5
DA:188,5
DA:191,5
DA:192,5
DA:195,1
DA:196,1
DA:197,1
DA:198,1
DA:199,1
DA:202,1
DA:203,1
DA:204,1
DA:205,4
DA:206,4
DA:207,4
DA:209,1
DA:210,1
DA:211,1
DA:214,1
DA:215,1
DA:216,1
DA:217,1
DA:219,4
DA:220,4
DA:221,4
DA:222,4
DA:223,4
DA:226,4
DA:227,4
DA:228,4
DA:229,4
DA:230,4
DA:232,1
DA:233,1
DA:234,1
DA:237,1
DA:238,1
DA:240,1
DA:241,8
DA:242,8
DA:243,8
DA:244,8
DA:245,8
DA:247,1
DA:250,1
DA:251,1
DA:252,1
DA:253,1
DA:256,1
DA:263,1
DA:264,1
DA:266,1024
DA:268,1
DA:269,1
DA:270,1
DA:271,50000
DA:273,50000
DA:274,50000
DA:275,50000
DA:276,50000
DA:277,0
DA:278,0
DA:281,1
DA:283,1
DA:284,1
DA:285,1
DA:286,1
DA:287,58041
DA:288,58040
DA:289,50000
DA:290,50000
DA:291,50000
DA:292,8040
DA:293,8040
DA:295,1
DA:296,1
DA:298,1
DA:299,1
DA:300,1
DA:301,1
DA:305,1
BRF:0
BRH:0
LF:149
LH:147
end_of_record
SF:/Users/thanos/work/flyby/crates/flyby-memory/src/slot.rs
FN:97,_RNvMNtCseHB1QHhtQVt_12flyby_memory4slotNtB2_10SlotHeader3new
FN:116,_RNvMNtCseHB1QHhtQVt_12flyby_memory4slotNtB2_10SlotHeader8is_valid
FN:62,_RNvNtCseHB1QHhtQVt_12flyby_memory4slot15slot_size_const
FN:176,_RNvNtCseHB1QHhtQVt_12flyby_memory4slot6decode
FN:136,_RNvNtCseHB1QHhtQVt_12flyby_memory4slot6encode
FN:50,_RNvNtCseHB1QHhtQVt_12flyby_memory4slot9slot_size
FN:53,_RNCNvNtCseHB1QHhtQVt_12flyby_memory4slot9slot_size0B5_
FN:56,_RNCNvNtCseHB1QHhtQVt_12flyby_memory4slot9slot_sizes_0B5_
FN:206,_RNvNtNtCs4YFPOoCgYDP_12flyby_memory4slot5tests11make_header
FN:211,_RNvNtNtCs4YFPOoCgYDP_12flyby_memory4slot5testss_17header_size_is_32
FN:279,_RNvNtNtCs4YFPOoCgYDP_12flyby_memory4slot5testss_18flag_missing_valid
FN:272,_RNvNtNtCs4YFPOoCgYDP_12flyby_memory4slot5testss_22flag_valid_and_suspect
FN:226,_RNvNtNtCs4YFPOoCgYDP_12flyby_memory4slot5testss_23encode_decode_roundtrip
FN:252,_RNvNtNtCs4YFPOoCgYDP_12flyby_memory4slot5testss_24decode_rejects_bad_magic
FN:246,_RNvNtNtCs4YFPOoCgYDP_12flyby_memory4slot5testss_24decode_rejects_short_src
FN:239,_RNvNtNtCs4YFPOoCgYDP_12flyby_memory4slot5testss_24encode_rejects_short_dst
FN:261,_RNvNtNtCs4YFPOoCgYDP_12flyby_memory4slot5testss_30decode_rejects_payload_overrun
FN:216,_RNvNtNtCs4YFPOoCgYDP_12flyby_memory4slot5testss_30slot_size_rounds_to_cache_line
FN:53,_RNCNvNtCs4YFPOoCgYDP_12flyby_memory4slot9slot_size0B5_
FN:56,_RNCNvNtCs4YFPOoCgYDP_12flyby_memory4slot9slot_sizes_0B5_
FN:97,_RNvMNtCs4YFPOoCgYDP_12flyby_memory4slotNtB2_10SlotHeader3new
FN:116,_RNvMNtCs4YFPOoCgYDP_12flyby_memory4slotNtB2_10SlotHeader8is_valid
FN:62,_RNvNtCs4YFPOoCgYDP_12flyby_memory4slot15slot_size_const
FN:176,_RNvNtCs4YFPOoCgYDP_12flyby_memory4slot6decode
FN:136,_RNvNtCs4YFPOoCgYDP_12flyby_memory4slot6encode
FN:50,_RNvNtCs4YFPOoCgYDP_12flyby_memory4slot9slot_size
FNDA:23,_RNvMNtCseHB1QHhtQVt_12flyby_memory4slotNtB2_10SlotHeader3new
FNDA:0,_RNvMNtCseHB1QHhtQVt_12flyby_memory4slotNtB2_10SlotHeader8is_valid
FNDA:0,_RNvNtCseHB1QHhtQVt_12flyby_memory4slot15slot_size_const
FNDA:6,_RNvNtCseHB1QHhtQVt_12flyby_memory4slot6decode
FNDA:22,_RNvNtCseHB1QHhtQVt_12flyby_memory4slot6encode
FNDA:8,_RNvNtCseHB1QHhtQVt_12flyby_memory4slot9slot_size
FNDA:0,_RNCNvNtCseHB1QHhtQVt_12flyby_memory4slot9slot_size0B5_
FNDA:0,_RNCNvNtCseHB1QHhtQVt_12flyby_memory4slot9slot_sizes_0B5_
FNDA:3,_RNvNtNtCs4YFPOoCgYDP_12flyby_memory4slot5tests11make_header
FNDA:1,_RNvNtNtCs4YFPOoCgYDP_12flyby_memory4slot5testss_17header_size_is_32
FNDA:1,_RNvNtNtCs4YFPOoCgYDP_12flyby_memory4slot5testss_18flag_missing_valid
FNDA:1,_RNvNtNtCs4YFPOoCgYDP_12flyby_memory4slot5testss_22flag_valid_and_suspect
FNDA:1,_RNvNtNtCs4YFPOoCgYDP_12flyby_memory4slot5testss_23encode_decode_roundtrip
FNDA:1,_RNvNtNtCs4YFPOoCgYDP_12flyby_memory4slot5testss_24decode_rejects_bad_magic
FNDA:1,_RNvNtNtCs4YFPOoCgYDP_12flyby_memory4slot5testss_24decode_rejects_short_src
FNDA:1,_RNvNtNtCs4YFPOoCgYDP_12flyby_memory4slot5testss_24encode_rejects_short_dst
FNDA:1,_RNvNtNtCs4YFPOoCgYDP_12flyby_memory4slot5testss_30decode_rejects_payload_overrun
FNDA:1,_RNvNtNtCs4YFPOoCgYDP_12flyby_memory4slot5testss_30slot_size_rounds_to_cache_line
FNDA:0,_RNCNvNtCs4YFPOoCgYDP_12flyby_memory4slot9slot_size0B5_
FNDA:0,_RNCNvNtCs4YFPOoCgYDP_12flyby_memory4slot9slot_sizes_0B5_
FNDA:46,_RNvMNtCs4YFPOoCgYDP_12flyby_memory4slotNtB2_10SlotHeader3new
FNDA:2,_RNvMNtCs4YFPOoCgYDP_12flyby_memory4slotNtB2_10SlotHeader8is_valid
FNDA:1,_RNvNtCs4YFPOoCgYDP_12flyby_memory4slot15slot_size_const
FNDA:26,_RNvNtCs4YFPOoCgYDP_12flyby_memory4slot6decode
FNDA:42,_RNvNtCs4YFPOoCgYDP_12flyby_memory4slot6encode
FNDA:17,_RNvNtCs4YFPOoCgYDP_12flyby_memory4slot9slot_size
FNF:18
FNH:16
DA:50,25
DA:51,25
DA:52,25
DA:53,25
DA:54,25
DA:55,25
DA:56,25
DA:57,25
DA:58,25
DA:59,25
DA:62,1
DA:63,1
DA:64,1
DA:65,1
DA:97,69
DA:98,69
DA:99,69
DA:100,69
DA:101,69
DA:102,69
DA:103,69
DA:104,69
DA:105,69
DA:106,69
DA:107,69
DA:108,69
DA:109,69
DA:110,69
DA:111,69
DA:112,69
DA:113,69
DA:116,2
DA:117,2
DA:118,2
DA:136,64
DA:137,64
DA:138,64
DA:139,1
DA:140,1
DA:141,1
DA:142,1
DA:143,63
DA:145,63
DA:146,63
DA:147,63
DA:148,63
DA:149,63
DA:150,63
DA:151,63
DA:152,63
DA:153,63
DA:154,64
DA:176,32
DA:177,32
DA:178,1
DA:179,1
DA:180,1
DA:181,1
DA:182,31
DA:184,31
DA:185,31
DA:186,31
DA:187,31
DA:189,31
DA:190,1
DA:191,30
DA:192,30
DA:193,30
DA:194,1
DA:195,1
DA:196,1
DA:197,1
DA:198,29
DA:199,29
DA:200,32
DA:206,3
DA:207,3
DA:208,3
DA:211,1
DA:212,1
DA:213,1
DA:216,1
DA:217,1
DA:218,1
DA:219,1
DA:220,1
DA:221,1
DA:222,1
DA:223,1
DA:226,1
DA:227,1
DA:228,1
DA:229,1
DA:231,1
DA:232,1
DA:234,1
DA:235,1
DA:236,1
DA:239,1
DA:240,1
DA:241,1
DA:242,1
DA:243,1
DA:246,1
DA:247,1
DA:248,1
DA:249,1
DA:252,1
DA:253,1
DA:254,1
DA:255,1
DA:256,1
DA:257,1
DA:258,1
DA:261,1
DA:263,1
DA:264,1
DA:265,1
DA:266,1
DA:267,1
DA:268,1
DA:269,1
DA:272,1
DA:273,1
DA:274,1
DA:275,1
DA:276,1
DA:279,1
DA:280,1
DA:281,1
DA:282,1
BRF:0
BRH:0
LF:133
LH:131
end_of_record
SF:/Users/thanos/work/flyby/crates/flyby-net/src/af_xdp.rs
FN:116,_RNvXs0_NtCsiazm9e7eIkx_9flyby_net6af_xdpNtB5_11AfXdpSourceNtNtCscf8MsWp3cCb_10flyby_core6source6Source4poll
FN:125,_RNvXs1_NtCsiazm9e7eIkx_9flyby_net6af_xdpNtB5_11AfXdpSourceNtNtB7_6source13NetworkSource10poll_batch
FN:132,_RNvXs1_NtCsiazm9e7eIkx_9flyby_net6af_xdpNtB5_11AfXdpSourceNtNtB7_6source13NetworkSource19backpressure_policy
FN:94,_RNvMNtCsiazm9e7eIkx_9flyby_net6af_xdpNtB2_11AfXdpSource3new
FN:99,_RNvMNtCsiazm9e7eIkx_9flyby_net6af_xdpNtB2_11AfXdpSource6config
FN:136,_RNvXs1_NtCsiazm9e7eIkx_9flyby_net6af_xdpNtB5_11AfXdpSourceNtNtB7_6source13NetworkSource12backend_name
FN:105,_RNvXs_NtCsiazm9e7eIkx_9flyby_net6af_xdpNtB4_11AfXdpSourceNtNtCscf8MsWp3cCb_10flyby_core9lifecycle9Lifecycle4init
FN:165,_RNvNtNtCsiazm9e7eIkx_9flyby_net6af_xdp5testss_12backend_name
FN:153,_RNvNtNtCsiazm9e7eIkx_9flyby_net6af_xdp5testss_20config_is_accessible
FN:146,_RNvNtNtCsiazm9e7eIkx_9flyby_net6af_xdp5testss_28init_returns_not_implemented
FNDA:0,_RNvXs0_NtCsiazm9e7eIkx_9flyby_net6af_xdpNtB5_11AfXdpSourceNtNtCscf8MsWp3cCb_10flyby_core6source6Source4poll
FNDA:0,_RNvXs1_NtCsiazm9e7eIkx_9flyby_net6af_xdpNtB5_11AfXdpSourceNtNtB7_6source13NetworkSource10poll_batch
FNDA:0,_RNvXs1_NtCsiazm9e7eIkx_9flyby_net6af_xdpNtB5_11AfXdpSourceNtNtB7_6source13NetworkSource19backpressure_policy
FNDA:3,_RNvMNtCsiazm9e7eIkx_9flyby_net6af_xdpNtB2_11AfXdpSource3new
FNDA:2,_RNvMNtCsiazm9e7eIkx_9flyby_net6af_xdpNtB2_11AfXdpSource6config
FNDA:1,_RNvXs1_NtCsiazm9e7eIkx_9flyby_net6af_xdpNtB5_11AfXdpSourceNtNtB7_6source13NetworkSource12backend_name
FNDA:1,_RNvXs_NtCsiazm9e7eIkx_9flyby_net6af_xdpNtB4_11AfXdpSourceNtNtCscf8MsWp3cCb_10flyby_core9lifecycle9Lifecycle4init
FNDA:1,_RNvNtNtCsiazm9e7eIkx_9flyby_net6af_xdp5testss_12backend_name
FNDA:1,_RNvNtNtCsiazm9e7eIkx_9flyby_net6af_xdp5testss_20config_is_accessible
FNDA:1,_RNvNtNtCsiazm9e7eIkx_9flyby_net6af_xdp5testss_28init_returns_not_implemented
FNF:10
FNH:7
DA:94,3
DA:95,3
DA:96,3
DA:99,2
DA:100,2
DA:101,2
DA:105,1
DA:106,1
DA:107,1
DA:108,1
DA:109,1
DA:110,1
DA:111,1
DA:112,1
DA:116,0
DA:117,0
DA:118,0
DA:119,0
DA:120,0
DA:121,0
DA:125,0
DA:126,0
DA:127,0
DA:128,0
DA:129,0
DA:130,0
DA:132,0
DA:133,0
DA:134,0
DA:136,1
DA:137,1
DA:138,1
DA:146,1
DA:147,1
DA:148,1
DA:149,1
DA:150,1
DA:153,1
DA:154,1
DA:155,1
DA:156,1
DA:157,1
DA:158,1
DA:159,1
DA:160,1
DA:161,1
DA:162,1
DA:165,1
DA:166,1
DA:167,1
DA:168,1
BRF:0
BRH:0
LF:51
LH:36
end_of_record
SF:/Users/thanos/work/flyby/crates/flyby-net/src/batch.rs
FN:74,_RNCNvMNtCslaj7P7CWVfX_9flyby_net5batchNtB4_8RawBatch3new0B6_
FN:140,_RNCNvMNtCslaj7P7CWVfX_9flyby_net5batchNtB4_8RawBatch7packets0B6_
FN:147,_RNvMNtCslaj7P7CWVfX_9flyby_net5batchNtB2_8RawBatch10packet_mut
FN:134,_RNvMNtCslaj7P7CWVfX_9flyby_net5batchNtB2_8RawBatch11record_drop
FN:104,_RNvMNtCslaj7P7CWVfX_9flyby_net5batchNtB2_8RawBatch14max_frame_size
FN:109,_RNvMNtCslaj7P7CWVfX_9flyby_net5batchNtB2_8RawBatch3len
FN:71,_RNvMNtCslaj7P7CWVfX_9flyby_net5batchNtB2_8RawBatch3new
FN:170,_RNvMNtCslaj7P7CWVfX_9flyby_net5batchNtB2_8RawBatch4push
FN:94,_RNvMNtCslaj7P7CWVfX_9flyby_net5batchNtB2_8RawBatch5reset
FN:124,_RNvMNtCslaj7P7CWVfX_9flyby_net5batchNtB2_8RawBatch7dropped
FN:139,_RNvMNtCslaj7P7CWVfX_9flyby_net5batchNtB2_8RawBatch7packets
FN:99,_RNvMNtCslaj7P7CWVfX_9flyby_net5batchNtB2_8RawBatch8capacity
FN:114,_RNvMNtCslaj7P7CWVfX_9flyby_net5batchNtB2_8RawBatch8is_empty
FN:119,_RNvMNtCslaj7P7CWVfX_9flyby_net5batchNtB2_8RawBatch8received
FN:158,_RNvMNtCslaj7P7CWVfX_9flyby_net5batchNtB2_8RawBatch8truncate
FN:129,_RNvMNtCslaj7P7CWVfX_9flyby_net5batchNtB2_8RawBatch9truncated
FN:147,_RNvMNtCsiazm9e7eIkx_9flyby_net5batchNtB2_8RawBatch10packet_mut
FN:104,_RNvMNtCsiazm9e7eIkx_9flyby_net5batchNtB2_8RawBatch14max_frame_size
FN:114,_RNvMNtCsiazm9e7eIkx_9flyby_net5batchNtB2_8RawBatch8is_empty
FN:158,_RNvMNtCsiazm9e7eIkx_9flyby_net5batchNtB2_8RawBatch8truncate
FN:134,_RNvMNtCsiazm9e7eIkx_9flyby_net5batchNtB2_8RawBatch11record_drop
FN:109,_RNvMNtCsiazm9e7eIkx_9flyby_net5batchNtB2_8RawBatch3len
FN:71,_RNvMNtCsiazm9e7eIkx_9flyby_net5batchNtB2_8RawBatch3new
FN:170,_RNvMNtCsiazm9e7eIkx_9flyby_net5batchNtB2_8RawBatch4push
FN:94,_RNvMNtCsiazm9e7eIkx_9flyby_net5batchNtB2_8RawBatch5reset
FN:124,_RNvMNtCsiazm9e7eIkx_9flyby_net5batchNtB2_8RawBatch7dropped
FN:139,_RNvMNtCsiazm9e7eIkx_9flyby_net5batchNtB2_8RawBatch7packets
FN:99,_RNvMNtCsiazm9e7eIkx_9flyby_net5batchNtB2_8RawBatch8capacity
FN:119,_RNvMNtCsiazm9e7eIkx_9flyby_net5batchNtB2_8RawBatch8received
FN:129,_RNvMNtCsiazm9e7eIkx_9flyby_net5batchNtB2_8RawBatch9truncated
FN:199,_RNvNtNtCsiazm9e7eIkx_9flyby_net5batch5testss_16push_and_iterate
FN:217,_RNvNtNtCsiazm9e7eIkx_9flyby_net5batch5testss_23full_batch_returns_full
FN:227,_RNvNtNtCsiazm9e7eIkx_9flyby_net5batch5testss_23reset_reuses_allocation
FN:253,_RNvNtNtCsiazm9e7eIkx_9flyby_net5batch5testss_27received_counter_increments
FN:242,_RNvNtNtCsiazm9e7eIkx_9flyby_net5batch5testss_31truncates_and_sets_original_len
FN:74,_RNCNvMNtCsiazm9e7eIkx_9flyby_net5batchNtB4_8RawBatch3new0B6_
FN:140,_RNCNvMNtCsiazm9e7eIkx_9flyby_net5batchNtB4_8RawBatch7packets0B6_
FNDA:1818552,_RNCNvMNtCslaj7P7CWVfX_9flyby_net5batchNtB4_8RawBatch3new0B6_
FNDA:255443,_RNCNvMNtCslaj7P7CWVfX_9flyby_net5batchNtB4_8RawBatch7packets0B6_
FNDA:0,_RNvMNtCslaj7P7CWVfX_9flyby_net5batchNtB2_8RawBatch10packet_mut
FNDA:12954,_RNvMNtCslaj7P7CWVfX_9flyby_net5batchNtB2_8RawBatch11record_drop
FNDA:11,_RNvMNtCslaj7P7CWVfX_9flyby_net5batchNtB2_8RawBatch14max_frame_size
FNDA:29,_RNvMNtCslaj7P7CWVfX_9flyby_net5batchNtB2_8RawBatch3len
FNDA:19140,_RNvMNtCslaj7P7CWVfX_9flyby_net5batchNtB2_8RawBatch3new
FNDA:455993,_RNvMNtCslaj7P7CWVfX_9flyby_net5batchNtB2_8RawBatch4push
FNDA:17158,_RNvMNtCslaj7P7CWVfX_9flyby_net5batchNtB2_8RawBatch5reset
FNDA:1,_RNvMNtCslaj7P7CWVfX_9flyby_net5batchNtB2_8RawBatch7dropped
FNDA:4040,_RNvMNtCslaj7P7CWVfX_9flyby_net5batchNtB2_8RawBatch7packets
FNDA:468826,_RNvMNtCslaj7P7CWVfX_9flyby_net5batchNtB2_8RawBatch8capacity
FNDA:2,_RNvMNtCslaj7P7CWVfX_9flyby_net5batchNtB2_8RawBatch8is_empty
FNDA:0,_RNvMNtCslaj7P7CWVfX_9flyby_net5batchNtB2_8RawBatch8received
FNDA:0,_RNvMNtCslaj7P7CWVfX_9flyby_net5batchNtB2_8RawBatch8truncate
FNDA:0,_RNvMNtCslaj7P7CWVfX_9flyby_net5batchNtB2_8RawBatch9truncated
FNDA:0,_RNvMNtCsiazm9e7eIkx_9flyby_net5batchNtB2_8RawBatch10packet_mut
FNDA:0,_RNvMNtCsiazm9e7eIkx_9flyby_net5batchNtB2_8RawBatch14max_frame_size
FNDA:0,_RNvMNtCsiazm9e7eIkx_9flyby_net5batchNtB2_8RawBatch8is_empty
FNDA:0,_RNvMNtCsiazm9e7eIkx_9flyby_net5batchNtB2_8RawBatch8truncate
FNDA:40,_RNvMNtCsiazm9e7eIkx_9flyby_net5batchNtB2_8RawBatch11record_drop
FNDA:13,_RNvMNtCsiazm9e7eIkx_9flyby_net5batchNtB2_8RawBatch3len
FNDA:64,_RNvMNtCsiazm9e7eIkx_9flyby_net5batchNtB2_8RawBatch3new
FNDA:203,_RNvMNtCsiazm9e7eIkx_9flyby_net5batchNtB2_8RawBatch4push
FNDA:59,_RNvMNtCsiazm9e7eIkx_9flyby_net5batchNtB2_8RawBatch5reset
FNDA:3,_RNvMNtCsiazm9e7eIkx_9flyby_net5batchNtB2_8RawBatch7dropped
FNDA:7,_RNvMNtCsiazm9e7eIkx_9flyby_net5batchNtB2_8RawBatch7packets
FNDA:7,_RNvMNtCsiazm9e7eIkx_9flyby_net5batchNtB2_8RawBatch8capacity
FNDA:3,_RNvMNtCsiazm9e7eIkx_9flyby_net5batchNtB2_8RawBatch8received
FNDA:1,_RNvMNtCsiazm9e7eIkx_9flyby_net5batchNtB2_8RawBatch9truncated
FNDA:1,_RNvNtNtCsiazm9e7eIkx_9flyby_net5batch5testss_16push_and_iterate
FNDA:1,_RNvNtNtCsiazm9e7eIkx_9flyby_net5batch5testss_23full_batch_returns_full
FNDA:1,_RNvNtNtCsiazm9e7eIkx_9flyby_net5batch5testss_23reset_reuses_allocation
FNDA:1,_RNvNtNtCsiazm9e7eIkx_9flyby_net5batch5testss_27received_counter_increments
FNDA:1,_RNvNtNtCsiazm9e7eIkx_9flyby_net5batch5testss_31truncates_and_sets_original_len
FNDA:579,_RNCNvMNtCsiazm9e7eIkx_9flyby_net5batchNtB4_8RawBatch3new0B6_
FNDA:69,_RNCNvMNtCsiazm9e7eIkx_9flyby_net5batchNtB4_8RawBatch7packets0B6_
FNF:21
FNH:19
DA:71,19204
DA:72,19204
DA:73,19204
DA:74,1819131
DA:75,19204
DA:76,19204
DA:77,19204
DA:78,19204
DA:79,19204
DA:80,19204
DA:81,19204
DA:82,19204
DA:83,19204
DA:84,19204
DA:85,19204
DA:86,19204
DA:87,19204
DA:94,17217
DA:95,17217
DA:96,17217
DA:99,468833
DA:100,468833
DA:101,468833
DA:104,11
DA:105,11
DA:106,11
DA:109,42
DA:110,42
DA:111,42
DA:114,2
DA:115,2
DA:116,2
DA:119,3
DA:120,3
DA:121,3
DA:124,4
DA:125,4
DA:126,4
DA:129,1
DA:130,1
DA:131,1
DA:134,12994
DA:135,12994
DA:136,12994
DA:139,4047
DA:140,255512
DA:141,4047
DA:147,0
DA:148,0
DA:149,0
DA:150,0
DA:151,0
DA:152,0
DA:153,0
DA:158,0
DA:159,0
DA:160,0
DA:161,0
DA:162,0
DA:170,456196
DA:171,456196
DA:172,1
DA:173,456195
DA:174,456195
DA:175,456195
DA:176,456195
DA:177,9
DA:178,456186
DA:179,456195
DA:180,456195
DA:181,456195
DA:182,456195
DA:183,456195
DA:184,456195
DA:185,456195
DA:186,3
DA:187,3
DA:189,456192
DA:191,456196
DA:199,1
DA:200,1
DA:201,1
DA:202,1
DA:203,1
DA:204,1
DA:205,1
DA:206,1
DA:207,1
DA:208,1
DA:210,1
DA:211,1
DA:212,1
DA:213,1
DA:214,1
DA:217,1
DA:218,1
DA:219,1
DA:220,1
DA:221,1
DA:222,1
DA:223,1
DA:224,1
DA:227,1
DA:228,1
DA:229,1
DA:230,1
DA:231,1
DA:232,1
DA:234,1
DA:235,1
DA:236,1
DA:237,1
DA:238,1
DA:239,1
DA:242,1
DA:243,1
DA:244,1
DA:245,1
DA:246,1
DA:247,1
DA:248,1
DA:249,1
DA:250,1
DA:253,1
DA:254,1
DA:255,1
DA:256,3
DA:257,3
DA:258,3
DA:259,1
DA:260,1
DA:261,1
DA:262,1
BRF:0
BRH:0
LF:135
LH:123
end_of_record
SF:/Users/thanos/work/flyby/crates/flyby-net/src/config.rs
FN:50,_RNvMNtCslaj7P7CWVfX_9flyby_net6configNtB2_7XdpMode13may_zero_copy
FN:205,_RNvMs3_NtCslaj7P7CWVfX_9flyby_net6configNtB5_12SimNetConfig8validate
FN:221,_RNvMs4_NtCslaj7P7CWVfX_9flyby_net6configNtB5_10UmemConfig8validate
FN:238,_RNvMs5_NtCslaj7P7CWVfX_9flyby_net6configNtB5_11AfXdpConfig8validate
FN:252,_RNvMs6_NtCslaj7P7CWVfX_9flyby_net6configNtB5_10DpdkConfig8validate
FN:114,_RNvXs0_NtCslaj7P7CWVfX_9flyby_net6configNtB5_10UmemConfigNtNtCsl8K0bEFm1U0_4core7default7Default7default
FN:153,_RNvXs1_NtCslaj7P7CWVfX_9flyby_net6configNtB5_11AfXdpConfigNtNtCsl8K0bEFm1U0_4core7default7Default7default
FN:192,_RNvXs2_NtCslaj7P7CWVfX_9flyby_net6configNtB5_12SimNetConfigNtNtCsl8K0bEFm1U0_4core7default7Default7default
FN:291,_RNvXs7_NtCslaj7P7CWVfX_9flyby_net6configNtB5_10DpdkConfigNtNtCsl8K0bEFm1U0_4core7default7Default7default
FN:87,_RNvXs_NtCslaj7P7CWVfX_9flyby_net6configNtB4_9XdpConfigNtNtCsl8K0bEFm1U0_4core7default7Default7default
FN:50,_RNvMNtCsiazm9e7eIkx_9flyby_net6configNtB2_7XdpMode13may_zero_copy
FN:221,_RNvMs4_NtCsiazm9e7eIkx_9flyby_net6configNtB5_10UmemConfig8validate
FN:238,_RNvMs5_NtCsiazm9e7eIkx_9flyby_net6configNtB5_11AfXdpConfig8validate
FN:252,_RNvMs6_NtCsiazm9e7eIkx_9flyby_net6configNtB5_10DpdkConfig8validate
FN:205,_RNvMs3_NtCsiazm9e7eIkx_9flyby_net6configNtB5_12SimNetConfig8validate
FN:114,_RNvXs0_NtCsiazm9e7eIkx_9flyby_net6configNtB5_10UmemConfigNtNtCsl8K0bEFm1U0_4core7default7Default7default
FN:153,_RNvXs1_NtCsiazm9e7eIkx_9flyby_net6configNtB5_11AfXdpConfigNtNtCsl8K0bEFm1U0_4core7default7Default7default
FN:192,_RNvXs2_NtCsiazm9e7eIkx_9flyby_net6configNtB5_12SimNetConfigNtNtCsl8K0bEFm1U0_4core7default7Default7default
FN:291,_RNvXs7_NtCsiazm9e7eIkx_9flyby_net6configNtB5_10DpdkConfigNtNtCsl8K0bEFm1U0_4core7default7Default7default
FN:87,_RNvXs_NtCsiazm9e7eIkx_9flyby_net6configNtB4_9XdpConfigNtNtCsl8K0bEFm1U0_4core7default7Default7default
FNDA:0,_RNvMNtCslaj7P7CWVfX_9flyby_net6configNtB2_7XdpMode13may_zero_copy
FNDA:30,_RNvMs3_NtCslaj7P7CWVfX_9flyby_net6configNtB5_12SimNetConfig8validate
FNDA:0,_RNvMs4_NtCslaj7P7CWVfX_9flyby_net6configNtB5_10UmemConfig8validate
FNDA:0,_RNvMs5_NtCslaj7P7CWVfX_9flyby_net6configNtB5_11AfXdpConfig8validate
FNDA:0,_RNvMs6_NtCslaj7P7CWVfX_9flyby_net6configNtB5_10DpdkConfig8validate
FNDA:0,_RNvXs0_NtCslaj7P7CWVfX_9flyby_net6configNtB5_10UmemConfigNtNtCsl8K0bEFm1U0_4core7default7Default7default
FNDA:0,_RNvXs1_NtCslaj7P7CWVfX_9flyby_net6configNtB5_11AfXdpConfigNtNtCsl8K0bEFm1U0_4core7default7Default7default
FNDA:15,_RNvXs2_NtCslaj7P7CWVfX_9flyby_net6configNtB5_12SimNetConfigNtNtCsl8K0bEFm1U0_4core7default7Default7default
FNDA:0,_RNvXs7_NtCslaj7P7CWVfX_9flyby_net6configNtB5_10DpdkConfigNtNtCsl8K0bEFm1U0_4core7default7Default7default
FNDA:0,_RNvXs_NtCslaj7P7CWVfX_9flyby_net6configNtB4_9XdpConfigNtNtCsl8K0bEFm1U0_4core7default7Default7default
FNDA:0,_RNvMNtCsiazm9e7eIkx_9flyby_net6configNtB2_7XdpMode13may_zero_copy
FNDA:0,_RNvMs4_NtCsiazm9e7eIkx_9flyby_net6configNtB5_10UmemConfig8validate
FNDA:0,_RNvMs5_NtCsiazm9e7eIkx_9flyby_net6configNtB5_11AfXdpConfig8validate
FNDA:0,_RNvMs6_NtCsiazm9e7eIkx_9flyby_net6configNtB5_10DpdkConfig8validate
FNDA:21,_RNvMs3_NtCsiazm9e7eIkx_9flyby_net6configNtB5_12SimNetConfig8validate
FNDA:3,_RNvXs0_NtCsiazm9e7eIkx_9flyby_net6configNtB5_10UmemConfigNtNtCsl8K0bEFm1U0_4core7default7Default7default
FNDA:3,_RNvXs1_NtCsiazm9e7eIkx_9flyby_net6configNtB5_11AfXdpConfigNtNtCsl8K0bEFm1U0_4core7default7Default7default
FNDA:13,_RNvXs2_NtCsiazm9e7eIkx_9flyby_net6configNtB5_12SimNetConfigNtNtCsl8K0bEFm1U0_4core7default7Default7default
FNDA:3,_RNvXs7_NtCsiazm9e7eIkx_9flyby_net6configNtB5_10DpdkConfigNtNtCsl8K0bEFm1U0_4core7default7Default7default
FNDA:3,_RNvXs_NtCsiazm9e7eIkx_9flyby_net6configNtB4_9XdpConfigNtNtCsl8K0bEFm1U0_4core7default7Default7default
FNF:10
FNH:6
DA:50,0
DA:51,0
DA:52,0
DA:87,3
DA:88,3
DA:89,3
DA:90,3
DA:91,3
DA:92,3
DA:93,3
DA:114,3
DA:115,3
DA:116,3
DA:117,3
DA:118,3
DA:119,3
DA:153,3
DA:154,3
DA:155,3
DA:156,3
DA:157,3
DA:158,3
DA:159,3
DA:160,3
DA:161,3
DA:162,3
DA:192,28
DA:193,28
DA:194,28
DA:195,28
DA:196,28
DA:197,28
DA:198,28
DA:199,28
DA:200,28
DA:205,51
DA:206,51
DA:207,0
DA:208,51
DA:209,51
DA:210,1
DA:211,50
DA:212,50
DA:213,0
DA:214,50
DA:215,50
DA:216,51
DA:221,0
DA:222,0
DA:223,0
DA:224,0
DA:225,0
DA:226,0
DA:227,0
DA:228,0
DA:229,0
DA:230,0
DA:231,0
DA:232,0
DA:233,0
DA:238,0
DA:239,0
DA:240,0
DA:241,0
DA:242,0
DA:243,0
DA:244,0
DA:245,0
DA:246,0
DA:247,0
DA:252,0
DA:253,0
DA:254,0
DA:255,0
DA:256,0
DA:257,0
DA:258,0
DA:259,0
DA:260,0
DA:291,3
DA:292,3
DA:293,3
DA:294,3
DA:295,3
DA:296,3
DA:297,3
DA:298,3
DA:299,3
BRF:0
BRH:0
LF:88
LH:51
end_of_record
SF:/Users/thanos/work/flyby/crates/flyby-net/src/dpdk.rs
FN:164,_RNvNtNtCsiazm9e7eIkx_9flyby_net4dpdk5testss_12backend_name
FN:152,_RNvNtNtCsiazm9e7eIkx_9flyby_net4dpdk5testss_20config_is_accessible
FN:145,_RNvNtNtCsiazm9e7eIkx_9flyby_net4dpdk5testss_28init_returns_not_implemented
FN:93,_RNvMNtCsiazm9e7eIkx_9flyby_net4dpdkNtB2_10DpdkSource3new
FN:98,_RNvMNtCsiazm9e7eIkx_9flyby_net4dpdkNtB2_10DpdkSource6config
FN:135,_RNvXs1_NtCsiazm9e7eIkx_9flyby_net4dpdkNtB5_10DpdkSourceNtNtB7_6source13NetworkSource12backend_name
FN:104,_RNvXs_NtCsiazm9e7eIkx_9flyby_net4dpdkNtB4_10DpdkSourceNtNtCscf8MsWp3cCb_10flyby_core9lifecycle9Lifecycle4init
FN:115,_RNvXs0_NtCsiazm9e7eIkx_9flyby_net4dpdkNtB5_10DpdkSourceNtNtCscf8MsWp3cCb_10flyby_core6source6Source4poll
FN:124,_RNvXs1_NtCsiazm9e7eIkx_9flyby_net4dpdkNtB5_10DpdkSourceNtNtB7_6source13NetworkSource10poll_batch
FN:131,_RNvXs1_NtCsiazm9e7eIkx_9flyby_net4dpdkNtB5_10DpdkSourceNtNtB7_6source13NetworkSource19backpressure_policy
FNDA:1,_RNvNtNtCsiazm9e7eIkx_9flyby_net4dpdk5testss_12backend_name
FNDA:1,_RNvNtNtCsiazm9e7eIkx_9flyby_net4dpdk5testss_20config_is_accessible
FNDA:1,_RNvNtNtCsiazm9e7eIkx_9flyby_net4dpdk5testss_28init_returns_not_implemented
FNDA:3,_RNvMNtCsiazm9e7eIkx_9flyby_net4dpdkNtB2_10DpdkSource3new
FNDA:2,_RNvMNtCsiazm9e7eIkx_9flyby_net4dpdkNtB2_10DpdkSource6config
FNDA:1,_RNvXs1_NtCsiazm9e7eIkx_9flyby_net4dpdkNtB5_10DpdkSourceNtNtB7_6source13NetworkSource12backend_name
FNDA:1,_RNvXs_NtCsiazm9e7eIkx_9flyby_net4dpdkNtB4_10DpdkSourceNtNtCscf8MsWp3cCb_10flyby_core9lifecycle9Lifecycle4init
FNDA:0,_RNvXs0_NtCsiazm9e7eIkx_9flyby_net4dpdkNtB5_10DpdkSourceNtNtCscf8MsWp3cCb_10flyby_core6source6Source4poll
FNDA:0,_RNvXs1_NtCsiazm9e7eIkx_9flyby_net4dpdkNtB5_10DpdkSourceNtNtB7_6source13NetworkSource10poll_batch
FNDA:0,_RNvXs1_NtCsiazm9e7eIkx_9flyby_net4dpdkNtB5_10DpdkSourceNtNtB7_6source13NetworkSource19backpressure_policy
FNF:10
FNH:7
DA:93,3
DA:94,3
DA:95,3
DA:98,2
DA:99,2
DA:100,2
DA:104,1
DA:105,1
DA:106,1
DA:107,1
DA:108,1
DA:109,1
DA:110,1
DA:111,1
DA:115,0
DA:116,0
DA:117,0
DA:118,0
DA:119,0
DA:120,0
DA:124,0
DA:125,0
DA:126,0
DA:127,0
DA:128,0
DA:129,0
DA:131,0
DA:132,0
DA:133,0
DA:135,1
DA:136,1
DA:137,1
DA:145,1
DA:146,1
DA:147,1
DA:148,1
DA:149,1
DA:152,1
DA:153,1
DA:154,1
DA:155,1
DA:156,1
DA:157,1
DA:158,1
DA:159,1
DA:160,1
DA:161,1
DA:164,1
DA:165,1
DA:166,1
DA:167,1
BRF:0
BRH:0
LF:51
LH:36
end_of_record
SF:/Users/thanos/work/flyby/crates/flyby-net/src/metrics.rs
FN:53,_RNvMNtCslaj7P7CWVfX_9flyby_net7metricsNtB2_12NetMetricKey4kind
FN:63,_RNvXs_NtCslaj7P7CWVfX_9flyby_net7metricsNtB4_12NetMetricKeyNtNtCscf8MsWp3cCb_10flyby_core7metrics9MetricKey4name
FN:53,_RNvMNtCsiazm9e7eIkx_9flyby_net7metricsNtB2_12NetMetricKey4kind
FN:63,_RNvXs_NtCsiazm9e7eIkx_9flyby_net7metricsNtB4_12NetMetricKeyNtNtCscf8MsWp3cCb_10flyby_core7metrics9MetricKey4name
FNDA:0,_RNvMNtCslaj7P7CWVfX_9flyby_net7metricsNtB2_12NetMetricKey4kind
FNDA:0,_RNvXs_NtCslaj7P7CWVfX_9flyby_net7metricsNtB4_12NetMetricKeyNtNtCscf8MsWp3cCb_10flyby_core7metrics9MetricKey4name
FNDA:0,_RNvMNtCsiazm9e7eIkx_9flyby_net7metricsNtB2_12NetMetricKey4kind
FNDA:0,_RNvXs_NtCsiazm9e7eIkx_9flyby_net7metricsNtB4_12NetMetricKeyNtNtCscf8MsWp3cCb_10flyby_core7metrics9MetricKey4name
FNF:2
FNH:0
DA:53,0
DA:54,0
DA:55,0
DA:56,0
DA:57,0
DA:59,0
DA:63,0
DA:64,0
DA:65,0
DA:66,0
DA:67,0
DA:68,0
DA:69,0
DA:70,0
DA:71,0
DA:72,0
DA:73,0
DA:75,0
BRF:0
BRH:0
LF:18
LH:0
end_of_record
SF:/Users/thanos/work/flyby/crates/flyby-net/src/sim.rs
FN:109,_RNvMNtCslaj7P7CWVfX_9flyby_net3simNtB2_18SimulatedNetSource10batch_size
FN:144,_RNvMNtCslaj7P7CWVfX_9flyby_net3simNtB2_18SimulatedNetSource10frame_size
FN:162,_RNvMNtCslaj7P7CWVfX_9flyby_net3simNtB2_18SimulatedNetSource11ensure_init
FN:93,_RNvMNtCslaj7P7CWVfX_9flyby_net3simNtB2_18SimulatedNetSource12with_metrics
FN:77,_RNvMNtCslaj7P7CWVfX_9flyby_net3simNtB2_18SimulatedNetSource13new_unchecked
FN:104,_RNvMNtCslaj7P7CWVfX_9flyby_net3simNtB2_18SimulatedNetSource14set_batch_size
FN:137,_RNvMNtCslaj7P7CWVfX_9flyby_net3simNtB2_18SimulatedNetSource14write_sequence
FN:113,_RNvMNtCslaj7P7CWVfX_9flyby_net3simNtB2_18SimulatedNetSource19fill_static_headers
FN:64,_RNvMNtCslaj7P7CWVfX_9flyby_net3simNtB2_18SimulatedNetSource3new
FN:72,_RNvMNtCslaj7P7CWVfX_9flyby_net3simNtB2_18SimulatedNetSource7try_new
FN:148,_RNvMNtCslaj7P7CWVfX_9flyby_net3simNtB2_18SimulatedNetSource8next_u32
FN:153,_RNvMNtCslaj7P7CWVfX_9flyby_net3simNtB2_18SimulatedNetSource8rate_hit
FN:35,_RNvNtCslaj7P7CWVfX_9flyby_net3sim5mix64
FN:188,_RNvXs0_NtCslaj7P7CWVfX_9flyby_net3simNtB5_18SimulatedNetSourceNtNtCscf8MsWp3cCb_10flyby_core6source6Source4poll
FN:203,_RNvXs1_NtCslaj7P7CWVfX_9flyby_net3simNtB5_18SimulatedNetSourceNtNtB7_6source13NetworkSource10poll_batch
FN:271,_RNvXs1_NtCslaj7P7CWVfX_9flyby_net3simNtB5_18SimulatedNetSourceNtNtB7_6source13NetworkSource12backend_name
FN:171,_RNvXs_NtCslaj7P7CWVfX_9flyby_net3simNtB4_18SimulatedNetSourceNtNtCscf8MsWp3cCb_10flyby_core9lifecycle9Lifecycle4init
FN:179,_RNvXs_NtCslaj7P7CWVfX_9flyby_net3simNtB4_18SimulatedNetSourceNtNtCscf8MsWp3cCb_10flyby_core9lifecycle9Lifecycle8shutdown
FN:109,_RNvMNtCsiazm9e7eIkx_9flyby_net3simNtB2_18SimulatedNetSource10batch_size
FN:93,_RNvMNtCsiazm9e7eIkx_9flyby_net3simNtB2_18SimulatedNetSource12with_metrics
FN:104,_RNvMNtCsiazm9e7eIkx_9flyby_net3simNtB2_18SimulatedNetSource14set_batch_size
FN:285,_RNvNtNtCsiazm9e7eIkx_9flyby_net3sim5tests10make_batch
FN:281,_RNvNtNtCsiazm9e7eIkx_9flyby_net3sim5tests8make_src
FN:424,_RNvNtNtCsiazm9e7eIkx_9flyby_net3sim5testss_12backend_name
FN:398,_RNvNtNtCsiazm9e7eIkx_9flyby_net3sim5testss_17ethertype_is_ipv4
FN:430,_RNvNtNtCsiazm9e7eIkx_9flyby_net3sim5testss_23invalid_config_rejected
FN:380,_RNvNtNtCsiazm9e7eIkx_9flyby_net3sim5testss_25source_poll_respects_idle
FN:409,_RNvNtNtCsiazm9e7eIkx_9flyby_net3sim5testss_27udp_dst_port_matches_config
FN:364,_RNvNtNtCsiazm9e7eIkx_9flyby_net3sim5testss_30capacity_overflow_counts_drops
FN:315,_RNvNtNtCsiazm9e7eIkx_9flyby_net3sim5testss_30sequence_numbers_are_monotonic
FN:300,_RNvNtNtCsiazm9e7eIkx_9flyby_net3sim5testss_31packets_have_correct_frame_size
FN:340,_RNvNtNtCsiazm9e7eIkx_9flyby_net3sim5testss_31shutdown_prevents_further_polls
FN:349,_RNvNtNtCsiazm9e7eIkx_9flyby_net3sim5testss_32drop_rate_produces_dropped_count
FN:290,_RNvNtNtCsiazm9e7eIkx_9flyby_net3sim5testss_35poll_batch_returns_configured_count
FN:332,_RNvNtNtCsiazm9e7eIkx_9flyby_net3sim5testss_44uninitialized_source_returns_lifecycle_error
FN:144,_RNvMNtCsiazm9e7eIkx_9flyby_net3simNtB2_18SimulatedNetSource10frame_size
FN:162,_RNvMNtCsiazm9e7eIkx_9flyby_net3simNtB2_18SimulatedNetSource11ensure_init
FN:77,_RNvMNtCsiazm9e7eIkx_9flyby_net3simNtB2_18SimulatedNetSource13new_unchecked
FN:137,_RNvMNtCsiazm9e7eIkx_9flyby_net3simNtB2_18SimulatedNetSource14write_sequence
FN:113,_RNvMNtCsiazm9e7eIkx_9flyby_net3simNtB2_18SimulatedNetSource19fill_static_headers
FN:64,_RNvMNtCsiazm9e7eIkx_9flyby_net3simNtB2_18SimulatedNetSource3new
FN:72,_RNvMNtCsiazm9e7eIkx_9flyby_net3simNtB2_18SimulatedNetSource7try_new
FN:148,_RNvMNtCsiazm9e7eIkx_9flyby_net3simNtB2_18SimulatedNetSource8next_u32
FN:153,_RNvMNtCsiazm9e7eIkx_9flyby_net3simNtB2_18SimulatedNetSource8rate_hit
FN:35,_RNvNtCsiazm9e7eIkx_9flyby_net3sim5mix64
FN:188,_RNvXs0_NtCsiazm9e7eIkx_9flyby_net3simNtB5_18SimulatedNetSourceNtNtCscf8MsWp3cCb_10flyby_core6source6Source4poll
FN:203,_RNvXs1_NtCsiazm9e7eIkx_9flyby_net3simNtB5_18SimulatedNetSourceNtNtB7_6source13NetworkSource10poll_batch
FN:271,_RNvXs1_NtCsiazm9e7eIkx_9flyby_net3simNtB5_18SimulatedNetSourceNtNtB7_6source13NetworkSource12backend_name
FN:171,_RNvXs_NtCsiazm9e7eIkx_9flyby_net3simNtB4_18SimulatedNetSourceNtNtCscf8MsWp3cCb_10flyby_core9lifecycle9Lifecycle4init
FN:179,_RNvXs_NtCsiazm9e7eIkx_9flyby_net3simNtB4_18SimulatedNetSourceNtNtCscf8MsWp3cCb_10flyby_core9lifecycle9Lifecycle8shutdown
FNDA:0,_RNvMNtCslaj7P7CWVfX_9flyby_net3simNtB2_18SimulatedNetSource10batch_size
FNDA:128,_RNvMNtCslaj7P7CWVfX_9flyby_net3simNtB2_18SimulatedNetSource10frame_size
FNDA:27,_RNvMNtCslaj7P7CWVfX_9flyby_net3simNtB2_18SimulatedNetSource11ensure_init
FNDA:0,_RNvMNtCslaj7P7CWVfX_9flyby_net3simNtB2_18SimulatedNetSource12with_metrics
FNDA:15,_RNvMNtCslaj7P7CWVfX_9flyby_net3simNtB2_18SimulatedNetSource13new_unchecked
FNDA:0,_RNvMNtCslaj7P7CWVfX_9flyby_net3simNtB2_18SimulatedNetSource14set_batch_size
FNDA:103,_RNvMNtCslaj7P7CWVfX_9flyby_net3simNtB2_18SimulatedNetSource14write_sequence
FNDA:15,_RNvMNtCslaj7P7CWVfX_9flyby_net3simNtB2_18SimulatedNetSource19fill_static_headers
FNDA:14,_RNvMNtCslaj7P7CWVfX_9flyby_net3simNtB2_18SimulatedNetSource3new
FNDA:1,_RNvMNtCslaj7P7CWVfX_9flyby_net3simNtB2_18SimulatedNetSource7try_new
FNDA:64,_RNvMNtCslaj7P7CWVfX_9flyby_net3simNtB2_18SimulatedNetSource8next_u32
FNDA:185,_RNvMNtCslaj7P7CWVfX_9flyby_net3simNtB2_18SimulatedNetSource8rate_hit
FNDA:64,_RNvNtCslaj7P7CWVfX_9flyby_net3sim5mix64
FNDA:0,_RNvXs0_NtCslaj7P7CWVfX_9flyby_net3simNtB5_18SimulatedNetSourceNtNtCscf8MsWp3cCb_10flyby_core6source6Source4poll
FNDA:27,_RNvXs1_NtCslaj7P7CWVfX_9flyby_net3simNtB5_18SimulatedNetSourceNtNtB7_6source13NetworkSource10poll_batch
FNDA:1,_RNvXs1_NtCslaj7P7CWVfX_9flyby_net3simNtB5_18SimulatedNetSourceNtNtB7_6source13NetworkSource12backend_name
FNDA:15,_RNvXs_NtCslaj7P7CWVfX_9flyby_net3simNtB4_18SimulatedNetSourceNtNtCscf8MsWp3cCb_10flyby_core9lifecycle9Lifecycle4init
FNDA:4,_RNvXs_NtCslaj7P7CWVfX_9flyby_net3simNtB4_18SimulatedNetSourceNtNtCscf8MsWp3cCb_10flyby_core9lifecycle9Lifecycle8shutdown
FNDA:0,_RNvMNtCsiazm9e7eIkx_9flyby_net3simNtB2_18SimulatedNetSource10batch_size
FNDA:0,_RNvMNtCsiazm9e7eIkx_9flyby_net3simNtB2_18SimulatedNetSource12with_metrics
FNDA:0,_RNvMNtCsiazm9e7eIkx_9flyby_net3simNtB2_18SimulatedNetSource14set_batch_size
FNDA:7,_RNvNtNtCsiazm9e7eIkx_9flyby_net3sim5tests10make_batch
FNDA:6,_RNvNtNtCsiazm9e7eIkx_9flyby_net3sim5tests8make_src
FNDA:1,_RNvNtNtCsiazm9e7eIkx_9flyby_net3sim5testss_12backend_name
FNDA:1,_RNvNtNtCsiazm9e7eIkx_9flyby_net3sim5testss_17ethertype_is_ipv4
FNDA:1,_RNvNtNtCsiazm9e7eIkx_9flyby_net3sim5testss_23invalid_config_rejected
FNDA:1,_RNvNtNtCsiazm9e7eIkx_9flyby_net3sim5testss_25source_poll_respects_idle
FNDA:1,_RNvNtNtCsiazm9e7eIkx_9flyby_net3sim5testss_27udp_dst_port_matches_config
FNDA:1,_RNvNtNtCsiazm9e7eIkx_9flyby_net3sim5testss_30capacity_overflow_counts_drops
FNDA:1,_RNvNtNtCsiazm9e7eIkx_9flyby_net3sim5testss_30sequence_numbers_are_monotonic
FNDA:1,_RNvNtNtCsiazm9e7eIkx_9flyby_net3sim5testss_31packets_have_correct_frame_size
FNDA:1,_RNvNtNtCsiazm9e7eIkx_9flyby_net3sim5testss_31shutdown_prevents_further_polls
FNDA:1,_RNvNtNtCsiazm9e7eIkx_9flyby_net3sim5testss_32drop_rate_produces_dropped_count
FNDA:1,_RNvNtNtCsiazm9e7eIkx_9flyby_net3sim5testss_35poll_batch_returns_configured_count
FNDA:1,_RNvNtNtCsiazm9e7eIkx_9flyby_net3sim5testss_44uninitialized_source_returns_lifecycle_error
FNDA:299,_RNvMNtCsiazm9e7eIkx_9flyby_net3simNtB2_18SimulatedNetSource10frame_size
FNDA:109,_RNvMNtCsiazm9e7eIkx_9flyby_net3simNtB2_18SimulatedNetSource11ensure_init
FNDA:11,_RNvMNtCsiazm9e7eIkx_9flyby_net3simNtB2_18SimulatedNetSource13new_unchecked
FNDA:192,_RNvMNtCsiazm9e7eIkx_9flyby_net3simNtB2_18SimulatedNetSource14write_sequence
FNDA:11,_RNvMNtCsiazm9e7eIkx_9flyby_net3simNtB2_18SimulatedNetSource19fill_static_headers
FNDA:11,_RNvMNtCsiazm9e7eIkx_9flyby_net3simNtB2_18SimulatedNetSource3new
FNDA:1,_RNvMNtCsiazm9e7eIkx_9flyby_net3simNtB2_18SimulatedNetSource7try_new
FNDA:114,_RNvMNtCsiazm9e7eIkx_9flyby_net3simNtB2_18SimulatedNetSource8next_u32
FNDA:289,_RNvMNtCsiazm9e7eIkx_9flyby_net3simNtB2_18SimulatedNetSource8rate_hit
FNDA:114,_RNvNtCsiazm9e7eIkx_9flyby_net3sim5mix64
FNDA:50,_RNvXs0_NtCsiazm9e7eIkx_9flyby_net3simNtB5_18SimulatedNetSourceNtNtCscf8MsWp3cCb_10flyby_core6source6Source4poll
FNDA:59,_RNvXs1_NtCsiazm9e7eIkx_9flyby_net3simNtB5_18SimulatedNetSourceNtNtB7_6source13NetworkSource10poll_batch
FNDA:1,_RNvXs1_NtCsiazm9e7eIkx_9flyby_net3simNtB5_18SimulatedNetSourceNtNtB7_6source13NetworkSource12backend_name
FNDA:9,_RNvXs_NtCsiazm9e7eIkx_9flyby_net3simNtB4_18SimulatedNetSourceNtNtCscf8MsWp3cCb_10flyby_core9lifecycle9Lifecycle4init
FNDA:1,_RNvXs_NtCsiazm9e7eIkx_9flyby_net3simNtB4_18SimulatedNetSourceNtNtCscf8MsWp3cCb_10flyby_core9lifecycle9Lifecycle8shutdown
FNF:32
FNH:29
DA:35,178
DA:36,178
DA:37,178
DA:38,178
DA:39,178
DA:40,178
DA:64,25
DA:65,25
DA:66,25
DA:67,25
DA:68,25
DA:69,25
DA:72,2
DA:73,2
DA:74,1
DA:75,2
DA:77,26
DA:78,26
DA:79,26
DA:80,26
DA:81,26
DA:82,26
DA:83,26
DA:84,26
DA:85,26
DA:86,26
DA:87,26
DA:88,26
DA:89,26
DA:90,26
DA:93,0
DA:94,0
DA:95,0
DA:96,0
DA:104,0
DA:105,0
DA:106,0
DA:109,0
DA:110,0
DA:111,0
DA:113,26
DA:114,26
DA:115,26
DA:116,26
DA:118,26
DA:119,26
DA:120,26
DA:121,26
DA:122,26
DA:123,26
DA:124,26
DA:125,26
DA:126,26
DA:127,26
DA:128,26
DA:130,26
DA:131,26
DA:132,26
DA:133,26
DA:134,26
DA:135,26
DA:137,295
DA:138,295
DA:139,295
DA:140,295
DA:141,295
DA:144,427
DA:145,427
DA:146,427
DA:148,178
DA:149,178
DA:150,178
DA:151,178
DA:153,474
DA:154,474
DA:155,296
DA:156,178
DA:158,178
DA:159,178
DA:160,474
DA:162,136
DA:163,136
DA:164,4
DA:165,132
DA:166,132
DA:167,136
DA:171,24
DA:172,24
DA:173,24
DA:174,24
DA:175,24
DA:176,24
DA:177,24
DA:179,5
DA:180,5
DA:181,5
DA:182,5
DA:188,50
DA:189,50
DA:190,50
DA:191,50
DA:192,50
DA:193,50
DA:194,0
DA:195,0
DA:196,0
DA:197,0
DA:198,0
DA:199,50
DA:203,86
DA:204,86
DA:206,82
DA:207,82
DA:210,82
DA:211,50
DA:212,32
DA:214,32
DA:215,32
DA:216,32
DA:217,32
DA:218,32
DA:220,32
DA:221,392
DA:222,91
DA:223,91
DA:224,91
DA:225,91
DA:226,301
DA:228,301
DA:229,6
DA:230,6
DA:231,6
DA:232,6
DA:233,295
DA:235,295
DA:236,295
DA:237,295
DA:238,295
DA:239,295
DA:240,295
DA:241,295
DA:242,295
DA:243,295
DA:244,295
DA:245,295
DA:246,295
DA:247,0
DA:248,0
DA:249,0
DA:250,0
DA:252,295
DA:255,32
DA:256,32
DA:257,32
DA:258,32
DA:259,32
DA:260,32
DA:261,32
DA:262,32
DA:263,32
DA:264,3
DA:265,3
DA:266,29
DA:268,32
DA:269,86
DA:271,2
DA:272,2
DA:273,2
DA:281,6
DA:282,6
DA:283,6
DA:285,7
DA:286,7
DA:287,7
DA:290,1
DA:291,1
DA:292,1
DA:293,1
DA:294,1
DA:295,1
DA:296,1
DA:297,1
DA:300,1
DA:301,1
DA:302,1
DA:303,1
DA:304,1
DA:305,1
DA:306,1
DA:307,1
DA:308,1
DA:309,32
DA:310,32
DA:312,1
DA:315,1
DA:316,1
DA:317,1
DA:318,1
DA:319,1
DA:321,1
DA:322,32
DA:323,32
DA:324,32
DA:325,31
DA:326,1
DA:327,32
DA:329,1
DA:332,1
DA:333,1
DA:334,1
DA:335,1
DA:336,1
DA:337,1
DA:340,1
DA:341,1
DA:342,1
DA:343,1
DA:344,1
DA:345,1
DA:346,1
DA:349,1
DA:350,1
DA:351,1
DA:352,1
DA:353,1
DA:354,1
DA:355,1
DA:356,1
DA:357,1
DA:358,1
DA:359,1
DA:360,1
DA:361,1
DA:364,1
DA:365,1
DA:366,1
DA:367,1
DA:368,1
DA:369,1
DA:370,1
DA:371,1
DA:372,1
DA:373,1
DA:374,1
DA:375,1
DA:376,1
DA:377,1
DA:380,1
DA:381,1
DA:382,1
DA:383,1
DA:384,1
DA:385,1
DA:386,1
DA:387,1
DA:388,1
DA:389,1
DA:390,50
DA:391,50
DA:392,50
DA:394,1
DA:395,1
DA:398,1
DA:399,1
DA:400,1
DA:401,1
DA:402,1
DA:403,1
DA:404,1
DA:405,1
DA:406,1
DA:409,1
DA:410,1
DA:411,1
DA:412,1
DA:413,1
DA:414,1
DA:415,1
DA:416,1
DA:417,1
DA:418,1
DA:419,1
DA:420,1
DA:421,1
DA:424,1
DA:425,1
DA:426,1
DA:427,1
DA:430,1
DA:431,1
DA:432,1
DA:433,1
DA:434,1
DA:435,1
DA:436,1
BRF:0
BRH:0
LF:295
LH:276
end_of_record
SF:/Users/thanos/work/flyby/crates/flyby-net/src/source.rs
FN:63,_RNvYpNtNtCsiazm9e7eIkx_9flyby_net6source13NetworkSource19backpressure_policyB7_
FNDA:0,_RNvYpNtNtCsiazm9e7eIkx_9flyby_net6source13NetworkSource19backpressure_policyB7_
FNF:1
FNH:0
DA:63,0
DA:64,0
DA:65,0
BRF:0
BRH:0
LF:3
LH:0
end_of_record
SF:/Users/thanos/work/flyby/crates/flyby-storage/src/batch.rs
FN:121,_RNvMNtCshMj2EFajhOT_13flyby_storage5batchNtB2_14RawRecordBatch10record_mut
FN:87,_RNvMNtCshMj2EFajhOT_13flyby_storage5batchNtB2_14RawRecordBatch15max_record_size
FN:104,_RNvMNtCshMj2EFajhOT_13flyby_storage5batchNtB2_14RawRecordBatch3len
FN:66,_RNvMNtCshMj2EFajhOT_13flyby_storage5batchNtB2_14RawRecordBatch3new
FN:140,_RNvMNtCshMj2EFajhOT_13flyby_storage5batchNtB2_14RawRecordBatch4push
FN:94,_RNvMNtCshMj2EFajhOT_13flyby_storage5batchNtB2_14RawRecordBatch5reset
FN:114,_RNvMNtCshMj2EFajhOT_13flyby_storage5batchNtB2_14RawRecordBatch7records
FN:99,_RNvMNtCshMj2EFajhOT_13flyby_storage5batchNtB2_14RawRecordBatch8capacity
FN:109,_RNvMNtCshMj2EFajhOT_13flyby_storage5batchNtB2_14RawRecordBatch8is_empty
FN:130,_RNvMNtCshMj2EFajhOT_13flyby_storage5batchNtB2_14RawRecordBatch8truncate
FN:158,_RNvMNtCshMj2EFajhOT_13flyby_storage5batchNtB2_14RawRecordBatch8try_push
FN:72,_RNCNvMNtCshMj2EFajhOT_13flyby_storage5batchNtB4_14RawRecordBatch3new0B6_
FN:115,_RNCNvMNtCshMj2EFajhOT_13flyby_storage5batchNtB4_14RawRecordBatch7records0Cs47HsRTND2zd_11file_source
FN:115,_RNCNvMNtCshMj2EFajhOT_13flyby_storage5batchNtB4_14RawRecordBatch7records0B6_
FN:115,_RNCNvMNtCshMj2EFajhOT_13flyby_storage5batchNtB4_14RawRecordBatch7records0CsgBpleClnEuB_15flyby_simulator
FN:179,_RNvNtNtCsaY8j7BoaK8w_13flyby_storage5batch5testss_16push_and_iterate
FN:206,_RNvNtNtCsaY8j7BoaK8w_13flyby_storage5batch5testss_18reset_clears_count
FN:196,_RNvNtNtCsaY8j7BoaK8w_13flyby_storage5batch5testss_23full_batch_returns_full
FN:231,_RNvNtNtCsaY8j7BoaK8w_13flyby_storage5batch5testss_25rejects_oversized_records
FN:219,_RNvNtNtCsaY8j7BoaK8w_13flyby_storage5batch5testss_26records_read_is_cumulative
FN:72,_RNCNvMNtCsaY8j7BoaK8w_13flyby_storage5batchNtB4_14RawRecordBatch3new0B6_
FN:115,_RNCNvMNtCsaY8j7BoaK8w_13flyby_storage5batchNtB4_14RawRecordBatch7records0B6_
FN:121,_RNvMNtCsaY8j7BoaK8w_13flyby_storage5batchNtB2_14RawRecordBatch10record_mut
FN:109,_RNvMNtCsaY8j7BoaK8w_13flyby_storage5batchNtB2_14RawRecordBatch8is_empty
FN:130,_RNvMNtCsaY8j7BoaK8w_13flyby_storage5batchNtB2_14RawRecordBatch8truncate
FN:87,_RNvMNtCsaY8j7BoaK8w_13flyby_storage5batchNtB2_14RawRecordBatch15max_record_size
FN:104,_RNvMNtCsaY8j7BoaK8w_13flyby_storage5batchNtB2_14RawRecordBatch3len
FN:66,_RNvMNtCsaY8j7BoaK8w_13flyby_storage5batchNtB2_14RawRecordBatch3new
FN:140,_RNvMNtCsaY8j7BoaK8w_13flyby_storage5batchNtB2_14RawRecordBatch4push
FN:94,_RNvMNtCsaY8j7BoaK8w_13flyby_storage5batchNtB2_14RawRecordBatch5reset
FN:114,_RNvMNtCsaY8j7BoaK8w_13flyby_storage5batchNtB2_14RawRecordBatch7records
FN:99,_RNvMNtCsaY8j7BoaK8w_13flyby_storage5batchNtB2_14RawRecordBatch8capacity
FN:158,_RNvMNtCsaY8j7BoaK8w_13flyby_storage5batchNtB2_14RawRecordBatch8try_push
FNDA:0,_RNvMNtCshMj2EFajhOT_13flyby_storage5batchNtB2_14RawRecordBatch10record_mut
FNDA:76,_RNvMNtCshMj2EFajhOT_13flyby_storage5batchNtB2_14RawRecordBatch15max_record_size
FNDA:183,_RNvMNtCshMj2EFajhOT_13flyby_storage5batchNtB2_14RawRecordBatch3len
FNDA:30,_RNvMNtCshMj2EFajhOT_13flyby_storage5batchNtB2_14RawRecordBatch3new
FNDA:82,_RNvMNtCshMj2EFajhOT_13flyby_storage5batchNtB2_14RawRecordBatch4push
FNDA:9,_RNvMNtCshMj2EFajhOT_13flyby_storage5batchNtB2_14RawRecordBatch5reset
FNDA:11,_RNvMNtCshMj2EFajhOT_13flyby_storage5batchNtB2_14RawRecordBatch7records
FNDA:132,_RNvMNtCshMj2EFajhOT_13flyby_storage5batchNtB2_14RawRecordBatch8capacity
FNDA:1,_RNvMNtCshMj2EFajhOT_13flyby_storage5batchNtB2_14RawRecordBatch8is_empty
FNDA:0,_RNvMNtCshMj2EFajhOT_13flyby_storage5batchNtB2_14RawRecordBatch8truncate
FNDA:76,_RNvMNtCshMj2EFajhOT_13flyby_storage5batchNtB2_14RawRecordBatch8try_push
FNDA:1472,_RNCNvMNtCshMj2EFajhOT_13flyby_storage5batchNtB4_14RawRecordBatch3new0B6_
FNDA:23,_RNCNvMNtCshMj2EFajhOT_13flyby_storage5batchNtB4_14RawRecordBatch7records0Cs47HsRTND2zd_11file_source
FNDA:0,_RNCNvMNtCshMj2EFajhOT_13flyby_storage5batchNtB4_14RawRecordBatch7records0B6_
FNDA:14,_RNCNvMNtCshMj2EFajhOT_13flyby_storage5batchNtB4_14RawRecordBatch7records0CsgBpleClnEuB_15flyby_simulator
FNDA:1,_RNvNtNtCsaY8j7BoaK8w_13flyby_storage5batch5testss_16push_and_iterate
FNDA:1,_RNvNtNtCsaY8j7BoaK8w_13flyby_storage5batch5testss_18reset_clears_count
FNDA:1,_RNvNtNtCsaY8j7BoaK8w_13flyby_storage5batch5testss_23full_batch_returns_full
FNDA:1,_RNvNtNtCsaY8j7BoaK8w_13flyby_storage5batch5testss_25rejects_oversized_records
FNDA:1,_RNvNtNtCsaY8j7BoaK8w_13flyby_storage5batch5testss_26records_read_is_cumulative
FNDA:374,_RNCNvMNtCsaY8j7BoaK8w_13flyby_storage5batchNtB4_14RawRecordBatch3new0B6_
FNDA:10,_RNCNvMNtCsaY8j7BoaK8w_13flyby_storage5batchNtB4_14RawRecordBatch7records0B6_
FNDA:0,_RNvMNtCsaY8j7BoaK8w_13flyby_storage5batchNtB2_14RawRecordBatch10record_mut
FNDA:0,_RNvMNtCsaY8j7BoaK8w_13flyby_storage5batchNtB2_14RawRecordBatch8is_empty
FNDA:0,_RNvMNtCsaY8j7BoaK8w_13flyby_storage5batchNtB2_14RawRecordBatch8truncate
FNDA:22,_RNvMNtCsaY8j7BoaK8w_13flyby_storage5batchNtB2_14RawRecordBatch15max_record_size
FNDA:72,_RNvMNtCsaY8j7BoaK8w_13flyby_storage5batchNtB2_14RawRecordBatch3len
FNDA:21,_RNvMNtCsaY8j7BoaK8w_13flyby_storage5batchNtB2_14RawRecordBatch3new
FNDA:32,_RNvMNtCsaY8j7BoaK8w_13flyby_storage5batchNtB2_14RawRecordBatch4push
FNDA:4,_RNvMNtCsaY8j7BoaK8w_13flyby_storage5batchNtB2_14RawRecordBatch5reset
FNDA:5,_RNvMNtCsaY8j7BoaK8w_13flyby_storage5batchNtB2_14RawRecordBatch7records
FNDA:49,_RNvMNtCsaY8j7BoaK8w_13flyby_storage5batchNtB2_14RawRecordBatch8capacity
FNDA:21,_RNvMNtCsaY8j7BoaK8w_13flyby_storage5batchNtB2_14RawRecordBatch8try_push
FNF:18
FNH:16
DA:66,51
DA:67,51
DA:68,51
DA:69,51
DA:72,1846
DA:73,51
DA:74,51
DA:75,51
DA:76,51
DA:77,51
DA:78,51
DA:79,51
DA:80,51
DA:81,51
DA:82,51
DA:83,51
DA:84,51
DA:87,98
DA:88,98
DA:89,98
DA:94,13
DA:95,13
DA:96,13
DA:99,181
DA:100,181
DA:101,181
DA:104,255
DA:105,255
DA:106,255
DA:109,1
DA:110,1
DA:111,1
DA:114,16
DA:115,47
DA:116,16
DA:121,0
DA:122,0
DA:123,0
DA:124,0
DA:125,0
DA:126,0
DA:127,0
DA:130,0
DA:131,0
DA:132,0
DA:133,0
DA:134,0
DA:140,114
DA:141,114
DA:142,1
DA:143,113
DA:144,113
DA:145,2
DA:146,2
DA:147,111
DA:148,111
DA:149,111
DA:150,111
DA:151,111
DA:152,111
DA:153,111
DA:154,111
DA:155,114
DA:158,97
DA:159,97
DA:160,96
DA:161,0
DA:162,1
DA:163,1
DA:164,1
DA:165,1
DA:166,1
DA:167,1
DA:168,1
DA:169,1
DA:171,97
DA:179,1
DA:180,1
DA:181,1
DA:182,1
DA:183,1
DA:184,1
DA:185,1
DA:186,1
DA:187,1
DA:188,1
DA:190,1
DA:191,1
DA:192,1
DA:193,1
DA:196,1
DA:197,1
DA:198,1
DA:199,1
DA:200,1
DA:201,1
DA:202,1
DA:203,1
DA:206,1
DA:207,1
DA:208,1
DA:209,1
DA:210,1
DA:211,1
DA:212,1
DA:213,1
DA:214,1
DA:215,1
DA:216,1
DA:219,1
DA:220,1
DA:221,1
DA:222,1
DA:223,1
DA:224,1
DA:225,1
DA:226,1
DA:227,1
DA:228,1
DA:231,1
DA:232,1
DA:233,1
DA:234,1
DA:235,1
DA:236,1
DA:237,1
DA:238,1
BRF:0
BRH:0
LF:129
LH:116
end_of_record
SF:/Users/thanos/work/flyby/crates/flyby-storage/src/config.rs
FN:74,_RNvMNtCshMj2EFajhOT_13flyby_storage6configNtB2_10FileConfig8validate
FN:69,_RNvMNtCshMj2EFajhOT_13flyby_storage6configNtB2_10FileConfig9new_batch
FN:153,_RNvXs0_NtCshMj2EFajhOT_13flyby_storage6configNtB5_13IoUringConfigNtNtCsl8K0bEFm1U0_4core7default7Default7default
FN:193,_RNvXs1_NtCshMj2EFajhOT_13flyby_storage6configNtB5_10SpdkConfigNtNtCsl8K0bEFm1U0_4core7default7Default7default
FN:89,_RNvXs_NtCshMj2EFajhOT_13flyby_storage6configNtB4_10FileConfigNtNtCsl8K0bEFm1U0_4core7default7Default7default
FN:69,_RNvMNtCsaY8j7BoaK8w_13flyby_storage6configNtB2_10FileConfig9new_batch
FN:153,_RNvXs0_NtCsaY8j7BoaK8w_13flyby_storage6configNtB5_13IoUringConfigNtNtCsl8K0bEFm1U0_4core7default7Default7default
FN:193,_RNvXs1_NtCsaY8j7BoaK8w_13flyby_storage6configNtB5_10SpdkConfigNtNtCsl8K0bEFm1U0_4core7default7Default7default
FN:89,_RNvXs_NtCsaY8j7BoaK8w_13flyby_storage6configNtB4_10FileConfigNtNtCsl8K0bEFm1U0_4core7default7Default7default
FN:74,_RNvMNtCsaY8j7BoaK8w_13flyby_storage6configNtB2_10FileConfig8validate
FN:208,_RNvNtNtCsaY8j7BoaK8w_13flyby_storage6config5testss_20file_config_defaults
FN:225,_RNvNtNtCsaY8j7BoaK8w_13flyby_storage6config5testss_20spdk_config_defaults
FN:217,_RNvNtNtCsaY8j7BoaK8w_13flyby_storage6config5testss_24io_uring_config_defaults
FNDA:0,_RNvMNtCshMj2EFajhOT_13flyby_storage6configNtB2_10FileConfig8validate
FNDA:0,_RNvMNtCshMj2EFajhOT_13flyby_storage6configNtB2_10FileConfig9new_batch
FNDA:0,_RNvXs0_NtCshMj2EFajhOT_13flyby_storage6configNtB5_13IoUringConfigNtNtCsl8K0bEFm1U0_4core7default7Default7default
FNDA:0,_RNvXs1_NtCshMj2EFajhOT_13flyby_storage6configNtB5_10SpdkConfigNtNtCsl8K0bEFm1U0_4core7default7Default7default
FNDA:27,_RNvXs_NtCshMj2EFajhOT_13flyby_storage6configNtB4_10FileConfigNtNtCsl8K0bEFm1U0_4core7default7Default7default
FNDA:2,_RNvMNtCsaY8j7BoaK8w_13flyby_storage6configNtB2_10FileConfig9new_batch
FNDA:3,_RNvXs0_NtCsaY8j7BoaK8w_13flyby_storage6configNtB5_13IoUringConfigNtNtCsl8K0bEFm1U0_4core7default7Default7default
FNDA:3,_RNvXs1_NtCsaY8j7BoaK8w_13flyby_storage6configNtB5_10SpdkConfigNtNtCsl8K0bEFm1U0_4core7default7Default7default
FNDA:16,_RNvXs_NtCsaY8j7BoaK8w_13flyby_storage6configNtB4_10FileConfigNtNtCsl8K0bEFm1U0_4core7default7Default7default
FNDA:0,_RNvMNtCsaY8j7BoaK8w_13flyby_storage6configNtB2_10FileConfig8validate
FNDA:1,_RNvNtNtCsaY8j7BoaK8w_13flyby_storage6config5testss_20file_config_defaults
FNDA:1,_RNvNtNtCsaY8j7BoaK8w_13flyby_storage6config5testss_20spdk_config_defaults
FNDA:1,_RNvNtNtCsaY8j7BoaK8w_13flyby_storage6config5testss_24io_uring_config_defaults
FNF:8
FNH:7
DA:69,2
DA:70,2
DA:71,2
DA:74,0
DA:75,0
DA:76,0
DA:77,0
DA:78,0
DA:79,0
DA:80,0
DA:81,0
DA:82,0
DA:83,0
DA:84,0
DA:85,0
DA:89,43
DA:90,43
DA:91,43
DA:92,43
DA:93,43
DA:94,43
DA:95,43
DA:96,43
DA:97,43
DA:153,3
DA:154,3
DA:155,3
DA:156,3
DA:157,3
DA:158,3
DA:159,3
DA:160,3
DA:193,3
DA:194,3
DA:195,3
DA:196,3
DA:197,3
DA:198,3
DA:199,3
DA:200,3
DA:208,1
DA:209,1
DA:210,1
DA:211,1
DA:212,1
DA:213,1
DA:214,1
DA:217,1
DA:218,1
DA:219,1
DA:220,1
DA:221,1
DA:222,1
DA:225,1
DA:226,1
DA:227,1
DA:228,1
DA:229,1
BRF:0
BRH:0
LF:58
LH:46
end_of_record
SF:/Users/thanos/work/flyby/crates/flyby-storage/src/file.rs
FN:191,_RNCNvMNtCshMj2EFajhOT_13flyby_storage4fileINtB4_10FileSourceNtNtB6_7framing11FixedLengthE10handle_eof0Cs47HsRTND2zd_11file_source
FN:143,_RNCNvMNtCshMj2EFajhOT_13flyby_storage4fileINtB4_10FileSourceNtNtB6_7framing11FixedLengthE8fill_buf0Cs47HsRTND2zd_11file_source
FN:191,_RNCNvMNtCshMj2EFajhOT_13flyby_storage4fileINtB4_10FileSourceNtNtB6_7framing14LengthPrefixedE10handle_eof0Cs47HsRTND2zd_11file_source
FN:143,_RNCNvMNtCshMj2EFajhOT_13flyby_storage4fileINtB4_10FileSourceNtNtB6_7framing14LengthPrefixedE8fill_buf0Cs47HsRTND2zd_11file_source
FN:191,_RNCNvMNtCshMj2EFajhOT_13flyby_storage4fileINtB4_10FileSourceNtNtB6_7framing9DelimiterE10handle_eof0Cs47HsRTND2zd_11file_source
FN:143,_RNCNvMNtCshMj2EFajhOT_13flyby_storage4fileINtB4_10FileSourceNtNtB6_7framing9DelimiterE8fill_buf0Cs47HsRTND2zd_11file_source
FN:257,_RNCNvXs_NtCshMj2EFajhOT_13flyby_storage4fileINtB6_10FileSourceNtNtB8_7framing11FixedLengthENtNtCscf8MsWp3cCb_10flyby_core9lifecycle9Lifecycle4init0Cs47HsRTND2zd_11file_source
FN:257,_RNCNvXs_NtCshMj2EFajhOT_13flyby_storage4fileINtB6_10FileSourceNtNtB8_7framing14LengthPrefixedENtNtCscf8MsWp3cCb_10flyby_core9lifecycle9Lifecycle4init0Cs47HsRTND2zd_11file_source
FN:257,_RNCNvXs_NtCshMj2EFajhOT_13flyby_storage4fileINtB6_10FileSourceNtNtB8_7framing9DelimiterENtNtCscf8MsWp3cCb_10flyby_core9lifecycle9Lifecycle4init0Cs47HsRTND2zd_11file_source
FN:123,_RNvMNtCshMj2EFajhOT_13flyby_storage4fileINtB2_10FileSourceNtNtB4_7framing11FixedLengthE10bytes_readCs47HsRTND2zd_11file_source
FN:160,_RNvMNtCshMj2EFajhOT_13flyby_storage4fileINtB2_10FileSourceNtNtB4_7framing11FixedLengthE10handle_eofCs47HsRTND2zd_11file_source
FN:133,_RNvMNtCshMj2EFajhOT_13flyby_storage4fileINtB2_10FileSourceNtNtB4_7framing11FixedLengthE10loop_countCs47HsRTND2zd_11file_source
FN:128,_RNvMNtCshMj2EFajhOT_13flyby_storage4fileINtB2_10FileSourceNtNtB4_7framing11FixedLengthE12record_indexCs47HsRTND2zd_11file_source
FN:213,_RNvMNtCshMj2EFajhOT_13flyby_storage4fileINtB2_10FileSourceNtNtB4_7framing11FixedLengthE14consume_recordCs47HsRTND2zd_11file_source
FN:93,_RNvMNtCshMj2EFajhOT_13flyby_storage4fileINtB2_10FileSourceNtNtB4_7framing11FixedLengthE3newCs47HsRTND2zd_11file_source
FN:139,_RNvMNtCshMj2EFajhOT_13flyby_storage4fileINtB2_10FileSourceNtNtB4_7framing11FixedLengthE8fill_bufCs47HsRTND2zd_11file_source
FN:160,_RNvMNtCshMj2EFajhOT_13flyby_storage4fileINtB2_10FileSourceNtNtB4_7framing14LengthPrefixedE10handle_eofCs47HsRTND2zd_11file_source
FN:213,_RNvMNtCshMj2EFajhOT_13flyby_storage4fileINtB2_10FileSourceNtNtB4_7framing14LengthPrefixedE14consume_recordCs47HsRTND2zd_11file_source
FN:93,_RNvMNtCshMj2EFajhOT_13flyby_storage4fileINtB2_10FileSourceNtNtB4_7framing14LengthPrefixedE3newCs47HsRTND2zd_11file_source
FN:139,_RNvMNtCshMj2EFajhOT_13flyby_storage4fileINtB2_10FileSourceNtNtB4_7framing14LengthPrefixedE8fill_bufCs47HsRTND2zd_11file_source
FN:160,_RNvMNtCshMj2EFajhOT_13flyby_storage4fileINtB2_10FileSourceNtNtB4_7framing9DelimiterE10handle_eofCs47HsRTND2zd_11file_source
FN:213,_RNvMNtCshMj2EFajhOT_13flyby_storage4fileINtB2_10FileSourceNtNtB4_7framing9DelimiterE14consume_recordCs47HsRTND2zd_11file_source
FN:93,_RNvMNtCshMj2EFajhOT_13flyby_storage4fileINtB2_10FileSourceNtNtB4_7framing9DelimiterE3newCs47HsRTND2zd_11file_source
FN:139,_RNvMNtCshMj2EFajhOT_13flyby_storage4fileINtB2_10FileSourceNtNtB4_7framing9DelimiterE8fill_bufCs47HsRTND2zd_11file_source
FN:287,_RNvXs0_NtCshMj2EFajhOT_13flyby_storage4fileINtB5_10FileSourceNtNtB7_7framing11FixedLengthENtNtB7_6source13StorageSource10poll_batchCs47HsRTND2zd_11file_source
FN:341,_RNvXs0_NtCshMj2EFajhOT_13flyby_storage4fileINtB5_10FileSourceNtNtB7_7framing11FixedLengthENtNtB7_6source13StorageSource12is_exhaustedCs47HsRTND2zd_11file_source
FN:287,_RNvXs0_NtCshMj2EFajhOT_13flyby_storage4fileINtB5_10FileSourceNtNtB7_7framing14LengthPrefixedENtNtB7_6source13StorageSource10poll_batchCs47HsRTND2zd_11file_source
FN:287,_RNvXs0_NtCshMj2EFajhOT_13flyby_storage4fileINtB5_10FileSourceNtNtB7_7framing9DelimiterENtNtB7_6source13StorageSource10poll_batchCs47HsRTND2zd_11file_source
FN:341,_RNvXs0_NtCshMj2EFajhOT_13flyby_storage4fileINtB5_10FileSourceNtNtB7_7framing9DelimiterENtNtB7_6source13StorageSource12is_exhaustedCs47HsRTND2zd_11file_source
FN:256,_RNvXs_NtCshMj2EFajhOT_13flyby_storage4fileINtB4_10FileSourceNtNtB6_7framing11FixedLengthENtNtCscf8MsWp3cCb_10flyby_core9lifecycle9Lifecycle4initCs47HsRTND2zd_11file_source
FN:277,_RNvXs_NtCshMj2EFajhOT_13flyby_storage4fileINtB4_10FileSourceNtNtB6_7framing11FixedLengthENtNtCscf8MsWp3cCb_10flyby_core9lifecycle9Lifecycle8shutdownCs47HsRTND2zd_11file_source
FN:256,_RNvXs_NtCshMj2EFajhOT_13flyby_storage4fileINtB4_10FileSourceNtNtB6_7framing14LengthPrefixedENtNtCscf8MsWp3cCb_10flyby_core9lifecycle9Lifecycle4initCs47HsRTND2zd_11file_source
FN:256,_RNvXs_NtCshMj2EFajhOT_13flyby_storage4fileINtB4_10FileSourceNtNtB6_7framing9DelimiterENtNtCscf8MsWp3cCb_10flyby_core9lifecycle9Lifecycle4initCs47HsRTND2zd_11file_source
FN:191,_RNCNvMNtCshMj2EFajhOT_13flyby_storage4fileINtB4_10FileSourcepE10handle_eof0B6_
FN:143,_RNCNvMNtCshMj2EFajhOT_13flyby_storage4fileINtB4_10FileSourcepE8fill_buf0B6_
FN:257,_RNCNvXININtCshMj2EFajhOT_13flyby_storage4files_0pEINtB7_10FileSourcepENtNtCscf8MsWp3cCb_10flyby_core9lifecycle9Lifecycle4init0B9_
FN:123,_RNvMNtCshMj2EFajhOT_13flyby_storage4fileINtB2_10FileSourcepE10bytes_readB4_
FN:160,_RNvMNtCshMj2EFajhOT_13flyby_storage4fileINtB2_10FileSourcepE10handle_eofB4_
FN:133,_RNvMNtCshMj2EFajhOT_13flyby_storage4fileINtB2_10FileSourcepE10loop_countB4_
FN:128,_RNvMNtCshMj2EFajhOT_13flyby_storage4fileINtB2_10FileSourcepE12record_indexB4_
FN:112,_RNvMNtCshMj2EFajhOT_13flyby_storage4fileINtB2_10FileSourcepE12with_metricsB4_
FN:213,_RNvMNtCshMj2EFajhOT_13flyby_storage4fileINtB2_10FileSourcepE14consume_recordB4_
FN:93,_RNvMNtCshMj2EFajhOT_13flyby_storage4fileINtB2_10FileSourcepE3newB4_
FN:118,_RNvMNtCshMj2EFajhOT_13flyby_storage4fileINtB2_10FileSourcepE6configB4_
FN:139,_RNvMNtCshMj2EFajhOT_13flyby_storage4fileINtB2_10FileSourcepE8fill_bufB4_
FN:287,_RNvXININtCshMj2EFajhOT_13flyby_storage4files0_0pEINtB5_10FileSourcepENtNtB7_6source13StorageSource10poll_batchB7_
FN:337,_RNvXININtCshMj2EFajhOT_13flyby_storage4files0_0pEINtB5_10FileSourcepENtNtB7_6source13StorageSource12backend_nameB7_
FN:341,_RNvXININtCshMj2EFajhOT_13flyby_storage4files0_0pEINtB5_10FileSourcepENtNtB7_6source13StorageSource12is_exhaustedB7_
FN:256,_RNvXININtCshMj2EFajhOT_13flyby_storage4files_0pEINtB5_10FileSourcepENtNtCscf8MsWp3cCb_10flyby_core9lifecycle9Lifecycle4initB7_
FN:277,_RNvXININtCshMj2EFajhOT_13flyby_storage4files_0pEINtB5_10FileSourcepENtNtCscf8MsWp3cCb_10flyby_core9lifecycle9Lifecycle8shutdownB7_
FN:191,_RNCNvMNtCshMj2EFajhOT_13flyby_storage4fileINtB4_10FileSourceNtNtB6_7framing9DelimiterE10handle_eof0CsgBpleClnEuB_15flyby_simulator
FN:143,_RNCNvMNtCshMj2EFajhOT_13flyby_storage4fileINtB4_10FileSourceNtNtB6_7framing9DelimiterE8fill_buf0CsgBpleClnEuB_15flyby_simulator
FN:257,_RNCNvXs_NtCshMj2EFajhOT_13flyby_storage4fileINtB6_10FileSourceNtNtB8_7framing9DelimiterENtNtCscf8MsWp3cCb_10flyby_core9lifecycle9Lifecycle4init0CsgBpleClnEuB_15flyby_simulator
FN:160,_RNvMNtCshMj2EFajhOT_13flyby_storage4fileINtB2_10FileSourceNtNtB4_7framing9DelimiterE10handle_eofCsgBpleClnEuB_15flyby_simulator
FN:213,_RNvMNtCshMj2EFajhOT_13flyby_storage4fileINtB2_10FileSourceNtNtB4_7framing9DelimiterE14consume_recordCsgBpleClnEuB_15flyby_simulator
FN:93,_RNvMNtCshMj2EFajhOT_13flyby_storage4fileINtB2_10FileSourceNtNtB4_7framing9DelimiterE3newCsgBpleClnEuB_15flyby_simulator
FN:139,_RNvMNtCshMj2EFajhOT_13flyby_storage4fileINtB2_10FileSourceNtNtB4_7framing9DelimiterE8fill_bufCsgBpleClnEuB_15flyby_simulator
FN:287,_RNvXs0_NtCshMj2EFajhOT_13flyby_storage4fileINtB5_10FileSourceNtNtB7_7framing9DelimiterENtNtB7_6source13StorageSource10poll_batchCsgBpleClnEuB_15flyby_simulator
FN:341,_RNvXs0_NtCshMj2EFajhOT_13flyby_storage4fileINtB5_10FileSourceNtNtB7_7framing9DelimiterENtNtB7_6source13StorageSource12is_exhaustedCsgBpleClnEuB_15flyby_simulator
FN:256,_RNvXs_NtCshMj2EFajhOT_13flyby_storage4fileINtB4_10FileSourceNtNtB6_7framing9DelimiterENtNtCscf8MsWp3cCb_10flyby_core9lifecycle9Lifecycle4initCsgBpleClnEuB_15flyby_simulator
FN:277,_RNvXs_NtCshMj2EFajhOT_13flyby_storage4fileINtB4_10FileSourceNtNtB6_7framing9DelimiterENtNtCscf8MsWp3cCb_10flyby_core9lifecycle9Lifecycle8shutdownCsgBpleClnEuB_15flyby_simulator
FN:358,_RNvNtNtCsaY8j7BoaK8w_13flyby_storage4file5tests10write_temp
FN:402,_RNvNtNtCsaY8j7BoaK8w_13flyby_storage4file5testss_12stops_at_eof
FN:534,_RNvNtNtCsaY8j7BoaK8w_13flyby_storage4file5testss_23bytes_read_tracks_total
FN:474,_RNvNtNtCsaY8j7BoaK8w_13flyby_storage4file5testss_23oversized_record_errors
FN:416,_RNvNtNtCsaY8j7BoaK8w_13flyby_storage4file5testss_24loops_on_eof_loop_policy
FN:485,_RNvNtNtCsaY8j7BoaK8w_13flyby_storage4file5testss_26follow_returns_zero_at_eof
FN:371,_RNvNtNtCsaY8j7BoaK8w_13flyby_storage4file5testss_26reads_fixed_length_records
FN:545,_RNvNtNtCsaY8j7BoaK8w_13flyby_storage4file5testss_27uninitialized_returns_error
FN:432,_RNvNtNtCsaY8j7BoaK8w_13flyby_storage4file5testss_29empty_file_loop_returns_error
FN:443,_RNvNtNtCsaY8j7BoaK8w_13flyby_storage4file5testss_31partial_file_loop_returns_error
FN:387,_RNvNtNtCsaY8j7BoaK8w_13flyby_storage4file5testss_31reads_newline_delimited_records
FN:455,_RNvNtNtCsaY8j7BoaK8w_13flyby_storage4file5testss_33loop_does_not_splice_partial_tail
FN:500,_RNvNtNtCsaY8j7BoaK8w_13flyby_storage4file5testss_34batch_size_limits_records_per_poll
FN:516,_RNvNtNtCsaY8j7BoaK8w_13flyby_storage4file5testss_34config_new_batch_uses_config_sizes
FN:380,_RNCNvNtNtCsaY8j7BoaK8w_13flyby_storage4file5testss_26reads_fixed_length_records0B7_
FN:396,_RNCNvNtNtCsaY8j7BoaK8w_13flyby_storage4file5testss_31reads_newline_delimited_records0B7_
FN:466,_RNCNvNtNtCsaY8j7BoaK8w_13flyby_storage4file5testss_33loop_does_not_splice_partial_tail0B7_
FN:191,_RNCNvMNtCsaY8j7BoaK8w_13flyby_storage4fileINtB4_10FileSourceNtNtB6_7framing11FixedLengthE10handle_eof0B6_
FN:143,_RNCNvMNtCsaY8j7BoaK8w_13flyby_storage4fileINtB4_10FileSourceNtNtB6_7framing11FixedLengthE8fill_buf0B6_
FN:191,_RNCNvMNtCsaY8j7BoaK8w_13flyby_storage4fileINtB4_10FileSourceNtNtB6_7framing9DelimiterE10handle_eof0B6_
FN:143,_RNCNvMNtCsaY8j7BoaK8w_13flyby_storage4fileINtB4_10FileSourceNtNtB6_7framing9DelimiterE8fill_buf0B6_
FN:257,_RNCNvXs_NtCsaY8j7BoaK8w_13flyby_storage4fileINtB6_10FileSourceNtNtB8_7framing11FixedLengthENtNtCscf8MsWp3cCb_10flyby_core9lifecycle9Lifecycle4init0B8_
FN:257,_RNCNvXs_NtCsaY8j7BoaK8w_13flyby_storage4fileINtB6_10FileSourceNtNtB8_7framing9DelimiterENtNtCscf8MsWp3cCb_10flyby_core9lifecycle9Lifecycle4init0B8_
FN:123,_RNvMNtCsaY8j7BoaK8w_13flyby_storage4fileINtB2_10FileSourceNtNtB4_7framing11FixedLengthE10bytes_readB4_
FN:160,_RNvMNtCsaY8j7BoaK8w_13flyby_storage4fileINtB2_10FileSourceNtNtB4_7framing11FixedLengthE10handle_eofB4_
FN:133,_RNvMNtCsaY8j7BoaK8w_13flyby_storage4fileINtB2_10FileSourceNtNtB4_7framing11FixedLengthE10loop_countB4_
FN:213,_RNvMNtCsaY8j7BoaK8w_13flyby_storage4fileINtB2_10FileSourceNtNtB4_7framing11FixedLengthE14consume_recordB4_
FN:93,_RNvMNtCsaY8j7BoaK8w_13flyby_storage4fileINtB2_10FileSourceNtNtB4_7framing11FixedLengthE3newB4_
FN:139,_RNvMNtCsaY8j7BoaK8w_13flyby_storage4fileINtB2_10FileSourceNtNtB4_7framing11FixedLengthE8fill_bufB4_
FN:160,_RNvMNtCsaY8j7BoaK8w_13flyby_storage4fileINtB2_10FileSourceNtNtB4_7framing9DelimiterE10handle_eofB4_
FN:213,_RNvMNtCsaY8j7BoaK8w_13flyby_storage4fileINtB2_10FileSourceNtNtB4_7framing9DelimiterE14consume_recordB4_
FN:93,_RNvMNtCsaY8j7BoaK8w_13flyby_storage4fileINtB2_10FileSourceNtNtB4_7framing9DelimiterE3newB4_
FN:139,_RNvMNtCsaY8j7BoaK8w_13flyby_storage4fileINtB2_10FileSourceNtNtB4_7framing9DelimiterE8fill_bufB4_
FN:287,_RNvXs0_NtCsaY8j7BoaK8w_13flyby_storage4fileINtB5_10FileSourceNtNtB7_7framing11FixedLengthENtNtB7_6source13StorageSource10poll_batchB7_
FN:341,_RNvXs0_NtCsaY8j7BoaK8w_13flyby_storage4fileINtB5_10FileSourceNtNtB7_7framing11FixedLengthENtNtB7_6source13StorageSource12is_exhaustedB7_
FN:287,_RNvXs0_NtCsaY8j7BoaK8w_13flyby_storage4fileINtB5_10FileSourceNtNtB7_7framing9DelimiterENtNtB7_6source13StorageSource10poll_batchB7_
FN:256,_RNvXs_NtCsaY8j7BoaK8w_13flyby_storage4fileINtB4_10FileSourceNtNtB6_7framing11FixedLengthENtNtCscf8MsWp3cCb_10flyby_core9lifecycle9Lifecycle4initB6_
FN:256,_RNvXs_NtCsaY8j7BoaK8w_13flyby_storage4fileINtB4_10FileSourceNtNtB6_7framing9DelimiterENtNtCscf8MsWp3cCb_10flyby_core9lifecycle9Lifecycle4initB6_
FN:128,_RNvMNtCsaY8j7BoaK8w_13flyby_storage4fileINtB2_10FileSourcepE12record_indexB4_
FN:112,_RNvMNtCsaY8j7BoaK8w_13flyby_storage4fileINtB2_10FileSourcepE12with_metricsB4_
FN:118,_RNvMNtCsaY8j7BoaK8w_13flyby_storage4fileINtB2_10FileSourcepE6configB4_
FN:347,_RNvNtCsaY8j7BoaK8w_13flyby_storage4file23default_follow_interval
FN:337,_RNvXININtCsaY8j7BoaK8w_13flyby_storage4files0_0pEINtB5_10FileSourcepENtNtB7_6source13StorageSource12backend_nameB7_
FN:277,_RNvXININtCsaY8j7BoaK8w_13flyby_storage4files_0pEINtB5_10FileSourcepENtNtCscf8MsWp3cCb_10flyby_core9lifecycle9Lifecycle8shutdownB7_
FNDA:0,_RNCNvMNtCshMj2EFajhOT_13flyby_storage4fileINtB4_10FileSourceNtNtB6_7framing11FixedLengthE10handle_eof0Cs47HsRTND2zd_11file_source
FNDA:0,_RNCNvMNtCshMj2EFajhOT_13flyby_storage4fileINtB4_10FileSourceNtNtB6_7framing11FixedLengthE8fill_buf0Cs47HsRTND2zd_11file_source
FNDA:0,_RNCNvMNtCshMj2EFajhOT_13flyby_storage4fileINtB4_10FileSourceNtNtB6_7framing14LengthPrefixedE10handle_eof0Cs47HsRTND2zd_11file_source
FNDA:0,_RNCNvMNtCshMj2EFajhOT_13flyby_storage4fileINtB4_10FileSourceNtNtB6_7framing14LengthPrefixedE8fill_buf0Cs47HsRTND2zd_11file_source
FNDA:0,_RNCNvMNtCshMj2EFajhOT_13flyby_storage4fileINtB4_10FileSourceNtNtB6_7framing9DelimiterE10handle_eof0Cs47HsRTND2zd_11file_source
FNDA:0,_RNCNvMNtCshMj2EFajhOT_13flyby_storage4fileINtB4_10FileSourceNtNtB6_7framing9DelimiterE8fill_buf0Cs47HsRTND2zd_11file_source
FNDA:1,_RNCNvXs_NtCshMj2EFajhOT_13flyby_storage4fileINtB6_10FileSourceNtNtB8_7framing11FixedLengthENtNtCscf8MsWp3cCb_10flyby_core9lifecycle9Lifecycle4init0Cs47HsRTND2zd_11file_source
FNDA:0,_RNCNvXs_NtCshMj2EFajhOT_13flyby_storage4fileINtB6_10FileSourceNtNtB8_7framing14LengthPrefixedENtNtCscf8MsWp3cCb_10flyby_core9lifecycle9Lifecycle4init0Cs47HsRTND2zd_11file_source
FNDA:0,_RNCNvXs_NtCshMj2EFajhOT_13flyby_storage4fileINtB6_10FileSourceNtNtB8_7framing9DelimiterENtNtCscf8MsWp3cCb_10flyby_core9lifecycle9Lifecycle4init0Cs47HsRTND2zd_11file_source
FNDA:1,_RNvMNtCshMj2EFajhOT_13flyby_storage4fileINtB2_10FileSourceNtNtB4_7framing11FixedLengthE10bytes_readCs47HsRTND2zd_11file_source
FNDA:17,_RNvMNtCshMj2EFajhOT_13flyby_storage4fileINtB2_10FileSourceNtNtB4_7framing11FixedLengthE10handle_eofCs47HsRTND2zd_11file_source
FNDA:3,_RNvMNtCshMj2EFajhOT_13flyby_storage4fileINtB2_10FileSourceNtNtB4_7framing11FixedLengthE10loop_countCs47HsRTND2zd_11file_source
FNDA:1,_RNvMNtCshMj2EFajhOT_13flyby_storage4fileINtB2_10FileSourceNtNtB4_7framing11FixedLengthE12record_indexCs47HsRTND2zd_11file_source
FNDA:55,_RNvMNtCshMj2EFajhOT_13flyby_storage4fileINtB2_10FileSourceNtNtB4_7framing11FixedLengthE14consume_recordCs47HsRTND2zd_11file_source
FNDA:12,_RNvMNtCshMj2EFajhOT_13flyby_storage4fileINtB2_10FileSourceNtNtB4_7framing11FixedLengthE3newCs47HsRTND2zd_11file_source
FNDA:33,_RNvMNtCshMj2EFajhOT_13flyby_storage4fileINtB2_10FileSourceNtNtB4_7framing11FixedLengthE8fill_bufCs47HsRTND2zd_11file_source
FNDA:1,_RNvMNtCshMj2EFajhOT_13flyby_storage4fileINtB2_10FileSourceNtNtB4_7framing14LengthPrefixedE10handle_eofCs47HsRTND2zd_11file_source
FNDA:2,_RNvMNtCshMj2EFajhOT_13flyby_storage4fileINtB2_10FileSourceNtNtB4_7framing14LengthPrefixedE14consume_recordCs47HsRTND2zd_11file_source
FNDA:2,_RNvMNtCshMj2EFajhOT_13flyby_storage4fileINtB2_10FileSourceNtNtB4_7framing14LengthPrefixedE3newCs47HsRTND2zd_11file_source
FNDA:3,_RNvMNtCshMj2EFajhOT_13flyby_storage4fileINtB2_10FileSourceNtNtB4_7framing14LengthPrefixedE8fill_bufCs47HsRTND2zd_11file_source
FNDA:2,_RNvMNtCshMj2EFajhOT_13flyby_storage4fileINtB2_10FileSourceNtNtB4_7framing9DelimiterE10handle_eofCs47HsRTND2zd_11file_source
FNDA:5,_RNvMNtCshMj2EFajhOT_13flyby_storage4fileINtB2_10FileSourceNtNtB4_7framing9DelimiterE14consume_recordCs47HsRTND2zd_11file_source
FNDA:3,_RNvMNtCshMj2EFajhOT_13flyby_storage4fileINtB2_10FileSourceNtNtB4_7framing9DelimiterE3newCs47HsRTND2zd_11file_source
FNDA:5,_RNvMNtCshMj2EFajhOT_13flyby_storage4fileINtB2_10FileSourceNtNtB4_7framing9DelimiterE8fill_bufCs47HsRTND2zd_11file_source
FNDA:19,_RNvXs0_NtCshMj2EFajhOT_13flyby_storage4fileINtB5_10FileSourceNtNtB7_7framing11FixedLengthENtNtB7_6source13StorageSource10poll_batchCs47HsRTND2zd_11file_source
FNDA:10,_RNvXs0_NtCshMj2EFajhOT_13flyby_storage4fileINtB5_10FileSourceNtNtB7_7framing11FixedLengthENtNtB7_6source13StorageSource12is_exhaustedCs47HsRTND2zd_11file_source
FNDA:2,_RNvXs0_NtCshMj2EFajhOT_13flyby_storage4fileINtB5_10FileSourceNtNtB7_7framing14LengthPrefixedENtNtB7_6source13StorageSource10poll_batchCs47HsRTND2zd_11file_source
FNDA:3,_RNvXs0_NtCshMj2EFajhOT_13flyby_storage4fileINtB5_10FileSourceNtNtB7_7framing9DelimiterENtNtB7_6source13StorageSource10poll_batchCs47HsRTND2zd_11file_source
FNDA:1,_RNvXs0_NtCshMj2EFajhOT_13flyby_storage4fileINtB5_10FileSourceNtNtB7_7framing9DelimiterENtNtB7_6source13StorageSource12is_exhaustedCs47HsRTND2zd_11file_source
FNDA:12,_RNvXs_NtCshMj2EFajhOT_13flyby_storage4fileINtB4_10FileSourceNtNtB6_7framing11FixedLengthENtNtCscf8MsWp3cCb_10flyby_core9lifecycle9Lifecycle4initCs47HsRTND2zd_11file_source
FNDA:1,_RNvXs_NtCshMj2EFajhOT_13flyby_storage4fileINtB4_10FileSourceNtNtB6_7framing11FixedLengthENtNtCscf8MsWp3cCb_10flyby_core9lifecycle9Lifecycle8shutdownCs47HsRTND2zd_11file_source
FNDA:2,_RNvXs_NtCshMj2EFajhOT_13flyby_storage4fileINtB4_10FileSourceNtNtB6_7framing14LengthPrefixedENtNtCscf8MsWp3cCb_10flyby_core9lifecycle9Lifecycle4initCs47HsRTND2zd_11file_source
FNDA:3,_RNvXs_NtCshMj2EFajhOT_13flyby_storage4fileINtB4_10FileSourceNtNtB6_7framing9DelimiterENtNtCscf8MsWp3cCb_10flyby_core9lifecycle9Lifecycle4initCs47HsRTND2zd_11file_source
FNDA:0,_RNCNvMNtCshMj2EFajhOT_13flyby_storage4fileINtB4_10FileSourcepE10handle_eof0B6_
FNDA:0,_RNCNvMNtCshMj2EFajhOT_13flyby_storage4fileINtB4_10FileSourcepE8fill_buf0B6_
FNDA:0,_RNCNvXININtCshMj2EFajhOT_13flyby_storage4files_0pEINtB7_10FileSourcepENtNtCscf8MsWp3cCb_10flyby_core9lifecycle9Lifecycle4init0B9_
FNDA:0,_RNvMNtCshMj2EFajhOT_13flyby_storage4fileINtB2_10FileSourcepE10bytes_readB4_
FNDA:0,_RNvMNtCshMj2EFajhOT_13flyby_storage4fileINtB2_10FileSourcepE10handle_eofB4_
FNDA:0,_RNvMNtCshMj2EFajhOT_13flyby_storage4fileINtB2_10FileSourcepE10loop_countB4_
FNDA:0,_RNvMNtCshMj2EFajhOT_13flyby_storage4fileINtB2_10FileSourcepE12record_indexB4_
FNDA:0,_RNvMNtCshMj2EFajhOT_13flyby_storage4fileINtB2_10FileSourcepE12with_metricsB4_
FNDA:0,_RNvMNtCshMj2EFajhOT_13flyby_storage4fileINtB2_10FileSourcepE14consume_recordB4_
FNDA:0,_RNvMNtCshMj2EFajhOT_13flyby_storage4fileINtB2_10FileSourcepE3newB4_
FNDA:0,_RNvMNtCshMj2EFajhOT_13flyby_storage4fileINtB2_10FileSourcepE6configB4_
FNDA:0,_RNvMNtCshMj2EFajhOT_13flyby_storage4fileINtB2_10FileSourcepE8fill_bufB4_
FNDA:0,_RNvXININtCshMj2EFajhOT_13flyby_storage4files0_0pEINtB5_10FileSourcepENtNtB7_6source13StorageSource10poll_batchB7_
FNDA:0,_RNvXININtCshMj2EFajhOT_13flyby_storage4files0_0pEINtB5_10FileSourcepENtNtB7_6source13StorageSource12backend_nameB7_
FNDA:0,_RNvXININtCshMj2EFajhOT_13flyby_storage4files0_0pEINtB5_10FileSourcepENtNtB7_6source13StorageSource12is_exhaustedB7_
FNDA:0,_RNvXININtCshMj2EFajhOT_13flyby_storage4files_0pEINtB5_10FileSourcepENtNtCscf8MsWp3cCb_10flyby_core9lifecycle9Lifecycle4initB7_
FNDA:0,_RNvXININtCshMj2EFajhOT_13flyby_storage4files_0pEINtB5_10FileSourcepENtNtCscf8MsWp3cCb_10flyby_core9lifecycle9Lifecycle8shutdownB7_
FNDA:0,_RNCNvMNtCshMj2EFajhOT_13flyby_storage4fileINtB4_10FileSourceNtNtB6_7framing9DelimiterE10handle_eof0CsgBpleClnEuB_15flyby_simulator
FNDA:0,_RNCNvMNtCshMj2EFajhOT_13flyby_storage4fileINtB4_10FileSourceNtNtB6_7framing9DelimiterE8fill_buf0CsgBpleClnEuB_15flyby_simulator
FNDA:0,_RNCNvXs_NtCshMj2EFajhOT_13flyby_storage4fileINtB6_10FileSourceNtNtB8_7framing9DelimiterENtNtCscf8MsWp3cCb_10flyby_core9lifecycle9Lifecycle4init0CsgBpleClnEuB_15flyby_simulator
FNDA:4,_RNvMNtCshMj2EFajhOT_13flyby_storage4fileINtB2_10FileSourceNtNtB4_7framing9DelimiterE10handle_eofCsgBpleClnEuB_15flyby_simulator
FNDA:14,_RNvMNtCshMj2EFajhOT_13flyby_storage4fileINtB2_10FileSourceNtNtB4_7framing9DelimiterE14consume_recordCsgBpleClnEuB_15flyby_simulator
FNDA:5,_RNvMNtCshMj2EFajhOT_13flyby_storage4fileINtB2_10FileSourceNtNtB4_7framing9DelimiterE3newCsgBpleClnEuB_15flyby_simulator
FNDA:8,_RNvMNtCshMj2EFajhOT_13flyby_storage4fileINtB2_10FileSourceNtNtB4_7framing9DelimiterE8fill_bufCsgBpleClnEuB_15flyby_simulator
FNDA:5,_RNvXs0_NtCshMj2EFajhOT_13flyby_storage4fileINtB5_10FileSourceNtNtB7_7framing9DelimiterENtNtB7_6source13StorageSource10poll_batchCsgBpleClnEuB_15flyby_simulator
FNDA:1,_RNvXs0_NtCshMj2EFajhOT_13flyby_storage4fileINtB5_10FileSourceNtNtB7_7framing9DelimiterENtNtB7_6source13StorageSource12is_exhaustedCsgBpleClnEuB_15flyby_simulator
FNDA:5,_RNvXs_NtCshMj2EFajhOT_13flyby_storage4fileINtB4_10FileSourceNtNtB6_7framing9DelimiterENtNtCscf8MsWp3cCb_10flyby_core9lifecycle9Lifecycle4initCsgBpleClnEuB_15flyby_simulator
FNDA:1,_RNvXs_NtCshMj2EFajhOT_13flyby_storage4fileINtB4_10FileSourceNtNtB6_7framing9DelimiterENtNtCscf8MsWp3cCb_10flyby_core9lifecycle9Lifecycle8shutdownCsgBpleClnEuB_15flyby_simulator
FNDA:12,_RNvNtNtCsaY8j7BoaK8w_13flyby_storage4file5tests10write_temp
FNDA:1,_RNvNtNtCsaY8j7BoaK8w_13flyby_storage4file5testss_12stops_at_eof
FNDA:1,_RNvNtNtCsaY8j7BoaK8w_13flyby_storage4file5testss_23bytes_read_tracks_total
FNDA:1,_RNvNtNtCsaY8j7BoaK8w_13flyby_storage4file5testss_23oversized_record_errors
FNDA:1,_RNvNtNtCsaY8j7BoaK8w_13flyby_storage4file5testss_24loops_on_eof_loop_policy
FNDA:1,_RNvNtNtCsaY8j7BoaK8w_13flyby_storage4file5testss_26follow_returns_zero_at_eof
FNDA:1,_RNvNtNtCsaY8j7BoaK8w_13flyby_storage4file5testss_26reads_fixed_length_records
FNDA:1,_RNvNtNtCsaY8j7BoaK8w_13flyby_storage4file5testss_27uninitialized_returns_error
FNDA:1,_RNvNtNtCsaY8j7BoaK8w_13flyby_storage4file5testss_29empty_file_loop_returns_error
FNDA:1,_RNvNtNtCsaY8j7BoaK8w_13flyby_storage4file5testss_31partial_file_loop_returns_error
FNDA:1,_RNvNtNtCsaY8j7BoaK8w_13flyby_storage4file5testss_31reads_newline_delimited_records
FNDA:1,_RNvNtNtCsaY8j7BoaK8w_13flyby_storage4file5testss_33loop_does_not_splice_partial_tail
FNDA:1,_RNvNtNtCsaY8j7BoaK8w_13flyby_storage4file5testss_34batch_size_limits_records_per_poll
FNDA:1,_RNvNtNtCsaY8j7BoaK8w_13flyby_storage4file5testss_34config_new_batch_uses_config_sizes
FNDA:3,_RNCNvNtNtCsaY8j7BoaK8w_13flyby_storage4file5testss_26reads_fixed_length_records0B7_
FNDA:3,_RNCNvNtNtCsaY8j7BoaK8w_13flyby_storage4file5testss_31reads_newline_delimited_records0B7_
FNDA:2,_RNCNvNtNtCsaY8j7BoaK8w_13flyby_storage4file5testss_33loop_does_not_splice_partial_tail0B7_
FNDA:0,_RNCNvMNtCsaY8j7BoaK8w_13flyby_storage4fileINtB4_10FileSourceNtNtB6_7framing11FixedLengthE10handle_eof0B6_
FNDA:0,_RNCNvMNtCsaY8j7BoaK8w_13flyby_storage4fileINtB4_10FileSourceNtNtB6_7framing11FixedLengthE8fill_buf0B6_
FNDA:0,_RNCNvMNtCsaY8j7BoaK8w_13flyby_storage4fileINtB4_10FileSourceNtNtB6_7framing9DelimiterE10handle_eof0B6_
FNDA:0,_RNCNvMNtCsaY8j7BoaK8w_13flyby_storage4fileINtB4_10FileSourceNtNtB6_7framing9DelimiterE8fill_buf0B6_
FNDA:0,_RNCNvXs_NtCsaY8j7BoaK8w_13flyby_storage4fileINtB6_10FileSourceNtNtB8_7framing11FixedLengthENtNtCscf8MsWp3cCb_10flyby_core9lifecycle9Lifecycle4init0B8_
FNDA:0,_RNCNvXs_NtCsaY8j7BoaK8w_13flyby_storage4fileINtB6_10FileSourceNtNtB8_7framing9DelimiterENtNtCscf8MsWp3cCb_10flyby_core9lifecycle9Lifecycle4init0B8_
FNDA:1,_RNvMNtCsaY8j7BoaK8w_13flyby_storage4fileINtB2_10FileSourceNtNtB4_7framing11FixedLengthE10bytes_readB4_
FNDA:9,_RNvMNtCsaY8j7BoaK8w_13flyby_storage4fileINtB2_10FileSourceNtNtB4_7framing11FixedLengthE10handle_eofB4_
FNDA:1,_RNvMNtCsaY8j7BoaK8w_13flyby_storage4fileINtB2_10FileSourceNtNtB4_7framing11FixedLengthE10loop_countB4_
FNDA:18,_RNvMNtCsaY8j7BoaK8w_13flyby_storage4fileINtB2_10FileSourceNtNtB4_7framing11FixedLengthE14consume_recordB4_
FNDA:12,_RNvMNtCsaY8j7BoaK8w_13flyby_storage4fileINtB2_10FileSourceNtNtB4_7framing11FixedLengthE3newB4_
FNDA:21,_RNvMNtCsaY8j7BoaK8w_13flyby_storage4fileINtB2_10FileSourceNtNtB4_7framing11FixedLengthE8fill_bufB4_
FNDA:1,_RNvMNtCsaY8j7BoaK8w_13flyby_storage4fileINtB2_10FileSourceNtNtB4_7framing9DelimiterE10handle_eofB4_
FNDA:3,_RNvMNtCsaY8j7BoaK8w_13flyby_storage4fileINtB2_10FileSourceNtNtB4_7framing9DelimiterE14consume_recordB4_
FNDA:1,_RNvMNtCsaY8j7BoaK8w_13flyby_storage4fileINtB2_10FileSourceNtNtB4_7framing9DelimiterE3newB4_
FNDA:2,_RNvMNtCsaY8j7BoaK8w_13flyby_storage4fileINtB2_10FileSourceNtNtB4_7framing9DelimiterE8fill_bufB4_
FNDA:14,_RNvXs0_NtCsaY8j7BoaK8w_13flyby_storage4fileINtB5_10FileSourceNtNtB7_7framing11FixedLengthENtNtB7_6source13StorageSource10poll_batchB7_
FNDA:4,_RNvXs0_NtCsaY8j7BoaK8w_13flyby_storage4fileINtB5_10FileSourceNtNtB7_7framing11FixedLengthENtNtB7_6source13StorageSource12is_exhaustedB7_
FNDA:1,_RNvXs0_NtCsaY8j7BoaK8w_13flyby_storage4fileINtB5_10FileSourceNtNtB7_7framing9DelimiterENtNtB7_6source13StorageSource10poll_batchB7_
FNDA:11,_RNvXs_NtCsaY8j7BoaK8w_13flyby_storage4fileINtB4_10FileSourceNtNtB6_7framing11FixedLengthENtNtCscf8MsWp3cCb_10flyby_core9lifecycle9Lifecycle4initB6_
FNDA:1,_RNvXs_NtCsaY8j7BoaK8w_13flyby_storage4fileINtB4_10FileSourceNtNtB6_7framing9DelimiterENtNtCscf8MsWp3cCb_10flyby_core9lifecycle9Lifecycle4initB6_
FNDA:0,_RNvMNtCsaY8j7BoaK8w_13flyby_storage4fileINtB2_10FileSourcepE12record_indexB4_
FNDA:0,_RNvMNtCsaY8j7BoaK8w_13flyby_storage4fileINtB2_10FileSourcepE12with_metricsB4_
FNDA:0,_RNvMNtCsaY8j7BoaK8w_13flyby_storage4fileINtB2_10FileSourcepE6configB4_
FNDA:0,_RNvNtCsaY8j7BoaK8w_13flyby_storage4file23default_follow_interval
FNDA:0,_RNvXININtCsaY8j7BoaK8w_13flyby_storage4files0_0pEINtB5_10FileSourcepENtNtB7_6source13StorageSource12backend_nameB7_
FNDA:0,_RNvXININtCsaY8j7BoaK8w_13flyby_storage4files_0pEINtB5_10FileSourcepENtNtCscf8MsWp3cCb_10flyby_core9lifecycle9Lifecycle8shutdownB7_
FNF:35
FNH:29
DA:93,35
DA:94,35
DA:95,35
DA:96,35
DA:97,35
DA:98,35
DA:99,35
DA:100,35
DA:101,35
DA:102,35
DA:103,35
DA:104,35
DA:105,35
DA:106,35
DA:107,35
DA:108,35
DA:109,35
DA:112,0
DA:113,0
DA:114,0
DA:115,0
DA:118,0
DA:119,0
DA:120,0
DA:123,2
DA:124,2
DA:125,2
DA:128,1
DA:129,1
DA:130,1
DA:133,4
DA:134,4
DA:135,4
DA:139,72
DA:140,72
DA:141,72
DA:142,72
DA:143,72
DA:145,72
DA:146,72
DA:147,72
DA:148,72
DA:149,72
DA:150,72
DA:151,38
DA:152,38
DA:153,38
DA:154,72
DA:155,72
DA:160,34
DA:161,34
DA:164,19
DA:165,19
DA:166,19
DA:167,19
DA:168,19
DA:171,14
DA:173,5
DA:174,9
DA:175,9
DA:176,1
DA:177,1
DA:178,1
DA:179,1
DA:180,8
DA:181,8
DA:182,1
DA:183,1
DA:184,1
DA:185,1
DA:186,1
DA:187,7
DA:188,7
DA:189,7
DA:190,7
DA:191,7
DA:193,7
DA:194,7
DA:195,7
DA:196,7
DA:197,7
DA:198,7
DA:199,7
DA:200,7
DA:202,1
DA:203,1
DA:206,1
DA:207,1
DA:210,34
DA:213,97
DA:214,97
DA:215,0
DA:216,0
DA:217,0
DA:218,0
DA:219,97
DA:220,97
DA:221,0
DA:222,0
DA:223,0
DA:224,0
DA:225,0
DA:226,0
DA:227,0
DA:228,97
DA:229,97
DA:230,1
DA:231,1
DA:232,1
DA:233,1
DA:234,1
DA:235,1
DA:236,1
DA:237,96
DA:239,96
DA:240,96
DA:241,96
DA:242,96
DA:243,96
DA:244,96
DA:245,96
DA:246,96
DA:247,96
DA:248,96
DA:249,96
DA:250,96
DA:251,96
DA:252,97
DA:256,34
DA:257,34
DA:258,1
DA:259,1
DA:260,1
DA:261,1
DA:263,1
DA:264,33
DA:265,33
DA:266,33
DA:267,33
DA:268,33
DA:269,33
DA:270,33
DA:271,33
DA:272,33
DA:273,33
DA:274,33
DA:275,34
DA:277,2
DA:278,2
DA:279,2
DA:280,2
DA:281,2
DA:282,2
DA:283,2
DA:287,44
DA:288,44
DA:289,2
DA:290,2
DA:291,2
DA:292,42
DA:293,42
DA:294,3
DA:295,39
DA:297,39
DA:298,1
DA:299,1
DA:300,0
DA:301,0
DA:302,38
DA:304,38
DA:305,38
DA:307,83
DA:310,171
DA:311,68
DA:312,103
DA:313,103
DA:314,97
DA:315,97
DA:316,96
DA:317,8
DA:318,88
DA:320,4
DA:325,72
DA:326,72
DA:327,34
DA:328,32
DA:329,25
DA:330,7
DA:331,38
DA:334,33
DA:335,44
DA:337,0
DA:338,0
DA:339,0
DA:341,16
DA:342,16
DA:343,16
DA:347,0
DA:348,0
DA:349,0
DA:358,12
DA:359,12
DA:360,12
DA:361,12
DA:362,12
DA:363,12
DA:364,12
DA:365,12
DA:366,12
DA:367,12
DA:368,12
DA:371,1
DA:372,1
DA:373,1
DA:374,1
DA:375,1
DA:377,1
DA:378,1
DA:379,1
DA:380,3
DA:381,1
DA:382,1
DA:383,1
DA:384,1
DA:387,1
DA:388,1
DA:389,1
DA:390,1
DA:391,1
DA:393,1
DA:394,1
DA:395,1
DA:396,3
DA:397,1
DA:398,1
DA:399,1
DA:402,1
DA:403,1
DA:404,1
DA:405,1
DA:407,1
DA:408,1
DA:409,1
DA:410,1
DA:411,1
DA:412,1
DA:413,1
DA:416,1
DA:417,1
DA:418,1
DA:419,1
DA:420,1
DA:421,1
DA:424,1
DA:425,1
DA:426,1
DA:427,1
DA:428,1
DA:429,1
DA:432,1
DA:433,1
DA:434,1
DA:435,1
DA:436,1
DA:437,1
DA:438,1
DA:439,1
DA:440,1
DA:443,1
DA:445,1
DA:446,1
DA:447,1
DA:448,1
DA:449,1
DA:450,1
DA:451,1
DA:452,1
DA:455,1
DA:457,1
DA:458,1
DA:459,1
DA:460,1
DA:461,1
DA:463,1
DA:464,1
DA:465,1
DA:466,2
DA:467,1
DA:470,1
DA:471,1
DA:474,1
DA:475,1
DA:476,1
DA:477,1
DA:478,1
DA:479,1
DA:480,1
DA:481,1
DA:482,1
DA:485,1
DA:486,1
DA:487,1
DA:488,1
DA:489,1
DA:490,1
DA:491,1
DA:492,1
DA:493,1
DA:494,1
DA:495,1
DA:496,1
DA:497,1
DA:500,1
DA:501,1
DA:502,10
DA:503,10
DA:504,10
DA:505,1
DA:506,1
DA:507,1
DA:509,1
DA:510,1
DA:511,1
DA:512,1
DA:513,1
DA:516,1
DA:517,1
DA:518,1
DA:519,1
DA:520,1
DA:521,1
DA:523,1
DA:524,1
DA:525,1
DA:526,1
DA:527,1
DA:528,1
DA:529,1
DA:530,1
DA:531,1
DA:534,1
DA:535,1
DA:536,1
DA:537,1
DA:539,1
DA:540,1
DA:541,1
DA:542,1
DA:545,1
DA:546,1
DA:547,1
DA:548,1
DA:549,1
DA:550,1
BRF:0
BRH:0
LF:361
LH:333
end_of_record
SF:/Users/thanos/work/flyby/crates/flyby-storage/src/framing.rs
FN:186,_RNCNvXs4_NtCshMj2EFajhOT_13flyby_storage7framingNtB7_9DelimiterNtB7_5Frame15next_record_len0B9_
FN:218,_RNvMs5_NtCshMj2EFajhOT_13flyby_storage7framingINtB5_6CustompE3newB7_
FN:227,_RNvXININtCshMj2EFajhOT_13flyby_storage7framings6_0pEINtB5_6CustompENtB5_5Frame15next_record_lenB7_
FN:64,_RNvMNtCshMj2EFajhOT_13flyby_storage7framingNtB2_11FixedLength3new
FN:96,_RNvMs0_NtCshMj2EFajhOT_13flyby_storage7framingNtB5_11PrefixWidth10byte_count
FN:104,_RNvMs0_NtCshMj2EFajhOT_13flyby_storage7framingNtB5_11PrefixWidth4read
FN:126,_RNvMs1_NtCshMj2EFajhOT_13flyby_storage7framingNtB5_14LengthPrefixed3new
FN:177,_RNvMs3_NtCshMj2EFajhOT_13flyby_storage7framingNtB5_9Delimiter3new
FN:132,_RNvXs2_NtCshMj2EFajhOT_13flyby_storage7framingNtB5_14LengthPrefixedNtB5_5Frame15next_record_len
FN:184,_RNvXs4_NtCshMj2EFajhOT_13flyby_storage7framingNtB5_9DelimiterNtB5_5Frame15next_record_len
FN:71,_RNvXs_NtCshMj2EFajhOT_13flyby_storage7framingNtB4_11FixedLengthNtB4_5Frame15next_record_len
FN:186,_RNCNvXs4_NtCsaY8j7BoaK8w_13flyby_storage7framingNtB7_9DelimiterNtB7_5Frame15next_record_len0B9_
FN:218,_RNvMs5_NtCsaY8j7BoaK8w_13flyby_storage7framingINtB5_6CustomNCNvNtB5_5testss_13custom_framer0E3newB7_
FN:227,_RNvXs6_NtCsaY8j7BoaK8w_13flyby_storage7framingINtB5_6CustomNCNvNtB5_5testss_13custom_framer0ENtB5_5Frame15next_record_lenB7_
FN:64,_RNvMNtCsaY8j7BoaK8w_13flyby_storage7framingNtB2_11FixedLength3new
FN:96,_RNvMs0_NtCsaY8j7BoaK8w_13flyby_storage7framingNtB5_11PrefixWidth10byte_count
FN:104,_RNvMs0_NtCsaY8j7BoaK8w_13flyby_storage7framingNtB5_11PrefixWidth4read
FN:126,_RNvMs1_NtCsaY8j7BoaK8w_13flyby_storage7framingNtB5_14LengthPrefixed3new
FN:177,_RNvMs3_NtCsaY8j7BoaK8w_13flyby_storage7framingNtB5_9Delimiter3new
FN:132,_RNvXs2_NtCsaY8j7BoaK8w_13flyby_storage7framingNtB5_14LengthPrefixedNtB5_5Frame15next_record_len
FN:184,_RNvXs4_NtCsaY8j7BoaK8w_13flyby_storage7framingNtB5_9DelimiterNtB5_5Frame15next_record_len
FN:71,_RNvXs_NtCsaY8j7BoaK8w_13flyby_storage7framingNtB4_11FixedLengthNtB4_5Frame15next_record_len
FN:286,_RNvNtNtCsaY8j7BoaK8w_13flyby_storage7framing5testss_13custom_framer
FN:245,_RNvNtNtCsaY8j7BoaK8w_13flyby_storage7framing5testss_18length_prefixed_u8
FN:279,_RNvNtNtCsaY8j7BoaK8w_13flyby_storage7framing5testss_21delimiter_exceeds_max
FN:267,_RNvNtNtCsaY8j7BoaK8w_13flyby_storage7framing5testss_23delimiter_finds_newline
FN:237,_RNvNtNtCsaY8j7BoaK8w_13flyby_storage7framing5testss_23fixed_needs_full_record
FN:273,_RNvNtNtCsaY8j7BoaK8w_13flyby_storage7framing5testss_25delimiter_needs_more_data
FN:253,_RNvNtNtCsaY8j7BoaK8w_13flyby_storage7framing5testss_25length_prefixed_too_short
FN:260,_RNvNtNtCsaY8j7BoaK8w_13flyby_storage7framing5testss_27length_prefixed_exceeds_max
FN:288,_RNCNvNtNtCsaY8j7BoaK8w_13flyby_storage7framing5testss_13custom_framer0B7_
FN:218,_RNvMs5_NtCshMj2EFajhOT_13flyby_storage7framingINtB5_6CustomNCNvCsepcYexo5eQh_7framings_23custom_can_return_error0E3newBZ_
FN:218,_RNvMs5_NtCshMj2EFajhOT_13flyby_storage7framingINtB5_6CustomNCNvCsepcYexo5eQh_7framings_36custom_stateful_via_closure_captures0E3newBZ_
FN:218,_RNvMs5_NtCshMj2EFajhOT_13flyby_storage7framingINtB5_6CustomNCNvCsepcYexo5eQh_7framings_38custom_passthrough_always_returns_some0E3newBZ_
FN:227,_RNvXs6_NtCshMj2EFajhOT_13flyby_storage7framingINtB5_6CustomNCNvCsepcYexo5eQh_7framings_23custom_can_return_error0ENtB5_5Frame15next_record_lenBZ_
FN:227,_RNvXs6_NtCshMj2EFajhOT_13flyby_storage7framingINtB5_6CustomNCNvCsepcYexo5eQh_7framings_36custom_stateful_via_closure_captures0ENtB5_5Frame15next_record_lenBZ_
FN:227,_RNvXs6_NtCshMj2EFajhOT_13flyby_storage7framingINtB5_6CustomNCNvCsepcYexo5eQh_7framings_38custom_passthrough_always_returns_some0ENtB5_5Frame15next_record_lenBZ_
FNDA:218,_RNCNvXs4_NtCshMj2EFajhOT_13flyby_storage7framingNtB7_9DelimiterNtB7_5Frame15next_record_len0B9_
FNDA:0,_RNvMs5_NtCshMj2EFajhOT_13flyby_storage7framingINtB5_6CustompE3newB7_
FNDA:0,_RNvXININtCshMj2EFajhOT_13flyby_storage7framings6_0pEINtB5_6CustompENtB5_5Frame15next_record_lenB7_
FNDA:17,_RNvMNtCshMj2EFajhOT_13flyby_storage7framingNtB2_11FixedLength3new
FNDA:10,_RNvMs0_NtCshMj2EFajhOT_13flyby_storage7framingNtB5_11PrefixWidth10byte_count
FNDA:9,_RNvMs0_NtCshMj2EFajhOT_13flyby_storage7framingNtB5_11PrefixWidth4read
FNDA:9,_RNvMs1_NtCshMj2EFajhOT_13flyby_storage7framingNtB5_14LengthPrefixed3new
FNDA:15,_RNvMs3_NtCshMj2EFajhOT_13flyby_storage7framingNtB5_9Delimiter3new
FNDA:10,_RNvXs2_NtCshMj2EFajhOT_13flyby_storage7framingNtB5_14LengthPrefixedNtB5_5Frame15next_record_len
FNDA:28,_RNvXs4_NtCshMj2EFajhOT_13flyby_storage7framingNtB5_9DelimiterNtB5_5Frame15next_record_len
FNDA:64,_RNvXs_NtCshMj2EFajhOT_13flyby_storage7framingNtB4_11FixedLengthNtB4_5Frame15next_record_len
FNDA:42,_RNCNvXs4_NtCsaY8j7BoaK8w_13flyby_storage7framingNtB7_9DelimiterNtB7_5Frame15next_record_len0B9_
FNDA:1,_RNvMs5_NtCsaY8j7BoaK8w_13flyby_storage7framingINtB5_6CustomNCNvNtB5_5testss_13custom_framer0E3newB7_
FNDA:2,_RNvXs6_NtCsaY8j7BoaK8w_13flyby_storage7framingINtB5_6CustomNCNvNtB5_5testss_13custom_framer0ENtB5_5Frame15next_record_lenB7_
FNDA:13,_RNvMNtCsaY8j7BoaK8w_13flyby_storage7framingNtB2_11FixedLength3new
FNDA:3,_RNvMs0_NtCsaY8j7BoaK8w_13flyby_storage7framingNtB5_11PrefixWidth10byte_count
FNDA:2,_RNvMs0_NtCsaY8j7BoaK8w_13flyby_storage7framingNtB5_11PrefixWidth4read
FNDA:3,_RNvMs1_NtCsaY8j7BoaK8w_13flyby_storage7framingNtB5_14LengthPrefixed3new
FNDA:4,_RNvMs3_NtCsaY8j7BoaK8w_13flyby_storage7framingNtB5_9Delimiter3new
FNDA:3,_RNvXs2_NtCsaY8j7BoaK8w_13flyby_storage7framingNtB5_14LengthPrefixedNtB5_5Frame15next_record_len
FNDA:6,_RNvXs4_NtCsaY8j7BoaK8w_13flyby_storage7framingNtB5_9DelimiterNtB5_5Frame15next_record_len
FNDA:24,_RNvXs_NtCsaY8j7BoaK8w_13flyby_storage7framingNtB4_11FixedLengthNtB4_5Frame15next_record_len
FNDA:1,_RNvNtNtCsaY8j7BoaK8w_13flyby_storage7framing5testss_13custom_framer
FNDA:1,_RNvNtNtCsaY8j7BoaK8w_13flyby_storage7framing5testss_18length_prefixed_u8
FNDA:1,_RNvNtNtCsaY8j7BoaK8w_13flyby_storage7framing5testss_21delimiter_exceeds_max
FNDA:1,_RNvNtNtCsaY8j7BoaK8w_13flyby_storage7framing5testss_23delimiter_finds_newline
FNDA:1,_RNvNtNtCsaY8j7BoaK8w_13flyby_storage7framing5testss_23fixed_needs_full_record
FNDA:1,_RNvNtNtCsaY8j7BoaK8w_13flyby_storage7framing5testss_25delimiter_needs_more_data
FNDA:1,_RNvNtNtCsaY8j7BoaK8w_13flyby_storage7framing5testss_25length_prefixed_too_short
FNDA:1,_RNvNtNtCsaY8j7BoaK8w_13flyby_storage7framing5testss_27length_prefixed_exceeds_max
FNDA:2,_RNCNvNtNtCsaY8j7BoaK8w_13flyby_storage7framing5testss_13custom_framer0B7_
FNDA:1,_RNvMs5_NtCshMj2EFajhOT_13flyby_storage7framingINtB5_6CustomNCNvCsepcYexo5eQh_7framings_23custom_can_return_error0E3newBZ_
FNDA:1,_RNvMs5_NtCshMj2EFajhOT_13flyby_storage7framingINtB5_6CustomNCNvCsepcYexo5eQh_7framings_36custom_stateful_via_closure_captures0E3newBZ_
FNDA:1,_RNvMs5_NtCshMj2EFajhOT_13flyby_storage7framingINtB5_6CustomNCNvCsepcYexo5eQh_7framings_38custom_passthrough_always_returns_some0E3newBZ_
FNDA:1,_RNvXs6_NtCshMj2EFajhOT_13flyby_storage7framingINtB5_6CustomNCNvCsepcYexo5eQh_7framings_23custom_can_return_error0ENtB5_5Frame15next_record_lenBZ_
FNDA:2,_RNvXs6_NtCshMj2EFajhOT_13flyby_storage7framingINtB5_6CustomNCNvCsepcYexo5eQh_7framings_36custom_stateful_via_closure_captures0ENtB5_5Frame15next_record_lenBZ_
FNDA:1,_RNvXs6_NtCshMj2EFajhOT_13flyby_storage7framingINtB5_6CustomNCNvCsepcYexo5eQh_7framings_38custom_passthrough_always_returns_some0ENtB5_5Frame15next_record_lenBZ_
FNF:20
FNH:20
DA:64,30
DA:65,30
DA:66,30
DA:67,30
DA:71,88
DA:72,88
DA:73,82
DA:75,6
DA:77,88
DA:96,13
DA:97,13
DA:98,10
DA:99,2
DA:100,1
DA:102,13
DA:104,11
DA:105,11
DA:106,9
DA:107,1
DA:108,1
DA:110,11
DA:126,12
DA:127,12
DA:128,12
DA:132,13
DA:133,13
DA:134,13
DA:135,2
DA:136,11
DA:137,11
DA:138,11
DA:139,3
DA:140,3
DA:141,3
DA:142,3
DA:143,3
DA:144,3
DA:145,3
DA:146,8
DA:147,8
DA:148,8
DA:149,7
DA:151,1
DA:153,13
DA:177,19
DA:178,19
DA:179,19
DA:180,19
DA:184,34
DA:185,34
DA:186,260
DA:187,27
DA:188,7
DA:189,3
DA:190,3
DA:191,3
DA:192,4
DA:194,34
DA:218,4
DA:219,4
DA:220,4
DA:227,6
DA:228,6
DA:229,6
DA:237,1
DA:238,1
DA:239,1
DA:240,1
DA:241,1
DA:242,1
DA:245,1
DA:246,1
DA:248,1
DA:249,1
DA:250,1
DA:253,1
DA:254,1
DA:256,1
DA:257,1
DA:260,1
DA:261,1
DA:262,1
DA:263,1
DA:264,1
DA:267,1
DA:268,1
DA:269,1
DA:270,1
DA:273,1
DA:274,1
DA:275,1
DA:276,1
DA:279,1
DA:280,1
DA:282,1
DA:283,1
DA:286,1
DA:288,2
DA:289,2
DA:290,1
DA:292,1
DA:294,2
DA:295,1
DA:296,1
DA:297,1
BRF:0
BRH:0
LF:107
LH:107
end_of_record
SF:/Users/thanos/work/flyby/crates/flyby-storage/src/io_uring.rs
FN:76,_RNvMNtCsaY8j7BoaK8w_13flyby_storage8io_uringNtB2_13IoUringSource3new
FN:99,_RNvXs0_NtCsaY8j7BoaK8w_13flyby_storage8io_uringNtB5_13IoUringSourceNtNtB7_6source13StorageSource10poll_batch
FN:106,_RNvXs0_NtCsaY8j7BoaK8w_13flyby_storage8io_uringNtB5_13IoUringSourceNtNtB7_6source13StorageSource12backend_name
FN:85,_RNvXs_NtCsaY8j7BoaK8w_13flyby_storage8io_uringNtB4_13IoUringSourceNtNtCscf8MsWp3cCb_10flyby_core9lifecycle9Lifecycle4init
FN:110,_RNvXs0_NtCsaY8j7BoaK8w_13flyby_storage8io_uringNtB5_13IoUringSourceNtNtB7_6source13StorageSource12is_exhausted
FN:93,_RNvXs_NtCsaY8j7BoaK8w_13flyby_storage8io_uringNtB4_13IoUringSourceNtNtCscf8MsWp3cCb_10flyby_core9lifecycle9Lifecycle8shutdown
FN:136,_RNvNtNtCsaY8j7BoaK8w_13flyby_storage8io_uring5testss_24backend_name_is_io_uring
FN:121,_RNvNtNtCsaY8j7BoaK8w_13flyby_storage8io_uring5testss_28init_returns_not_implemented
FN:128,_RNvNtNtCsaY8j7BoaK8w_13flyby_storage8io_uring5testss_28poll_returns_not_implemented
FNDA:2,_RNvMNtCsaY8j7BoaK8w_13flyby_storage8io_uringNtB2_13IoUringSource3new
FNDA:1,_RNvXs0_NtCsaY8j7BoaK8w_13flyby_storage8io_uringNtB5_13IoUringSourceNtNtB7_6source13StorageSource10poll_batch
FNDA:1,_RNvXs0_NtCsaY8j7BoaK8w_13flyby_storage8io_uringNtB5_13IoUringSourceNtNtB7_6source13StorageSource12backend_name
FNDA:1,_RNvXs_NtCsaY8j7BoaK8w_13flyby_storage8io_uringNtB4_13IoUringSourceNtNtCscf8MsWp3cCb_10flyby_core9lifecycle9Lifecycle4init
FNDA:0,_RNvXs0_NtCsaY8j7BoaK8w_13flyby_storage8io_uringNtB5_13IoUringSourceNtNtB7_6source13StorageSource12is_exhausted
FNDA:0,_RNvXs_NtCsaY8j7BoaK8w_13flyby_storage8io_uringNtB4_13IoUringSourceNtNtCscf8MsWp3cCb_10flyby_core9lifecycle9Lifecycle8shutdown
FNDA:1,_RNvNtNtCsaY8j7BoaK8w_13flyby_storage8io_uring5testss_24backend_name_is_io_uring
FNDA:1,_RNvNtNtCsaY8j7BoaK8w_13flyby_storage8io_uring5testss_28init_returns_not_implemented
FNDA:1,_RNvNtNtCsaY8j7BoaK8w_13flyby_storage8io_uring5testss_28poll_returns_not_implemented
FNF:9
FNH:7
DA:76,2
DA:77,2
DA:78,2
DA:79,2
DA:80,2
DA:81,2
DA:85,1
DA:86,1
DA:87,1
DA:88,1
DA:89,1
DA:90,1
DA:91,1
DA:93,0
DA:94,0
DA:95,0
DA:99,1
DA:100,1
DA:101,1
DA:102,1
DA:103,1
DA:104,1
DA:106,1
DA:107,1
DA:108,1
DA:110,0
DA:111,0
DA:112,0
DA:121,1
DA:122,1
DA:123,1
DA:124,1
DA:125,1
DA:128,1
DA:129,1
DA:130,1
DA:131,1
DA:132,1
DA:133,1
DA:136,1
DA:137,1
DA:138,1
BRF:0
BRH:0
LF:42
LH:36
end_of_record
SF:/Users/thanos/work/flyby/crates/flyby-storage/src/metrics.rs
FN:32,_RNvXNtCshMj2EFajhOT_13flyby_storage7metricsNtB2_16StorageMetricKeyNtNtCscf8MsWp3cCb_10flyby_core7metrics9MetricKey4name
FN:75,_RNvNtNtCsaY8j7BoaK8w_13flyby_storage7metrics5testss_16all_names_unique
FN:52,_RNvNtNtCsaY8j7BoaK8w_13flyby_storage7metrics5testss_25names_have_storage_prefix
FN:89,_RNCNvNtNtCsaY8j7BoaK8w_13flyby_storage7metrics5testss_16all_names_unique0B7_
FN:32,_RNvXNtCsaY8j7BoaK8w_13flyby_storage7metricsNtB2_16StorageMetricKeyNtNtCscf8MsWp3cCb_10flyby_core7metrics9MetricKey4name
FNDA:0,_RNvXNtCshMj2EFajhOT_13flyby_storage7metricsNtB2_16StorageMetricKeyNtNtCscf8MsWp3cCb_10flyby_core7metrics9MetricKey4name
FNDA:1,_RNvNtNtCsaY8j7BoaK8w_13flyby_storage7metrics5testss_16all_names_unique
FNDA:1,_RNvNtNtCsaY8j7BoaK8w_13flyby_storage7metrics5testss_25names_have_storage_prefix
FNDA:9,_RNCNvNtNtCsaY8j7BoaK8w_13flyby_storage7metrics5testss_16all_names_unique0B7_
FNDA:18,_RNvXNtCsaY8j7BoaK8w_13flyby_storage7metricsNtB2_16StorageMetricKeyNtNtCscf8MsWp3cCb_10flyby_core7metrics9MetricKey4name
FNF:4
FNH:4
DA:32,18
DA:33,18
DA:34,2
DA:35,2
DA:36,2
DA:37,2
DA:38,2
DA:39,2
DA:40,2
DA:41,2
DA:42,2
DA:44,18
DA:52,1
DA:53,1
DA:54,1
DA:55,1
DA:56,1
DA:57,1
DA:58,1
DA:59,1
DA:60,1
DA:61,1
DA:62,1
DA:63,1
DA:64,9
DA:65,9
DA:66,9
DA:69,0
DA:72,1
DA:75,1
DA:77,1
DA:78,1
DA:79,1
DA:80,1
DA:81,1
DA:82,1
DA:83,1
DA:84,1
DA:85,1
DA:86,1
DA:87,1
DA:88,1
DA:89,9
DA:90,1
DA:91,1
DA:92,1
BRF:0
BRH:0
LF:47
LH:46
end_of_record
SF:/Users/thanos/work/flyby/crates/flyby-storage/src/replay.rs
FN:74,_RNvMNtCshMj2EFajhOT_13flyby_storage6replayNtB2_10ReplayMode8validate
FN:209,_RNvMs_NtCshMj2EFajhOT_13flyby_storage6replayNtB4_12ReplayEngine11burst_ready
FN:128,_RNvMs_NtCshMj2EFajhOT_13flyby_storage6replayNtB4_12ReplayEngine13new_unchecked
FN:180,_RNvMs_NtCshMj2EFajhOT_13flyby_storage6replayNtB4_12ReplayEngine21original_timing_ready
FN:113,_RNvMs_NtCshMj2EFajhOT_13flyby_storage6replayNtB4_12ReplayEngine3new
FN:151,_RNvMs_NtCshMj2EFajhOT_13flyby_storage6replayNtB4_12ReplayEngine4poll
FN:140,_RNvMs_NtCshMj2EFajhOT_13flyby_storage6replayNtB4_12ReplayEngine7advance
FN:267,_RNvNtNtCsaY8j7BoaK8w_13flyby_storage6replay5testss_23burst_emits_then_pauses
FN:279,_RNvNtNtCsaY8j7BoaK8w_13flyby_storage6replay5testss_23burst_resumes_after_gap
FN:232,_RNvNtNtCsaY8j7BoaK8w_13flyby_storage6replay5testss_23full_speed_always_ready
FN:240,_RNvNtNtCsaY8j7BoaK8w_13flyby_storage6replay5testss_28single_step_requires_advance
FN:255,_RNvNtNtCsaY8j7BoaK8w_13flyby_storage6replay5testss_30time_scaled_rejects_bad_factor
FN:261,_RNvNtNtCsaY8j7BoaK8w_13flyby_storage6replay5testss_34time_scaled_first_record_immediate
FN:249,_RNvNtNtCsaY8j7BoaK8w_13flyby_storage6replay5testss_38original_timing_first_record_immediate
FN:74,_RNvMNtCsaY8j7BoaK8w_13flyby_storage6replayNtB2_10ReplayMode8validate
FN:209,_RNvMs_NtCsaY8j7BoaK8w_13flyby_storage6replayNtB4_12ReplayEngine11burst_ready
FN:180,_RNvMs_NtCsaY8j7BoaK8w_13flyby_storage6replayNtB4_12ReplayEngine21original_timing_ready
FN:113,_RNvMs_NtCsaY8j7BoaK8w_13flyby_storage6replayNtB4_12ReplayEngine3new
FN:151,_RNvMs_NtCsaY8j7BoaK8w_13flyby_storage6replayNtB4_12ReplayEngine4poll
FN:140,_RNvMs_NtCsaY8j7BoaK8w_13flyby_storage6replayNtB4_12ReplayEngine7advance
FN:128,_RNvMs_NtCsaY8j7BoaK8w_13flyby_storage6replayNtB4_12ReplayEngine13new_unchecked
FNDA:22,_RNvMNtCshMj2EFajhOT_13flyby_storage6replayNtB2_10ReplayMode8validate
FNDA:7,_RNvMs_NtCshMj2EFajhOT_13flyby_storage6replayNtB4_12ReplayEngine11burst_ready
FNDA:0,_RNvMs_NtCshMj2EFajhOT_13flyby_storage6replayNtB4_12ReplayEngine13new_unchecked
FNDA:10,_RNvMs_NtCshMj2EFajhOT_13flyby_storage6replayNtB4_12ReplayEngine21original_timing_ready
FNDA:10,_RNvMs_NtCshMj2EFajhOT_13flyby_storage6replayNtB4_12ReplayEngine3new
FNDA:24,_RNvMs_NtCshMj2EFajhOT_13flyby_storage6replayNtB4_12ReplayEngine4poll
FNDA:1,_RNvMs_NtCshMj2EFajhOT_13flyby_storage6replayNtB4_12ReplayEngine7advance
FNDA:1,_RNvNtNtCsaY8j7BoaK8w_13flyby_storage6replay5testss_23burst_emits_then_pauses
FNDA:1,_RNvNtNtCsaY8j7BoaK8w_13flyby_storage6replay5testss_23burst_resumes_after_gap
FNDA:1,_RNvNtNtCsaY8j7BoaK8w_13flyby_storage6replay5testss_23full_speed_always_ready
FNDA:1,_RNvNtNtCsaY8j7BoaK8w_13flyby_storage6replay5testss_28single_step_requires_advance
FNDA:1,_RNvNtNtCsaY8j7BoaK8w_13flyby_storage6replay5testss_30time_scaled_rejects_bad_factor
FNDA:1,_RNvNtNtCsaY8j7BoaK8w_13flyby_storage6replay5testss_34time_scaled_first_record_immediate
FNDA:1,_RNvNtNtCsaY8j7BoaK8w_13flyby_storage6replay5testss_38original_timing_first_record_immediate
FNDA:8,_RNvMNtCsaY8j7BoaK8w_13flyby_storage6replayNtB2_10ReplayMode8validate
FNDA:5,_RNvMs_NtCsaY8j7BoaK8w_13flyby_storage6replayNtB4_12ReplayEngine11burst_ready
FNDA:2,_RNvMs_NtCsaY8j7BoaK8w_13flyby_storage6replayNtB4_12ReplayEngine21original_timing_ready
FNDA:8,_RNvMs_NtCsaY8j7BoaK8w_13flyby_storage6replayNtB4_12ReplayEngine3new
FNDA:14,_RNvMs_NtCsaY8j7BoaK8w_13flyby_storage6replayNtB4_12ReplayEngine4poll
FNDA:1,_RNvMs_NtCsaY8j7BoaK8w_13flyby_storage6replayNtB4_12ReplayEngine7advance
FNDA:0,_RNvMs_NtCsaY8j7BoaK8w_13flyby_storage6replayNtB4_12ReplayEngine13new_unchecked
FNF:14
FNH:13
DA:74,30
DA:75,7
DA:76,7
DA:77,2
DA:79,5
DA:80,0
DA:82,28
DA:84,30
DA:113,18
DA:114,18
DA:115,16
DA:116,16
DA:117,16
DA:118,16
DA:119,16
DA:120,16
DA:121,16
DA:122,16
DA:123,18
DA:128,0
DA:129,0
DA:130,0
DA:131,0
DA:132,0
DA:133,0
DA:134,0
DA:135,0
DA:136,0
DA:137,0
DA:140,2
DA:141,2
DA:142,2
DA:143,2
DA:144,2
DA:151,38
DA:152,38
DA:154,38
DA:155,8
DA:158,6
DA:159,2
DA:160,4
DA:161,4
DA:162,4
DA:165,6
DA:167,6
DA:168,6
DA:169,6
DA:172,12
DA:173,12
DA:174,12
DA:175,12
DA:178,38
DA:180,12
DA:181,12
DA:182,12
DA:184,12
DA:186,9
DA:187,3
DA:189,3
DA:191,3
DA:192,1
DA:195,2
DA:196,2
DA:197,0
DA:198,2
DA:199,2
DA:200,0
DA:202,2
DA:205,3
DA:206,3
DA:207,12
DA:209,12
DA:210,12
DA:211,5
DA:212,3
DA:213,2
DA:214,2
DA:215,2
DA:216,7
DA:218,9
DA:219,9
DA:220,6
DA:221,6
DA:222,6
DA:223,9
DA:224,12
DA:232,1
DA:233,1
DA:234,4
DA:235,4
DA:237,1
DA:240,1
DA:241,1
DA:242,1
DA:243,1
DA:244,1
DA:245,1
DA:246,1
DA:249,1
DA:250,1
DA:251,1
DA:252,1
DA:255,1
DA:256,1
DA:257,1
DA:258,1
DA:261,1
DA:262,1
DA:263,1
DA:264,1
DA:267,1
DA:268,1
DA:269,1
DA:270,1
DA:271,1
DA:272,1
DA:273,1
DA:274,1
DA:275,1
DA:276,1
DA:279,1
DA:280,1
DA:281,1
DA:282,1
DA:283,1
DA:284,1
BRF:0
BRH:0
LF:126
LH:113
end_of_record
SF:/Users/thanos/work/flyby/crates/flyby-storage/src/spdk.rs
FN:75,_RNvMNtCsaY8j7BoaK8w_13flyby_storage4spdkNtB2_10SpdkSource3new
FN:94,_RNvXs0_NtCsaY8j7BoaK8w_13flyby_storage4spdkNtB5_10SpdkSourceNtNtB7_6source13StorageSource10poll_batch
FN:101,_RNvXs0_NtCsaY8j7BoaK8w_13flyby_storage4spdkNtB5_10SpdkSourceNtNtB7_6source13StorageSource12backend_name
FN:81,_RNvXs_NtCsaY8j7BoaK8w_13flyby_storage4spdkNtB4_10SpdkSourceNtNtCscf8MsWp3cCb_10flyby_core9lifecycle9Lifecycle4init
FN:131,_RNvNtNtCsaY8j7BoaK8w_13flyby_storage4spdk5testss_20backend_name_is_spdk
FN:116,_RNvNtNtCsaY8j7BoaK8w_13flyby_storage4spdk5testss_28init_returns_not_implemented
FN:123,_RNvNtNtCsaY8j7BoaK8w_13flyby_storage4spdk5testss_28poll_returns_not_implemented
FN:105,_RNvXs0_NtCsaY8j7BoaK8w_13flyby_storage4spdkNtB5_10SpdkSourceNtNtB7_6source13StorageSource12is_exhausted
FN:88,_RNvXs_NtCsaY8j7BoaK8w_13flyby_storage4spdkNtB4_10SpdkSourceNtNtCscf8MsWp3cCb_10flyby_core9lifecycle9Lifecycle8shutdown
FNDA:2,_RNvMNtCsaY8j7BoaK8w_13flyby_storage4spdkNtB2_10SpdkSource3new
FNDA:1,_RNvXs0_NtCsaY8j7BoaK8w_13flyby_storage4spdkNtB5_10SpdkSourceNtNtB7_6source13StorageSource10poll_batch
FNDA:1,_RNvXs0_NtCsaY8j7BoaK8w_13flyby_storage4spdkNtB5_10SpdkSourceNtNtB7_6source13StorageSource12backend_name
FNDA:1,_RNvXs_NtCsaY8j7BoaK8w_13flyby_storage4spdkNtB4_10SpdkSourceNtNtCscf8MsWp3cCb_10flyby_core9lifecycle9Lifecycle4init
FNDA:1,_RNvNtNtCsaY8j7BoaK8w_13flyby_storage4spdk5testss_20backend_name_is_spdk
FNDA:1,_RNvNtNtCsaY8j7BoaK8w_13flyby_storage4spdk5testss_28init_returns_not_implemented
FNDA:1,_RNvNtNtCsaY8j7BoaK8w_13flyby_storage4spdk5testss_28poll_returns_not_implemented
FNDA:0,_RNvXs0_NtCsaY8j7BoaK8w_13flyby_storage4spdkNtB5_10SpdkSourceNtNtB7_6source13StorageSource12is_exhausted
FNDA:0,_RNvXs_NtCsaY8j7BoaK8w_13flyby_storage4spdkNtB4_10SpdkSourceNtNtCscf8MsWp3cCb_10flyby_core9lifecycle9Lifecycle8shutdown
FNF:9
FNH:7
DA:75,2
DA:76,2
DA:77,2
DA:81,1
DA:82,1
DA:83,1
DA:84,1
DA:85,1
DA:86,1
DA:88,0
DA:89,0
DA:90,0
DA:94,1
DA:95,1
DA:96,1
DA:97,1
DA:98,1
DA:99,1
DA:101,1
DA:102,1
DA:103,1
DA:105,0
DA:106,0
DA:107,0
DA:116,1
DA:117,1
DA:118,1
DA:119,1
DA:120,1
DA:123,1
DA:124,1
DA:125,1
DA:126,1
DA:127,1
DA:128,1
DA:131,1
DA:132,1
DA:133,1
BRF:0
BRH:0
LF:38
LH:32
end_of_record
SF:/Users/thanos/work/flyby/crates/flyby/src/builder.rs
FN:129,_RINvMs_NtCsggT0ekrhFaK_5flyby7builderNtB5_12FlyByBuilder3runuEB7_
FN:149,_RINvMs_NtCsggT0ekrhFaK_5flyby7builderNtB5_12FlyByBuilder8run_demoNtCseHB1QHhtQVt_12flyby_memory11StubMessageNtNvNtB5_5testss_22run_demo_pipeline_runs11DropDecoderEB7_
FN:149,_RINvMs_NtCsggT0ekrhFaK_5flyby7builderNtB5_12FlyByBuilder8run_demoNtCseHB1QHhtQVt_12flyby_memory11StubMessageNtNvNtB5_5testss_29run_demo_requires_source_flag11DropDecoderEB7_
FN:33,_RNvMNtCsggT0ekrhFaK_5flyby7builderNtB2_5FlyBy7builder
FN:116,_RNvMs_NtCsggT0ekrhFaK_5flyby7builderNtB4_12FlyByBuilder15has_any_backend
FN:76,_RNvMs_NtCsggT0ekrhFaK_5flyby7builderNtB4_12FlyByBuilder6memory
FN:54,_RNvMs_NtCsggT0ekrhFaK_5flyby7builderNtB4_12FlyByBuilder6source
FN:63,_RINvMs_NtCsggT0ekrhFaK_5flyby7builderNtB5_12FlyByBuilder7decoderpEB7_
FN:90,_RNvMs_NtCsggT0ekrhFaK_5flyby7builderNtB4_12FlyByBuilder4dpdk
FN:104,_RNvMs_NtCsggT0ekrhFaK_5flyby7builderNtB4_12FlyByBuilder4spdk
FN:83,_RNvMs_NtCsggT0ekrhFaK_5flyby7builderNtB4_12FlyByBuilder6af_xdp
FN:97,_RNvMs_NtCsggT0ekrhFaK_5flyby7builderNtB4_12FlyByBuilder8io_uring
FN:69,_RNvMs_NtCsggT0ekrhFaK_5flyby7builderNtB4_12FlyByBuilder9placement
FN:111,_RNvMs_NtCsggT0ekrhFaK_5flyby7builderNtB4_12FlyByBuilder9simulator
FN:210,_RNvNtNtCsggT0ekrhFaK_5flyby7builder5testss_18run_with_memory_ok
FN:234,_RNvNtNtCsggT0ekrhFaK_5flyby7builder5testss_22run_demo_pipeline_runs
FN:203,_RNvNtNtCsggT0ekrhFaK_5flyby7builder5testss_26run_without_backend_errors
FN:216,_RNvNtNtCsggT0ekrhFaK_5flyby7builder5testss_29run_demo_requires_source_flag
FN:238,_RNvXNvNtNtCsggT0ekrhFaK_5flyby7builder5testss_22run_demo_pipeline_runsNtB2_11DropDecoderNtNtCscf8MsWp3cCb_10flyby_core7decoder7Decoder6decode
FN:221,_RNvXNvNtNtCsggT0ekrhFaK_5flyby7builder5testss_29run_demo_requires_source_flagNtB2_11DropDecoderNtNtCscf8MsWp3cCb_10flyby_core7decoder7Decoder6decode
FNDA:2,_RINvMs_NtCsggT0ekrhFaK_5flyby7builderNtB5_12FlyByBuilder3runuEB7_
FNDA:1,_RINvMs_NtCsggT0ekrhFaK_5flyby7builderNtB5_12FlyByBuilder8run_demoNtCseHB1QHhtQVt_12flyby_memory11StubMessageNtNvNtB5_5testss_22run_demo_pipeline_runs11DropDecoderEB7_
FNDA:1,_RINvMs_NtCsggT0ekrhFaK_5flyby7builderNtB5_12FlyByBuilder8run_demoNtCseHB1QHhtQVt_12flyby_memory11StubMessageNtNvNtB5_5testss_29run_demo_requires_source_flag11DropDecoderEB7_
FNDA:4,_RNvMNtCsggT0ekrhFaK_5flyby7builderNtB2_5FlyBy7builder
FNDA:2,_RNvMs_NtCsggT0ekrhFaK_5flyby7builderNtB4_12FlyByBuilder15has_any_backend
FNDA:3,_RNvMs_NtCsggT0ekrhFaK_5flyby7builderNtB4_12FlyByBuilder6memory
FNDA:1,_RNvMs_NtCsggT0ekrhFaK_5flyby7builderNtB4_12FlyByBuilder6source
FNDA:0,_RINvMs_NtCsggT0ekrhFaK_5flyby7builderNtB5_12FlyByBuilder7decoderpEB7_
FNDA:0,_RNvMs_NtCsggT0ekrhFaK_5flyby7builderNtB4_12FlyByBuilder4dpdk
FNDA:0,_RNvMs_NtCsggT0ekrhFaK_5flyby7builderNtB4_12FlyByBuilder4spdk
FNDA:0,_RNvMs_NtCsggT0ekrhFaK_5flyby7builderNtB4_12FlyByBuilder6af_xdp
FNDA:0,_RNvMs_NtCsggT0ekrhFaK_5flyby7builderNtB4_12FlyByBuilder8io_uring
FNDA:0,_RNvMs_NtCsggT0ekrhFaK_5flyby7builderNtB4_12FlyByBuilder9placement
FNDA:0,_RNvMs_NtCsggT0ekrhFaK_5flyby7builderNtB4_12FlyByBuilder9simulator
FNDA:1,_RNvNtNtCsggT0ekrhFaK_5flyby7builder5testss_18run_with_memory_ok
FNDA:1,_RNvNtNtCsggT0ekrhFaK_5flyby7builder5testss_22run_demo_pipeline_runs
FNDA:1,_RNvNtNtCsggT0ekrhFaK_5flyby7builder5testss_26run_without_backend_errors
FNDA:1,_RNvNtNtCsggT0ekrhFaK_5flyby7builder5testss_29run_demo_requires_source_flag
FNDA:32,_RNvXNvNtNtCsggT0ekrhFaK_5flyby7builder5testss_22run_demo_pipeline_runsNtB2_11DropDecoderNtNtCscf8MsWp3cCb_10flyby_core7decoder7Decoder6decode
FNDA:0,_RNvXNvNtNtCsggT0ekrhFaK_5flyby7builder5testss_29run_demo_requires_source_flagNtB2_11DropDecoderNtNtCscf8MsWp3cCb_10flyby_core7decoder7Decoder6decode
FNF:19
FNH:11
DA:33,4
DA:34,4
DA:35,4
DA:54,1
DA:55,1
DA:56,1
DA:57,1
DA:63,0
DA:64,0
DA:65,0
DA:66,0
DA:69,0
DA:70,0
DA:71,0
DA:72,0
DA:76,3
DA:77,3
DA:78,3
DA:79,3
DA:83,0
DA:84,0
DA:85,0
DA:86,0
DA:90,0
DA:91,0
DA:92,0
DA:93,0
DA:97,0
DA:98,0
DA:99,0
DA:100,0
DA:104,0
DA:105,0
DA:106,0
DA:107,0
DA:111,0
DA:112,0
DA:113,0
DA:114,0
DA:116,2
DA:117,2
DA:118,1
DA:119,1
DA:120,1
DA:121,1
DA:122,1
DA:123,2
DA:129,2
DA:130,2
DA:131,2
DA:132,1
DA:133,1
DA:134,1
DA:135,1
DA:136,1
DA:137,1
DA:138,2
DA:149,2
DA:150,2
DA:151,2
DA:152,2
DA:161,2
DA:162,0
DA:163,2
DA:164,2
DA:165,1
DA:166,1
DA:168,1
DA:169,1
DA:170,1
DA:171,1
DA:172,1
DA:173,1
DA:174,1
DA:175,1
DA:176,1
DA:177,1
DA:178,1
DA:179,1
DA:181,1
DA:182,1
DA:183,1
DA:185,1
DA:186,8
DA:187,8
DA:188,0
DA:192,1
DA:193,1
DA:194,1
DA:195,2
DA:203,1
DA:204,1
DA:205,1
DA:206,1
DA:210,1
DA:211,1
DA:212,1
DA:216,1
DA:221,0
DA:222,0
DA:223,0
DA:225,1
DA:226,1
DA:227,1
DA:228,1
DA:229,1
DA:230,1
DA:234,1
DA:238,32
DA:239,32
DA:240,32
DA:242,1
DA:243,1
DA:244,1
DA:245,1
DA:246,1
DA:247,1
DA:248,1
BRF:0
BRH:0
LF:118
LH:84
end_of_record
SF:/Users/thanos/work/flyby/crates/flyby/src/pipeline.rs
FN:363,_RNCNvMsa_NtCsggT0ekrhFaK_5flyby8pipelineINtB7_14SimplePipelineNtCseHB1QHhtQVt_12flyby_memory11StubMessageINtB7_18NetworkBatchSourceNtNtCslaj7P7CWVfX_9flyby_net3sim18SimulatedNetSourceENtNvNtB7_5testss_21network_sim_to_memory15AnyFrameDecoderINtB7_20IdentityPreProcessorBY_EINtB7_14FixedPlacementBY_EE23write_with_backpressure0B9_
FN:363,_RNCNvMsa_NtCsggT0ekrhFaK_5flyby8pipelineINtB7_14SimplePipelineNtCseHB1QHhtQVt_12flyby_memory11StubMessageINtB7_18NetworkBatchSourceNtNtCslaj7P7CWVfX_9flyby_net3sim18SimulatedNetSourceENtNvNtNtB9_7builder5testss_22run_demo_pipeline_runs11DropDecoderINtB7_20IdentityPreProcessorBY_EINtB7_14FixedPlacementBY_EE23write_with_backpressure0B9_
FN:363,_RNCNvMsa_NtCsggT0ekrhFaK_5flyby8pipelineINtB7_14SimplePipelineNtCseHB1QHhtQVt_12flyby_memory11StubMessageINtB7_18NetworkBatchSourceNtNtCslaj7P7CWVfX_9flyby_net3sim18SimulatedNetSourceENtNvNtNtB9_7builder5testss_29run_demo_requires_source_flag11DropDecoderINtB7_20IdentityPreProcessorBY_EINtB7_14FixedPlacementBY_EE23write_with_backpressure0B9_
FN:363,_RNCNvMsa_NtCsggT0ekrhFaK_5flyby8pipelineINtB7_14SimplePipelineNtNtB7_5tests4TickNtB10_9VecSourceNtB10_11TickDecoderINtB7_20IdentityPreProcessorBY_EINtB7_14FixedPlacementBY_EE23write_with_backpressure0B9_
FN:483,_RNCNvXsb_NtCsggT0ekrhFaK_5flyby8pipelineINtB7_14SimplePipelineNtCseHB1QHhtQVt_12flyby_memory11StubMessageINtB7_18NetworkBatchSourceNtNtCslaj7P7CWVfX_9flyby_net3sim18SimulatedNetSourceENtNvNtB7_5testss_21network_sim_to_memory15AnyFrameDecoderINtB7_20IdentityPreProcessorBY_EINtB7_14FixedPlacementBY_EENtNtCscf8MsWp3cCb_10flyby_core9lifecycle9Lifecycle8shutdown0B9_
FN:483,_RNCNvXsb_NtCsggT0ekrhFaK_5flyby8pipelineINtB7_14SimplePipelineNtCseHB1QHhtQVt_12flyby_memory11StubMessageINtB7_18NetworkBatchSourceNtNtCslaj7P7CWVfX_9flyby_net3sim18SimulatedNetSourceENtNvNtNtB9_7builder5testss_22run_demo_pipeline_runs11DropDecoderINtB7_20IdentityPreProcessorBY_EINtB7_14FixedPlacementBY_EENtNtCscf8MsWp3cCb_10flyby_core9lifecycle9Lifecycle8shutdown0B9_
FN:483,_RNCNvXsb_NtCsggT0ekrhFaK_5flyby8pipelineINtB7_14SimplePipelineNtCseHB1QHhtQVt_12flyby_memory11StubMessageINtB7_18NetworkBatchSourceNtNtCslaj7P7CWVfX_9flyby_net3sim18SimulatedNetSourceENtNvNtNtB9_7builder5testss_29run_demo_requires_source_flag11DropDecoderINtB7_20IdentityPreProcessorBY_EINtB7_14FixedPlacementBY_EENtNtCscf8MsWp3cCb_10flyby_core9lifecycle9Lifecycle8shutdown0B9_
FN:483,_RNCNvXsb_NtCsggT0ekrhFaK_5flyby8pipelineINtB7_14SimplePipelineNtNtB7_5tests4TickNtB10_9VecSourceNtB10_11TickDecoderINtB7_20IdentityPreProcessorBY_EINtB7_14FixedPlacementBY_EENtNtCscf8MsWp3cCb_10flyby_core9lifecycle9Lifecycle8shutdown0B9_
FN:60,_RNvMs0_NtCsggT0ekrhFaK_5flyby8pipelineINtB5_14FixedPlacementNtCseHB1QHhtQVt_12flyby_memory11StubMessageE3newB7_
FN:60,_RNvMs0_NtCsggT0ekrhFaK_5flyby8pipelineINtB5_14FixedPlacementNtNtB5_5tests4TickE3newB7_
FN:314,_RNvMsa_NtCsggT0ekrhFaK_5flyby8pipelineINtB5_14SimplePipelineNtCseHB1QHhtQVt_12flyby_memory11StubMessageINtB5_18NetworkBatchSourceNtNtCslaj7P7CWVfX_9flyby_net3sim18SimulatedNetSourceENtNvNtB5_5testss_21network_sim_to_memory15AnyFrameDecoderINtB5_20IdentityPreProcessorBW_EINtB5_14FixedPlacementBW_EE11ensure_initB7_
FN:323,_RNvMsa_NtCsggT0ekrhFaK_5flyby8pipelineINtB5_14SimplePipelineNtCseHB1QHhtQVt_12flyby_memory11StubMessageINtB5_18NetworkBatchSourceNtNtCslaj7P7CWVfX_9flyby_net3sim18SimulatedNetSourceENtNvNtB5_5testss_21network_sim_to_memory15AnyFrameDecoderINtB5_20IdentityPreProcessorBW_EINtB5_14FixedPlacementBW_EE13record_metricB7_
FN:329,_RNvMsa_NtCsggT0ekrhFaK_5flyby8pipelineINtB5_14SimplePipelineNtCseHB1QHhtQVt_12flyby_memory11StubMessageINtB5_18NetworkBatchSourceNtNtCslaj7P7CWVfX_9flyby_net3sim18SimulatedNetSourceENtNvNtB5_5testss_21network_sim_to_memory15AnyFrameDecoderINtB5_20IdentityPreProcessorBW_EINtB5_14FixedPlacementBW_EE14refill_pendingB7_
FN:341,_RNvMsa_NtCsggT0ekrhFaK_5flyby8pipelineINtB5_14SimplePipelineNtCseHB1QHhtQVt_12flyby_memory11StubMessageINtB5_18NetworkBatchSourceNtNtCslaj7P7CWVfX_9flyby_net3sim18SimulatedNetSourceENtNvNtB5_5testss_21network_sim_to_memory15AnyFrameDecoderINtB5_20IdentityPreProcessorBW_EINtB5_14FixedPlacementBW_EE17process_one_frameB7_
FN:358,_RNvMsa_NtCsggT0ekrhFaK_5flyby8pipelineINtB5_14SimplePipelineNtCseHB1QHhtQVt_12flyby_memory11StubMessageINtB5_18NetworkBatchSourceNtNtCslaj7P7CWVfX_9flyby_net3sim18SimulatedNetSourceENtNvNtB5_5testss_21network_sim_to_memory15AnyFrameDecoderINtB5_20IdentityPreProcessorBW_EINtB5_14FixedPlacementBW_EE23write_with_backpressureB7_
FN:254,_RNvMsa_NtCsggT0ekrhFaK_5flyby8pipelineINtB5_14SimplePipelineNtCseHB1QHhtQVt_12flyby_memory11StubMessageINtB5_18NetworkBatchSourceNtNtCslaj7P7CWVfX_9flyby_net3sim18SimulatedNetSourceENtNvNtB5_5testss_21network_sim_to_memory15AnyFrameDecoderINtB5_20IdentityPreProcessorBW_EINtB5_14FixedPlacementBW_EE3newB7_
FN:314,_RNvMsa_NtCsggT0ekrhFaK_5flyby8pipelineINtB5_14SimplePipelineNtCseHB1QHhtQVt_12flyby_memory11StubMessageINtB5_18NetworkBatchSourceNtNtCslaj7P7CWVfX_9flyby_net3sim18SimulatedNetSourceENtNvNtNtB7_7builder5testss_22run_demo_pipeline_runs11DropDecoderINtB5_20IdentityPreProcessorBW_EINtB5_14FixedPlacementBW_EE11ensure_initB7_
FN:290,_RNvMsa_NtCsggT0ekrhFaK_5flyby8pipelineINtB5_14SimplePipelineNtCseHB1QHhtQVt_12flyby_memory11StubMessageINtB5_18NetworkBatchSourceNtNtCslaj7P7CWVfX_9flyby_net3sim18SimulatedNetSourceENtNvNtNtB7_7builder5testss_22run_demo_pipeline_runs11DropDecoderINtB5_20IdentityPreProcessorBW_EINtB5_14FixedPlacementBW_EE12messages_outB7_
FN:323,_RNvMsa_NtCsggT0ekrhFaK_5flyby8pipelineINtB5_14SimplePipelineNtCseHB1QHhtQVt_12flyby_memory11StubMessageINtB5_18NetworkBatchSourceNtNtCslaj7P7CWVfX_9flyby_net3sim18SimulatedNetSourceENtNvNtNtB7_7builder5testss_22run_demo_pipeline_runs11DropDecoderINtB5_20IdentityPreProcessorBW_EINtB5_14FixedPlacementBW_EE13record_metricB7_
FN:329,_RNvMsa_NtCsggT0ekrhFaK_5flyby8pipelineINtB5_14SimplePipelineNtCseHB1QHhtQVt_12flyby_memory11StubMessageINtB5_18NetworkBatchSourceNtNtCslaj7P7CWVfX_9flyby_net3sim18SimulatedNetSourceENtNvNtNtB7_7builder5testss_22run_demo_pipeline_runs11DropDecoderINtB5_20IdentityPreProcessorBW_EINtB5_14FixedPlacementBW_EE14refill_pendingB7_
FN:341,_RNvMsa_NtCsggT0ekrhFaK_5flyby8pipelineINtB5_14SimplePipelineNtCseHB1QHhtQVt_12flyby_memory11StubMessageINtB5_18NetworkBatchSourceNtNtCslaj7P7CWVfX_9flyby_net3sim18SimulatedNetSourceENtNvNtNtB7_7builder5testss_22run_demo_pipeline_runs11DropDecoderINtB5_20IdentityPreProcessorBW_EINtB5_14FixedPlacementBW_EE17process_one_frameB7_
FN:358,_RNvMsa_NtCsggT0ekrhFaK_5flyby8pipelineINtB5_14SimplePipelineNtCseHB1QHhtQVt_12flyby_memory11StubMessageINtB5_18NetworkBatchSourceNtNtCslaj7P7CWVfX_9flyby_net3sim18SimulatedNetSourceENtNvNtNtB7_7builder5testss_22run_demo_pipeline_runs11DropDecoderINtB5_20IdentityPreProcessorBW_EINtB5_14FixedPlacementBW_EE23write_with_backpressureB7_
FN:254,_RNvMsa_NtCsggT0ekrhFaK_5flyby8pipelineINtB5_14SimplePipelineNtCseHB1QHhtQVt_12flyby_memory11StubMessageINtB5_18NetworkBatchSourceNtNtCslaj7P7CWVfX_9flyby_net3sim18SimulatedNetSourceENtNvNtNtB7_7builder5testss_22run_demo_pipeline_runs11DropDecoderINtB5_20IdentityPreProcessorBW_EINtB5_14FixedPlacementBW_EE3newB7_
FN:314,_RNvMsa_NtCsggT0ekrhFaK_5flyby8pipelineINtB5_14SimplePipelineNtCseHB1QHhtQVt_12flyby_memory11StubMessageINtB5_18NetworkBatchSourceNtNtCslaj7P7CWVfX_9flyby_net3sim18SimulatedNetSourceENtNvNtNtB7_7builder5testss_29run_demo_requires_source_flag11DropDecoderINtB5_20IdentityPreProcessorBW_EINtB5_14FixedPlacementBW_EE11ensure_initB7_
FN:290,_RNvMsa_NtCsggT0ekrhFaK_5flyby8pipelineINtB5_14SimplePipelineNtCseHB1QHhtQVt_12flyby_memory11StubMessageINtB5_18NetworkBatchSourceNtNtCslaj7P7CWVfX_9flyby_net3sim18SimulatedNetSourceENtNvNtNtB7_7builder5testss_29run_demo_requires_source_flag11DropDecoderINtB5_20IdentityPreProcessorBW_EINtB5_14FixedPlacementBW_EE12messages_outB7_
FN:323,_RNvMsa_NtCsggT0ekrhFaK_5flyby8pipelineINtB5_14SimplePipelineNtCseHB1QHhtQVt_12flyby_memory11StubMessageINtB5_18NetworkBatchSourceNtNtCslaj7P7CWVfX_9flyby_net3sim18SimulatedNetSourceENtNvNtNtB7_7builder5testss_29run_demo_requires_source_flag11DropDecoderINtB5_20IdentityPreProcessorBW_EINtB5_14FixedPlacementBW_EE13record_metricB7_
FN:329,_RNvMsa_NtCsggT0ekrhFaK_5flyby8pipelineINtB5_14SimplePipelineNtCseHB1QHhtQVt_12flyby_memory11StubMessageINtB5_18NetworkBatchSourceNtNtCslaj7P7CWVfX_9flyby_net3sim18SimulatedNetSourceENtNvNtNtB7_7builder5testss_29run_demo_requires_source_flag11DropDecoderINtB5_20IdentityPreProcessorBW_EINtB5_14FixedPlacementBW_EE14refill_pendingB7_
FN:341,_RNvMsa_NtCsggT0ekrhFaK_5flyby8pipelineINtB5_14SimplePipelineNtCseHB1QHhtQVt_12flyby_memory11StubMessageINtB5_18NetworkBatchSourceNtNtCslaj7P7CWVfX_9flyby_net3sim18SimulatedNetSourceENtNvNtNtB7_7builder5testss_29run_demo_requires_source_flag11DropDecoderINtB5_20IdentityPreProcessorBW_EINtB5_14FixedPlacementBW_EE17process_one_frameB7_
FN:358,_RNvMsa_NtCsggT0ekrhFaK_5flyby8pipelineINtB5_14SimplePipelineNtCseHB1QHhtQVt_12flyby_memory11StubMessageINtB5_18NetworkBatchSourceNtNtCslaj7P7CWVfX_9flyby_net3sim18SimulatedNetSourceENtNvNtNtB7_7builder5testss_29run_demo_requires_source_flag11DropDecoderINtB5_20IdentityPreProcessorBW_EINtB5_14FixedPlacementBW_EE23write_with_backpressureB7_
FN:254,_RNvMsa_NtCsggT0ekrhFaK_5flyby8pipelineINtB5_14SimplePipelineNtCseHB1QHhtQVt_12flyby_memory11StubMessageINtB5_18NetworkBatchSourceNtNtCslaj7P7CWVfX_9flyby_net3sim18SimulatedNetSourceENtNvNtNtB7_7builder5testss_29run_demo_requires_source_flag11DropDecoderINtB5_20IdentityPreProcessorBW_EINtB5_14FixedPlacementBW_EE3newB7_
FN:314,_RNvMsa_NtCsggT0ekrhFaK_5flyby8pipelineINtB5_14SimplePipelineNtNtB5_5tests4TickNtBY_9VecSourceNtBY_11TickDecoderINtB5_20IdentityPreProcessorBW_EINtB5_14FixedPlacementBW_EE11ensure_initB7_
FN:290,_RNvMsa_NtCsggT0ekrhFaK_5flyby8pipelineINtB5_14SimplePipelineNtNtB5_5tests4TickNtBY_9VecSourceNtBY_11TickDecoderINtB5_20IdentityPreProcessorBW_EINtB5_14FixedPlacementBW_EE12messages_outB7_
FN:323,_RNvMsa_NtCsggT0ekrhFaK_5flyby8pipelineINtB5_14SimplePipelineNtNtB5_5tests4TickNtBY_9VecSourceNtBY_11TickDecoderINtB5_20IdentityPreProcessorBW_EINtB5_14FixedPlacementBW_EE13record_metricB7_
FN:329,_RNvMsa_NtCsggT0ekrhFaK_5flyby8pipelineINtB5_14SimplePipelineNtNtB5_5tests4TickNtBY_9VecSourceNtBY_11TickDecoderINtB5_20IdentityPreProcessorBW_EINtB5_14FixedPlacementBW_EE14refill_pendingB7_
FN:341,_RNvMsa_NtCsggT0ekrhFaK_5flyby8pipelineINtB5_14SimplePipelineNtNtB5_5tests4TickNtBY_9VecSourceNtBY_11TickDecoderINtB5_20IdentityPreProcessorBW_EINtB5_14FixedPlacementBW_EE17process_one_frameB7_
FN:358,_RNvMsa_NtCsggT0ekrhFaK_5flyby8pipelineINtB5_14SimplePipelineNtNtB5_5tests4TickNtBY_9VecSourceNtBY_11TickDecoderINtB5_20IdentityPreProcessorBW_EINtB5_14FixedPlacementBW_EE23write_with_backpressureB7_
FN:254,_RNvMsa_NtCsggT0ekrhFaK_5flyby8pipelineINtB5_14SimplePipelineNtNtB5_5tests4TickNtBY_9VecSourceNtBY_11TickDecoderINtB5_20IdentityPreProcessorBW_EINtB5_14FixedPlacementBW_EE3newB7_
FN:607,_RNvMsd_NtCsggT0ekrhFaK_5flyby8pipelineINtB5_18NetworkBatchSourceNtNtCslaj7P7CWVfX_9flyby_net3sim18SimulatedNetSourceE3newB7_
FN:38,_RNvXNtCsggT0ekrhFaK_5flyby8pipelineINtB2_20IdentityPreProcessorNtCseHB1QHhtQVt_12flyby_memory11StubMessageENtNtCsl8K0bEFm1U0_4core7default7Default7defaultB4_
FN:38,_RNvXNtCsggT0ekrhFaK_5flyby8pipelineINtB2_20IdentityPreProcessorNtNtB2_5tests4TickENtNtCsl8K0bEFm1U0_4core7default7Default7defaultB4_
FN:76,_RNvXs1_NtCsggT0ekrhFaK_5flyby8pipelineINtB5_14FixedPlacementNtCseHB1QHhtQVt_12flyby_memory11StubMessageENtNtCscf8MsWp3cCb_10flyby_core9placement9Placement5routeB7_
FN:76,_RNvXs1_NtCsggT0ekrhFaK_5flyby8pipelineINtB5_14FixedPlacementNtNtB5_5tests4TickENtNtCscf8MsWp3cCb_10flyby_core9placement9Placement5routeB7_
FN:46,_RNvXs_NtCsggT0ekrhFaK_5flyby8pipelineINtB4_20IdentityPreProcessorNtCseHB1QHhtQVt_12flyby_memory11StubMessageENtNtCscf8MsWp3cCb_10flyby_core12preprocessor12PreProcessor7processB6_
FN:46,_RNvXs_NtCsggT0ekrhFaK_5flyby8pipelineINtB4_20IdentityPreProcessorNtNtB4_5tests4TickENtNtCscf8MsWp3cCb_10flyby_core12preprocessor12PreProcessor7processB6_
FN:461,_RNvXsb_NtCsggT0ekrhFaK_5flyby8pipelineINtB5_14SimplePipelineNtCseHB1QHhtQVt_12flyby_memory11StubMessageINtB5_18NetworkBatchSourceNtNtCslaj7P7CWVfX_9flyby_net3sim18SimulatedNetSourceENtNvNtB5_5testss_21network_sim_to_memory15AnyFrameDecoderINtB5_20IdentityPreProcessorBW_EINtB5_14FixedPlacementBW_EENtNtCscf8MsWp3cCb_10flyby_core9lifecycle9Lifecycle4initB7_
FN:480,_RNvXsb_NtCsggT0ekrhFaK_5flyby8pipelineINtB5_14SimplePipelineNtCseHB1QHhtQVt_12flyby_memory11StubMessageINtB5_18NetworkBatchSourceNtNtCslaj7P7CWVfX_9flyby_net3sim18SimulatedNetSourceENtNvNtB5_5testss_21network_sim_to_memory15AnyFrameDecoderINtB5_20IdentityPreProcessorBW_EINtB5_14FixedPlacementBW_EENtNtCscf8MsWp3cCb_10flyby_core9lifecycle9Lifecycle8shutdownB7_
FN:461,_RNvXsb_NtCsggT0ekrhFaK_5flyby8pipelineINtB5_14SimplePipelineNtCseHB1QHhtQVt_12flyby_memory11StubMessageINtB5_18NetworkBatchSourceNtNtCslaj7P7CWVfX_9flyby_net3sim18SimulatedNetSourceENtNvNtNtB7_7builder5testss_22run_demo_pipeline_runs11DropDecoderINtB5_20IdentityPreProcessorBW_EINtB5_14FixedPlacementBW_EENtNtCscf8MsWp3cCb_10flyby_core9lifecycle9Lifecycle4initB7_
FN:480,_RNvXsb_NtCsggT0ekrhFaK_5flyby8pipelineINtB5_14SimplePipelineNtCseHB1QHhtQVt_12flyby_memory11StubMessageINtB5_18NetworkBatchSourceNtNtCslaj7P7CWVfX_9flyby_net3sim18SimulatedNetSourceENtNvNtNtB7_7builder5testss_22run_demo_pipeline_runs11DropDecoderINtB5_20IdentityPreProcessorBW_EINtB5_14FixedPlacementBW_EENtNtCscf8MsWp3cCb_10flyby_core9lifecycle9Lifecycle8shutdownB7_
FN:461,_RNvXsb_NtCsggT0ekrhFaK_5flyby8pipelineINtB5_14SimplePipelineNtCseHB1QHhtQVt_12flyby_memory11StubMessageINtB5_18NetworkBatchSourceNtNtCslaj7P7CWVfX_9flyby_net3sim18SimulatedNetSourceENtNvNtNtB7_7builder5testss_29run_demo_requires_source_flag11DropDecoderINtB5_20IdentityPreProcessorBW_EINtB5_14FixedPlacementBW_EENtNtCscf8MsWp3cCb_10flyby_core9lifecycle9Lifecycle4initB7_
FN:480,_RNvXsb_NtCsggT0ekrhFaK_5flyby8pipelineINtB5_14SimplePipelineNtCseHB1QHhtQVt_12flyby_memory11StubMessageINtB5_18NetworkBatchSourceNtNtCslaj7P7CWVfX_9flyby_net3sim18SimulatedNetSourceENtNvNtNtB7_7builder5testss_29run_demo_requires_source_flag11DropDecoderINtB5_20IdentityPreProcessorBW_EINtB5_14FixedPlacementBW_EENtNtCscf8MsWp3cCb_10flyby_core9lifecycle9Lifecycle8shutdownB7_
FN:461,_RNvXsb_NtCsggT0ekrhFaK_5flyby8pipelineINtB5_14SimplePipelineNtNtB5_5tests4TickNtBY_9VecSourceNtBY_11TickDecoderINtB5_20IdentityPreProcessorBW_EINtB5_14FixedPlacementBW_EENtNtCscf8MsWp3cCb_10flyby_core9lifecycle9Lifecycle4initB7_
FN:480,_RNvXsb_NtCsggT0ekrhFaK_5flyby8pipelineINtB5_14SimplePipelineNtNtB5_5tests4TickNtBY_9VecSourceNtBY_11TickDecoderINtB5_20IdentityPreProcessorBW_EINtB5_14FixedPlacementBW_EENtNtCscf8MsWp3cCb_10flyby_core9lifecycle9Lifecycle8shutdownB7_
FN:522,_RNvXsc_NtCsggT0ekrhFaK_5flyby8pipelineINtB5_14SimplePipelineNtCseHB1QHhtQVt_12flyby_memory11StubMessageINtB5_18NetworkBatchSourceNtNtCslaj7P7CWVfX_9flyby_net3sim18SimulatedNetSourceENtNvNtB5_5testss_21network_sim_to_memory15AnyFrameDecoderINtB5_20IdentityPreProcessorBW_EINtB5_14FixedPlacementBW_EENtNtCscf8MsWp3cCb_10flyby_core8pipeline8Pipeline12step_outcomeB7_
FN:573,_RNvXsc_NtCsggT0ekrhFaK_5flyby8pipelineINtB5_14SimplePipelineNtCseHB1QHhtQVt_12flyby_memory11StubMessageINtB5_18NetworkBatchSourceNtNtCslaj7P7CWVfX_9flyby_net3sim18SimulatedNetSourceENtNvNtB5_5testss_21network_sim_to_memory15AnyFrameDecoderINtB5_20IdentityPreProcessorBW_EINtB5_14FixedPlacementBW_EENtNtCscf8MsWp3cCb_10flyby_core8pipeline8Pipeline13register_sinkB7_
FN:522,_RNvXsc_NtCsggT0ekrhFaK_5flyby8pipelineINtB5_14SimplePipelineNtCseHB1QHhtQVt_12flyby_memory11StubMessageINtB5_18NetworkBatchSourceNtNtCslaj7P7CWVfX_9flyby_net3sim18SimulatedNetSourceENtNvNtNtB7_7builder5testss_22run_demo_pipeline_runs11DropDecoderINtB5_20IdentityPreProcessorBW_EINtB5_14FixedPlacementBW_EENtNtCscf8MsWp3cCb_10flyby_core8pipeline8Pipeline12step_outcomeB7_
FN:573,_RNvXsc_NtCsggT0ekrhFaK_5flyby8pipelineINtB5_14SimplePipelineNtCseHB1QHhtQVt_12flyby_memory11StubMessageINtB5_18NetworkBatchSourceNtNtCslaj7P7CWVfX_9flyby_net3sim18SimulatedNetSourceENtNvNtNtB7_7builder5testss_22run_demo_pipeline_runs11DropDecoderINtB5_20IdentityPreProcessorBW_EINtB5_14FixedPlacementBW_EENtNtCscf8MsWp3cCb_10flyby_core8pipeline8Pipeline13register_sinkB7_
FN:522,_RNvXsc_NtCsggT0ekrhFaK_5flyby8pipelineINtB5_14SimplePipelineNtCseHB1QHhtQVt_12flyby_memory11StubMessageINtB5_18NetworkBatchSourceNtNtCslaj7P7CWVfX_9flyby_net3sim18SimulatedNetSourceENtNvNtNtB7_7builder5testss_29run_demo_requires_source_flag11DropDecoderINtB5_20IdentityPreProcessorBW_EINtB5_14FixedPlacementBW_EENtNtCscf8MsWp3cCb_10flyby_core8pipeline8Pipeline12step_outcomeB7_
FN:573,_RNvXsc_NtCsggT0ekrhFaK_5flyby8pipelineINtB5_14SimplePipelineNtCseHB1QHhtQVt_12flyby_memory11StubMessageINtB5_18NetworkBatchSourceNtNtCslaj7P7CWVfX_9flyby_net3sim18SimulatedNetSourceENtNvNtNtB7_7builder5testss_29run_demo_requires_source_flag11DropDecoderINtB5_20IdentityPreProcessorBW_EINtB5_14FixedPlacementBW_EENtNtCscf8MsWp3cCb_10flyby_core8pipeline8Pipeline13register_sinkB7_
FN:522,_RNvXsc_NtCsggT0ekrhFaK_5flyby8pipelineINtB5_14SimplePipelineNtNtB5_5tests4TickNtBY_9VecSourceNtBY_11TickDecoderINtB5_20IdentityPreProcessorBW_EINtB5_14FixedPlacementBW_EENtNtCscf8MsWp3cCb_10flyby_core8pipeline8Pipeline12step_outcomeB7_
FN:573,_RNvXsc_NtCsggT0ekrhFaK_5flyby8pipelineINtB5_14SimplePipelineNtNtB5_5tests4TickNtBY_9VecSourceNtBY_11TickDecoderINtB5_20IdentityPreProcessorBW_EINtB5_14FixedPlacementBW_EENtNtCscf8MsWp3cCb_10flyby_core8pipeline8Pipeline13register_sinkB7_
FN:626,_RNvXse_NtCsggT0ekrhFaK_5flyby8pipelineINtB5_18NetworkBatchSourceNtNtCslaj7P7CWVfX_9flyby_net3sim18SimulatedNetSourceENtNtCscf8MsWp3cCb_10flyby_core9lifecycle9Lifecycle4initB7_
FN:630,_RNvXse_NtCsggT0ekrhFaK_5flyby8pipelineINtB5_18NetworkBatchSourceNtNtCslaj7P7CWVfX_9flyby_net3sim18SimulatedNetSourceENtNtCscf8MsWp3cCb_10flyby_core9lifecycle9Lifecycle8shutdownB7_
FN:636,_RNvXsf_NtCsggT0ekrhFaK_5flyby8pipelineINtB5_18NetworkBatchSourceNtNtCslaj7P7CWVfX_9flyby_net3sim18SimulatedNetSourceENtB5_14RawBatchSource11poll_framesB7_
FN:28,_RNvYINtNtCsggT0ekrhFaK_5flyby8pipeline18NetworkBatchSourceNtNtCslaj7P7CWVfX_9flyby_net3sim18SimulatedNetSourceENtB5_14RawBatchSource12is_exhaustedB7_
FN:800,_RNvNtNtCsggT0ekrhFaK_5flyby8pipeline5testss_21end_to_end_vec_source
FN:840,_RNvNtNtCsggT0ekrhFaK_5flyby8pipeline5testss_21network_sim_to_memory
FN:849,_RNvXNvNtNtCsggT0ekrhFaK_5flyby8pipeline5testss_21network_sim_to_memoryNtB2_15AnyFrameDecoderNtNtCscf8MsWp3cCb_10flyby_core7decoder7Decoder6decode
FN:741,_RNvXs0_NtNtCsggT0ekrhFaK_5flyby8pipeline5testsNtB5_11TickDecoderNtNtCscf8MsWp3cCb_10flyby_core7decoder7Decoder6decode
FN:757,_RNvXs1_NtNtCsggT0ekrhFaK_5flyby8pipeline5testsNtB5_9VecSourceNtNtCscf8MsWp3cCb_10flyby_core9lifecycle9Lifecycle4init
FN:762,_RNvXs1_NtNtCsggT0ekrhFaK_5flyby8pipeline5testsNtB5_9VecSourceNtNtCscf8MsWp3cCb_10flyby_core9lifecycle9Lifecycle8shutdown
FN:769,_RNvXs2_NtNtCsggT0ekrhFaK_5flyby8pipeline5testsNtB5_9VecSourceNtB7_14RawBatchSource11poll_frames
FN:781,_RNvXs2_NtNtCsggT0ekrhFaK_5flyby8pipeline5testsNtB5_9VecSourceNtB7_14RawBatchSource12is_exhausted
FN:793,_RNvXs4_NtNtCsggT0ekrhFaK_5flyby8pipeline5testsNtB5_11CollectSinkNtNtCscf8MsWp3cCb_10flyby_core4sink4Sink5write
FN:732,_RNvXs_NtNtCsggT0ekrhFaK_5flyby8pipeline5testsNtB4_4TickNtNtCscf8MsWp3cCb_10flyby_core7encoder6Encode11encode_into
FN:273,_RINvMsa_NtCsggT0ekrhFaK_5flyby8pipelineINtB6_14SimplePipelinepppppE12with_metricspEB8_
FN:184,_RINvNtCsggT0ekrhFaK_5flyby8pipeline21schema_hash_placementpEB4_
FN:185,_RNCINvNtCsggT0ekrhFaK_5flyby8pipeline21schema_hash_placementpE0B6_
FN:115,_RNCNvMs4_NtCsggT0ekrhFaK_5flyby8pipelineINtB7_19RoundRobinPlacementpE3new0B9_
FN:155,_RNCNvMs6_NtCsggT0ekrhFaK_5flyby8pipelineINtB7_13HashPlacementppE3new0B9_
FN:109,_RNvMs4_NtCsggT0ekrhFaK_5flyby8pipelineINtB5_19RoundRobinPlacementpE3newB7_
FN:151,_RNvMs6_NtCsggT0ekrhFaK_5flyby8pipelineINtB5_13HashPlacementppE3newB7_
FN:200,_RNvMs8_NtCsggT0ekrhFaK_5flyby8pipelineINtB5_17CallbackPlacementppE3newB7_
FN:310,_RNvMsa_NtCsggT0ekrhFaK_5flyby8pipelineINtB5_14SimplePipelinepppppE10source_mutB7_
FN:279,_RNvMsa_NtCsggT0ekrhFaK_5flyby8pipelineINtB5_14SimplePipelinepppppE12with_runtimeB7_
FN:285,_RNvMsa_NtCsggT0ekrhFaK_5flyby8pipelineINtB5_14SimplePipelinepppppE14runtime_configB7_
FN:295,_RNvMsa_NtCsggT0ekrhFaK_5flyby8pipelineINtB5_14SimplePipelinepppppE16messages_droppedB7_
FN:300,_RNvMsa_NtCsggT0ekrhFaK_5flyby8pipelineINtB5_14SimplePipelinepppppE19backpressure_eventsB7_
FN:305,_RNvMsa_NtCsggT0ekrhFaK_5flyby8pipelineINtB5_14SimplePipelinepppppE6sourceB7_
FN:615,_RNvMsd_NtCsggT0ekrhFaK_5flyby8pipelineINtB5_18NetworkBatchSourcepE5innerB7_
FN:620,_RNvMsd_NtCsggT0ekrhFaK_5flyby8pipelineINtB5_18NetworkBatchSourcepE9inner_mutB7_
FN:662,_RNvMsg_NtCsggT0ekrhFaK_5flyby8pipelineINtB5_18StorageBatchSourcepE16from_file_configB7_
FN:654,_RNvMsg_NtCsggT0ekrhFaK_5flyby8pipelineINtB5_18StorageBatchSourcepE3newB7_
FN:667,_RNvMsg_NtCsggT0ekrhFaK_5flyby8pipelineINtB5_18StorageBatchSourcepE5innerB7_
FN:672,_RNvMsg_NtCsggT0ekrhFaK_5flyby8pipelineINtB5_18StorageBatchSourcepE9inner_mutB7_
FN:86,_RNvXININtCsggT0ekrhFaK_5flyby8pipelines2_0pEINtB5_16DropAllPlacementpENtNtCsl8K0bEFm1U0_4core7default7Default7defaultB7_
FN:94,_RNvXININtCsggT0ekrhFaK_5flyby8pipelines3_0pEINtB5_16DropAllPlacementpENtNtCscf8MsWp3cCb_10flyby_core9placement9Placement5routeB7_
FN:131,_RNvXININtCsggT0ekrhFaK_5flyby8pipelines5_0pEINtB5_19RoundRobinPlacementpENtNtCscf8MsWp3cCb_10flyby_core9placement9Placement5routeB7_
FN:173,_RNvXININtCsggT0ekrhFaK_5flyby8pipelines7_0ppEINtB5_13HashPlacementppENtNtCscf8MsWp3cCb_10flyby_core9placement9Placement5routeB7_
FN:215,_RNvXININtCsggT0ekrhFaK_5flyby8pipelines9_0ppEINtB5_17CallbackPlacementppENtNtCscf8MsWp3cCb_10flyby_core9placement9Placement5routeB7_
FN:499,_RNvXININtCsggT0ekrhFaK_5flyby8pipelinesb_0pppppEINtB5_14SimplePipelinepppppENtNtCscf8MsWp3cCb_10flyby_core9lifecycle9Lifecycle3runB7_
FN:515,_RNvXININtCsggT0ekrhFaK_5flyby8pipelinesc_0pppppEINtB5_14SimplePipelinepppppENtNtCscf8MsWp3cCb_10flyby_core8pipeline8Pipeline4stepB7_
FN:678,_RNvXININtCsggT0ekrhFaK_5flyby8pipelinesh_0pEINtB5_18StorageBatchSourcepENtNtCscf8MsWp3cCb_10flyby_core9lifecycle9Lifecycle4initB7_
FN:682,_RNvXININtCsggT0ekrhFaK_5flyby8pipelinesh_0pEINtB5_18StorageBatchSourcepENtNtCscf8MsWp3cCb_10flyby_core9lifecycle9Lifecycle8shutdownB7_
FN:688,_RNvXININtCsggT0ekrhFaK_5flyby8pipelinesi_0pEINtB5_18StorageBatchSourcepENtB5_14RawBatchSource11poll_framesB7_
FN:697,_RNvXININtCsggT0ekrhFaK_5flyby8pipelinesi_0pEINtB5_18StorageBatchSourcepENtB5_14RawBatchSource12is_exhaustedB7_
FN:720,_RNvXNtNtCsggT0ekrhFaK_5flyby8pipeline5testsNtB2_4TickNtNtCscf8MsWp3cCb_10flyby_core7message7Message8metadata
FN:714,_RNvXNtNtCsggT0ekrhFaK_5flyby8pipeline5testsNtB2_4TickNtNtCscf8MsWp3cCb_10flyby_core7message7Message9schema_id
FN:717,_RNvXNtNtCsggT0ekrhFaK_5flyby8pipeline5testsNtB2_4TickNtNtCscf8MsWp3cCb_10flyby_core7message7Message9timestamp
FN:729,_RNvXs_NtNtCsggT0ekrhFaK_5flyby8pipeline5testsNtB4_4TickNtNtCscf8MsWp3cCb_10flyby_core7encoder6Encode11encoded_len
FN:802,_RNCNvNtNtCsggT0ekrhFaK_5flyby8pipeline5testss_21end_to_end_vec_source0B7_
FN:184,_RINvNtCseu8ThHmJ8jM_5flyby8pipeline21schema_hash_placementNtCsip1xAQdcTWT_7runtime4TickEBW_
FN:185,_RNCINvNtCseu8ThHmJ8jM_5flyby8pipeline21schema_hash_placementNtCsip1xAQdcTWT_7runtime4TickE0BY_
FN:115,_RNCNvMs4_NtCseu8ThHmJ8jM_5flyby8pipelineINtB7_19RoundRobinPlacementNtCsip1xAQdcTWT_7runtime4TickE3new0B15_
FN:155,_RNCNvMs6_NtCseu8ThHmJ8jM_5flyby8pipelineINtB7_13HashPlacementNtCsip1xAQdcTWT_7runtime4TickFG_RL0_BX_EyE3new0BZ_
FN:363,_RNCNvMsa_NtCseu8ThHmJ8jM_5flyby8pipelineINtB7_14SimplePipelineNtCsip1xAQdcTWT_7runtime4TickNtB10_9VecSourceNtB10_11TickDecoderINtB7_20IdentityPreProcessorBY_EINtB7_14FixedPlacementBY_EE23write_with_backpressure0B10_
FN:363,_RNCNvMsa_NtCseu8ThHmJ8jM_5flyby8pipelineINtB7_14SimplePipelineNtCsip1xAQdcTWT_7runtime4TickNtB10_9VecSourceNtB10_11TickDecoderINtB7_20IdentityPreProcessorBY_EINtB7_17CallbackPlacementBY_NCNvB10_s_34callback_and_schema_hash_placement0EE23write_with_backpressure0B10_
FN:363,_RNCNvMsa_NtCseu8ThHmJ8jM_5flyby8pipelineINtB7_14SimplePipelineNtCsip1xAQdcTWT_7runtime4TickNtB10_9VecSourceNtB10_11TickDecoderINtB7_20IdentityPreProcessorBY_EINtB7_19RoundRobinPlacementBY_EE23write_with_backpressure0B10_
FN:483,_RNCNvXsb_NtCseu8ThHmJ8jM_5flyby8pipelineINtB7_14SimplePipelineNtCsip1xAQdcTWT_7runtime4TickNtB10_9VecSourceNtB10_11TickDecoderINtB7_20IdentityPreProcessorBY_EINtB7_14FixedPlacementBY_EENtNtCscf8MsWp3cCb_10flyby_core9lifecycle9Lifecycle8shutdown0B10_
FN:483,_RNCNvXsb_NtCseu8ThHmJ8jM_5flyby8pipelineINtB7_14SimplePipelineNtCsip1xAQdcTWT_7runtime4TickNtB10_9VecSourceNtB10_11TickDecoderINtB7_20IdentityPreProcessorBY_EINtB7_17CallbackPlacementBY_NCNvB10_s_34callback_and_schema_hash_placement0EENtNtCscf8MsWp3cCb_10flyby_core9lifecycle9Lifecycle8shutdown0B10_
FN:483,_RNCNvXsb_NtCseu8ThHmJ8jM_5flyby8pipelineINtB7_14SimplePipelineNtCsip1xAQdcTWT_7runtime4TickNtB10_9VecSourceNtB10_11TickDecoderINtB7_20IdentityPreProcessorBY_EINtB7_19RoundRobinPlacementBY_EENtNtCscf8MsWp3cCb_10flyby_core9lifecycle9Lifecycle8shutdown0B10_
FN:60,_RNvMs0_NtCseu8ThHmJ8jM_5flyby8pipelineINtB5_14FixedPlacementNtCsip1xAQdcTWT_7runtime4TickE3newBY_
FN:109,_RNvMs4_NtCseu8ThHmJ8jM_5flyby8pipelineINtB5_19RoundRobinPlacementNtCsip1xAQdcTWT_7runtime4TickE3newB13_
FN:151,_RNvMs6_NtCseu8ThHmJ8jM_5flyby8pipelineINtB5_13HashPlacementNtCsip1xAQdcTWT_7runtime4TickFG_RL0_BV_EyE3newBX_
FN:200,_RNvMs8_NtCseu8ThHmJ8jM_5flyby8pipelineINtB5_17CallbackPlacementNtCsip1xAQdcTWT_7runtime4TickNCNvB11_s_34callback_and_schema_hash_placement0E3newB11_
FN:314,_RNvMsa_NtCseu8ThHmJ8jM_5flyby8pipelineINtB5_14SimplePipelineNtCsip1xAQdcTWT_7runtime4TickNtBY_9VecSourceNtBY_11TickDecoderINtB5_20IdentityPreProcessorBW_EINtB5_14FixedPlacementBW_EE11ensure_initBY_
FN:279,_RNvMsa_NtCseu8ThHmJ8jM_5flyby8pipelineINtB5_14SimplePipelineNtCsip1xAQdcTWT_7runtime4TickNtBY_9VecSourceNtBY_11TickDecoderINtB5_20IdentityPreProcessorBW_EINtB5_14FixedPlacementBW_EE12with_runtimeBY_
FN:323,_RNvMsa_NtCseu8ThHmJ8jM_5flyby8pipelineINtB5_14SimplePipelineNtCsip1xAQdcTWT_7runtime4TickNtBY_9VecSourceNtBY_11TickDecoderINtB5_20IdentityPreProcessorBW_EINtB5_14FixedPlacementBW_EE13record_metricBY_
FN:329,_RNvMsa_NtCseu8ThHmJ8jM_5flyby8pipelineINtB5_14SimplePipelineNtCsip1xAQdcTWT_7runtime4TickNtBY_9VecSourceNtBY_11TickDecoderINtB5_20IdentityPreProcessorBW_EINtB5_14FixedPlacementBW_EE14refill_pendingBY_
FN:295,_RNvMsa_NtCseu8ThHmJ8jM_5flyby8pipelineINtB5_14SimplePipelineNtCsip1xAQdcTWT_7runtime4TickNtBY_9VecSourceNtBY_11TickDecoderINtB5_20IdentityPreProcessorBW_EINtB5_14FixedPlacementBW_EE16messages_droppedBY_
FN:341,_RNvMsa_NtCseu8ThHmJ8jM_5flyby8pipelineINtB5_14SimplePipelineNtCsip1xAQdcTWT_7runtime4TickNtBY_9VecSourceNtBY_11TickDecoderINtB5_20IdentityPreProcessorBW_EINtB5_14FixedPlacementBW_EE17process_one_frameBY_
FN:300,_RNvMsa_NtCseu8ThHmJ8jM_5flyby8pipelineINtB5_14SimplePipelineNtCsip1xAQdcTWT_7runtime4TickNtBY_9VecSourceNtBY_11TickDecoderINtB5_20IdentityPreProcessorBW_EINtB5_14FixedPlacementBW_EE19backpressure_eventsBY_
FN:358,_RNvMsa_NtCseu8ThHmJ8jM_5flyby8pipelineINtB5_14SimplePipelineNtCsip1xAQdcTWT_7runtime4TickNtBY_9VecSourceNtBY_11TickDecoderINtB5_20IdentityPreProcessorBW_EINtB5_14FixedPlacementBW_EE23write_with_backpressureBY_
FN:254,_RNvMsa_NtCseu8ThHmJ8jM_5flyby8pipelineINtB5_14SimplePipelineNtCsip1xAQdcTWT_7runtime4TickNtBY_9VecSourceNtBY_11TickDecoderINtB5_20IdentityPreProcessorBW_EINtB5_14FixedPlacementBW_EE3newBY_
FN:314,_RNvMsa_NtCseu8ThHmJ8jM_5flyby8pipelineINtB5_14SimplePipelineNtCsip1xAQdcTWT_7runtime4TickNtBY_9VecSourceNtBY_11TickDecoderINtB5_20IdentityPreProcessorBW_EINtB5_17CallbackPlacementBW_NCNvBY_s_34callback_and_schema_hash_placement0EE11ensure_initBY_
FN:323,_RNvMsa_NtCseu8ThHmJ8jM_5flyby8pipelineINtB5_14SimplePipelineNtCsip1xAQdcTWT_7runtime4TickNtBY_9VecSourceNtBY_11TickDecoderINtB5_20IdentityPreProcessorBW_EINtB5_17CallbackPlacementBW_NCNvBY_s_34callback_and_schema_hash_placement0EE13record_metricBY_
FN:329,_RNvMsa_NtCseu8ThHmJ8jM_5flyby8pipelineINtB5_14SimplePipelineNtCsip1xAQdcTWT_7runtime4TickNtBY_9VecSourceNtBY_11TickDecoderINtB5_20IdentityPreProcessorBW_EINtB5_17CallbackPlacementBW_NCNvBY_s_34callback_and_schema_hash_placement0EE14refill_pendingBY_
FN:341,_RNvMsa_NtCseu8ThHmJ8jM_5flyby8pipelineINtB5_14SimplePipelineNtCsip1xAQdcTWT_7runtime4TickNtBY_9VecSourceNtBY_11TickDecoderINtB5_20IdentityPreProcessorBW_EINtB5_17CallbackPlacementBW_NCNvBY_s_34callback_and_schema_hash_placement0EE17process_one_frameBY_
FN:358,_RNvMsa_NtCseu8ThHmJ8jM_5flyby8pipelineINtB5_14SimplePipelineNtCsip1xAQdcTWT_7runtime4TickNtBY_9VecSourceNtBY_11TickDecoderINtB5_20IdentityPreProcessorBW_EINtB5_17CallbackPlacementBW_NCNvBY_s_34callback_and_schema_hash_placement0EE23write_with_backpressureBY_
FN:254,_RNvMsa_NtCseu8ThHmJ8jM_5flyby8pipelineINtB5_14SimplePipelineNtCsip1xAQdcTWT_7runtime4TickNtBY_9VecSourceNtBY_11TickDecoderINtB5_20IdentityPreProcessorBW_EINtB5_17CallbackPlacementBW_NCNvBY_s_34callback_and_schema_hash_placement0EE3newBY_
FN:314,_RNvMsa_NtCseu8ThHmJ8jM_5flyby8pipelineINtB5_14SimplePipelineNtCsip1xAQdcTWT_7runtime4TickNtBY_9VecSourceNtBY_11TickDecoderINtB5_20IdentityPreProcessorBW_EINtB5_19RoundRobinPlacementBW_EE11ensure_initBY_
FN:323,_RNvMsa_NtCseu8ThHmJ8jM_5flyby8pipelineINtB5_14SimplePipelineNtCsip1xAQdcTWT_7runtime4TickNtBY_9VecSourceNtBY_11TickDecoderINtB5_20IdentityPreProcessorBW_EINtB5_19RoundRobinPlacementBW_EE13record_metricBY_
FN:329,_RNvMsa_NtCseu8ThHmJ8jM_5flyby8pipelineINtB5_14SimplePipelineNtCsip1xAQdcTWT_7runtime4TickNtBY_9VecSourceNtBY_11TickDecoderINtB5_20IdentityPreProcessorBW_EINtB5_19RoundRobinPlacementBW_EE14refill_pendingBY_
FN:341,_RNvMsa_NtCseu8ThHmJ8jM_5flyby8pipelineINtB5_14SimplePipelineNtCsip1xAQdcTWT_7runtime4TickNtBY_9VecSourceNtBY_11TickDecoderINtB5_20IdentityPreProcessorBW_EINtB5_19RoundRobinPlacementBW_EE17process_one_frameBY_
FN:358,_RNvMsa_NtCseu8ThHmJ8jM_5flyby8pipelineINtB5_14SimplePipelineNtCsip1xAQdcTWT_7runtime4TickNtBY_9VecSourceNtBY_11TickDecoderINtB5_20IdentityPreProcessorBW_EINtB5_19RoundRobinPlacementBW_EE23write_with_backpressureBY_
FN:254,_RNvMsa_NtCseu8ThHmJ8jM_5flyby8pipelineINtB5_14SimplePipelineNtCsip1xAQdcTWT_7runtime4TickNtBY_9VecSourceNtBY_11TickDecoderINtB5_20IdentityPreProcessorBW_EINtB5_19RoundRobinPlacementBW_EE3newBY_
FN:38,_RNvXNtCseu8ThHmJ8jM_5flyby8pipelineINtB2_20IdentityPreProcessorNtCsip1xAQdcTWT_7runtime4TickENtNtCsl8K0bEFm1U0_4core7default7Default7defaultB11_
FN:76,_RNvXs1_NtCseu8ThHmJ8jM_5flyby8pipelineINtB5_14FixedPlacementNtCsip1xAQdcTWT_7runtime4TickENtNtCscf8MsWp3cCb_10flyby_core9placement9Placement5routeBY_
FN:131,_RNvXs5_NtCseu8ThHmJ8jM_5flyby8pipelineINtB5_19RoundRobinPlacementNtCsip1xAQdcTWT_7runtime4TickENtNtCscf8MsWp3cCb_10flyby_core9placement9Placement5routeB13_
FN:215,_RNvXs9_NtCseu8ThHmJ8jM_5flyby8pipelineINtB5_17CallbackPlacementNtCsip1xAQdcTWT_7runtime4TickNCNvB11_s_34callback_and_schema_hash_placement0ENtNtCscf8MsWp3cCb_10flyby_core9placement9Placement5routeB11_
FN:46,_RNvXs_NtCseu8ThHmJ8jM_5flyby8pipelineINtB4_20IdentityPreProcessorNtCsip1xAQdcTWT_7runtime4TickENtNtCscf8MsWp3cCb_10flyby_core12preprocessor12PreProcessor7processB13_
FN:461,_RNvXsb_NtCseu8ThHmJ8jM_5flyby8pipelineINtB5_14SimplePipelineNtCsip1xAQdcTWT_7runtime4TickNtBY_9VecSourceNtBY_11TickDecoderINtB5_20IdentityPreProcessorBW_EINtB5_14FixedPlacementBW_EENtNtCscf8MsWp3cCb_10flyby_core9lifecycle9Lifecycle4initBY_
FN:480,_RNvXsb_NtCseu8ThHmJ8jM_5flyby8pipelineINtB5_14SimplePipelineNtCsip1xAQdcTWT_7runtime4TickNtBY_9VecSourceNtBY_11TickDecoderINtB5_20IdentityPreProcessorBW_EINtB5_14FixedPlacementBW_EENtNtCscf8MsWp3cCb_10flyby_core9lifecycle9Lifecycle8shutdownBY_
FN:461,_RNvXsb_NtCseu8ThHmJ8jM_5flyby8pipelineINtB5_14SimplePipelineNtCsip1xAQdcTWT_7runtime4TickNtBY_9VecSourceNtBY_11TickDecoderINtB5_20IdentityPreProcessorBW_EINtB5_17CallbackPlacementBW_NCNvBY_s_34callback_and_schema_hash_placement0EENtNtCscf8MsWp3cCb_10flyby_core9lifecycle9Lifecycle4initBY_
FN:480,_RNvXsb_NtCseu8ThHmJ8jM_5flyby8pipelineINtB5_14SimplePipelineNtCsip1xAQdcTWT_7runtime4TickNtBY_9VecSourceNtBY_11TickDecoderINtB5_20IdentityPreProcessorBW_EINtB5_17CallbackPlacementBW_NCNvBY_s_34callback_and_schema_hash_placement0EENtNtCscf8MsWp3cCb_10flyby_core9lifecycle9Lifecycle8shutdownBY_
FN:461,_RNvXsb_NtCseu8ThHmJ8jM_5flyby8pipelineINtB5_14SimplePipelineNtCsip1xAQdcTWT_7runtime4TickNtBY_9VecSourceNtBY_11TickDecoderINtB5_20IdentityPreProcessorBW_EINtB5_19RoundRobinPlacementBW_EENtNtCscf8MsWp3cCb_10flyby_core9lifecycle9Lifecycle4initBY_
FN:480,_RNvXsb_NtCseu8ThHmJ8jM_5flyby8pipelineINtB5_14SimplePipelineNtCsip1xAQdcTWT_7runtime4TickNtBY_9VecSourceNtBY_11TickDecoderINtB5_20IdentityPreProcessorBW_EINtB5_19RoundRobinPlacementBW_EENtNtCscf8MsWp3cCb_10flyby_core9lifecycle9Lifecycle8shutdownBY_
FN:522,_RNvXsc_NtCseu8ThHmJ8jM_5flyby8pipelineINtB5_14SimplePipelineNtCsip1xAQdcTWT_7runtime4TickNtBY_9VecSourceNtBY_11TickDecoderINtB5_20IdentityPreProcessorBW_EINtB5_14FixedPlacementBW_EENtNtCscf8MsWp3cCb_10flyby_core8pipeline8Pipeline12step_outcomeBY_
FN:573,_RNvXsc_NtCseu8ThHmJ8jM_5flyby8pipelineINtB5_14SimplePipelineNtCsip1xAQdcTWT_7runtime4TickNtBY_9VecSourceNtBY_11TickDecoderINtB5_20IdentityPreProcessorBW_EINtB5_14FixedPlacementBW_EENtNtCscf8MsWp3cCb_10flyby_core8pipeline8Pipeline13register_sinkBY_
FN:522,_RNvXsc_NtCseu8ThHmJ8jM_5flyby8pipelineINtB5_14SimplePipelineNtCsip1xAQdcTWT_7runtime4TickNtBY_9VecSourceNtBY_11TickDecoderINtB5_20IdentityPreProcessorBW_EINtB5_17CallbackPlacementBW_NCNvBY_s_34callback_and_schema_hash_placement0EENtNtCscf8MsWp3cCb_10flyby_core8pipeline8Pipeline12step_outcomeBY_
FN:573,_RNvXsc_NtCseu8ThHmJ8jM_5flyby8pipelineINtB5_14SimplePipelineNtCsip1xAQdcTWT_7runtime4TickNtBY_9VecSourceNtBY_11TickDecoderINtB5_20IdentityPreProcessorBW_EINtB5_17CallbackPlacementBW_NCNvBY_s_34callback_and_schema_hash_placement0EENtNtCscf8MsWp3cCb_10flyby_core8pipeline8Pipeline13register_sinkBY_
FN:522,_RNvXsc_NtCseu8ThHmJ8jM_5flyby8pipelineINtB5_14SimplePipelineNtCsip1xAQdcTWT_7runtime4TickNtBY_9VecSourceNtBY_11TickDecoderINtB5_20IdentityPreProcessorBW_EINtB5_19RoundRobinPlacementBW_EENtNtCscf8MsWp3cCb_10flyby_core8pipeline8Pipeline12step_outcomeBY_
FN:573,_RNvXsc_NtCseu8ThHmJ8jM_5flyby8pipelineINtB5_14SimplePipelineNtCsip1xAQdcTWT_7runtime4TickNtBY_9VecSourceNtBY_11TickDecoderINtB5_20IdentityPreProcessorBW_EINtB5_19RoundRobinPlacementBW_EENtNtCscf8MsWp3cCb_10flyby_core8pipeline8Pipeline13register_sinkBY_
FNDA:0,_RNCNvMsa_NtCsggT0ekrhFaK_5flyby8pipelineINtB7_14SimplePipelineNtCseHB1QHhtQVt_12flyby_memory11StubMessageINtB7_18NetworkBatchSourceNtNtCslaj7P7CWVfX_9flyby_net3sim18SimulatedNetSourceENtNvNtB7_5testss_21network_sim_to_memory15AnyFrameDecoderINtB7_20IdentityPreProcessorBY_EINtB7_14FixedPlacementBY_EE23write_with_backpressure0B9_
FNDA:0,_RNCNvMsa_NtCsggT0ekrhFaK_5flyby8pipelineINtB7_14SimplePipelineNtCseHB1QHhtQVt_12flyby_memory11StubMessageINtB7_18NetworkBatchSourceNtNtCslaj7P7CWVfX_9flyby_net3sim18SimulatedNetSourceENtNvNtNtB9_7builder5testss_22run_demo_pipeline_runs11DropDecoderINtB7_20IdentityPreProcessorBY_EINtB7_14FixedPlacementBY_EE23write_with_backpressure0B9_
FNDA:0,_RNCNvMsa_NtCsggT0ekrhFaK_5flyby8pipelineINtB7_14SimplePipelineNtCseHB1QHhtQVt_12flyby_memory11StubMessageINtB7_18NetworkBatchSourceNtNtCslaj7P7CWVfX_9flyby_net3sim18SimulatedNetSourceENtNvNtNtB9_7builder5testss_29run_demo_requires_source_flag11DropDecoderINtB7_20IdentityPreProcessorBY_EINtB7_14FixedPlacementBY_EE23write_with_backpressure0B9_
FNDA:0,_RNCNvMsa_NtCsggT0ekrhFaK_5flyby8pipelineINtB7_14SimplePipelineNtNtB7_5tests4TickNtB10_9VecSourceNtB10_11TickDecoderINtB7_20IdentityPreProcessorBY_EINtB7_14FixedPlacementBY_EE23write_with_backpressure0B9_
FNDA:1,_RNCNvXsb_NtCsggT0ekrhFaK_5flyby8pipelineINtB7_14SimplePipelineNtCseHB1QHhtQVt_12flyby_memory11StubMessageINtB7_18NetworkBatchSourceNtNtCslaj7P7CWVfX_9flyby_net3sim18SimulatedNetSourceENtNvNtB7_5testss_21network_sim_to_memory15AnyFrameDecoderINtB7_20IdentityPreProcessorBY_EINtB7_14FixedPlacementBY_EENtNtCscf8MsWp3cCb_10flyby_core9lifecycle9Lifecycle8shutdown0B9_
FNDA:1,_RNCNvXsb_NtCsggT0ekrhFaK_5flyby8pipelineINtB7_14SimplePipelineNtCseHB1QHhtQVt_12flyby_memory11StubMessageINtB7_18NetworkBatchSourceNtNtCslaj7P7CWVfX_9flyby_net3sim18SimulatedNetSourceENtNvNtNtB9_7builder5testss_22run_demo_pipeline_runs11DropDecoderINtB7_20IdentityPreProcessorBY_EINtB7_14FixedPlacementBY_EENtNtCscf8MsWp3cCb_10flyby_core9lifecycle9Lifecycle8shutdown0B9_
FNDA:0,_RNCNvXsb_NtCsggT0ekrhFaK_5flyby8pipelineINtB7_14SimplePipelineNtCseHB1QHhtQVt_12flyby_memory11StubMessageINtB7_18NetworkBatchSourceNtNtCslaj7P7CWVfX_9flyby_net3sim18SimulatedNetSourceENtNvNtNtB9_7builder5testss_29run_demo_requires_source_flag11DropDecoderINtB7_20IdentityPreProcessorBY_EINtB7_14FixedPlacementBY_EENtNtCscf8MsWp3cCb_10flyby_core9lifecycle9Lifecycle8shutdown0B9_
FNDA:1,_RNCNvXsb_NtCsggT0ekrhFaK_5flyby8pipelineINtB7_14SimplePipelineNtNtB7_5tests4TickNtB10_9VecSourceNtB10_11TickDecoderINtB7_20IdentityPreProcessorBY_EINtB7_14FixedPlacementBY_EENtNtCscf8MsWp3cCb_10flyby_core9lifecycle9Lifecycle8shutdown0B9_
FNDA:2,_RNvMs0_NtCsggT0ekrhFaK_5flyby8pipelineINtB5_14FixedPlacementNtCseHB1QHhtQVt_12flyby_memory11StubMessageE3newB7_
FNDA:1,_RNvMs0_NtCsggT0ekrhFaK_5flyby8pipelineINtB5_14FixedPlacementNtNtB5_5tests4TickE3newB7_
FNDA:10,_RNvMsa_NtCsggT0ekrhFaK_5flyby8pipelineINtB5_14SimplePipelineNtCseHB1QHhtQVt_12flyby_memory11StubMessageINtB5_18NetworkBatchSourceNtNtCslaj7P7CWVfX_9flyby_net3sim18SimulatedNetSourceENtNvNtB5_5testss_21network_sim_to_memory15AnyFrameDecoderINtB5_20IdentityPreProcessorBW_EINtB5_14FixedPlacementBW_EE11ensure_initB7_
FNDA:10,_RNvMsa_NtCsggT0ekrhFaK_5flyby8pipelineINtB5_14SimplePipelineNtCseHB1QHhtQVt_12flyby_memory11StubMessageINtB5_18NetworkBatchSourceNtNtCslaj7P7CWVfX_9flyby_net3sim18SimulatedNetSourceENtNvNtB5_5testss_21network_sim_to_memory15AnyFrameDecoderINtB5_20IdentityPreProcessorBW_EINtB5_14FixedPlacementBW_EE13record_metricB7_
FNDA:3,_RNvMsa_NtCsggT0ekrhFaK_5flyby8pipelineINtB5_14SimplePipelineNtCseHB1QHhtQVt_12flyby_memory11StubMessageINtB5_18NetworkBatchSourceNtNtCslaj7P7CWVfX_9flyby_net3sim18SimulatedNetSourceENtNvNtB5_5testss_21network_sim_to_memory15AnyFrameDecoderINtB5_20IdentityPreProcessorBW_EINtB5_14FixedPlacementBW_EE14refill_pendingB7_
FNDA:10,_RNvMsa_NtCsggT0ekrhFaK_5flyby8pipelineINtB5_14SimplePipelineNtCseHB1QHhtQVt_12flyby_memory11StubMessageINtB5_18NetworkBatchSourceNtNtCslaj7P7CWVfX_9flyby_net3sim18SimulatedNetSourceENtNvNtB5_5testss_21network_sim_to_memory15AnyFrameDecoderINtB5_20IdentityPreProcessorBW_EINtB5_14FixedPlacementBW_EE17process_one_frameB7_
FNDA:10,_RNvMsa_NtCsggT0ekrhFaK_5flyby8pipelineINtB5_14SimplePipelineNtCseHB1QHhtQVt_12flyby_memory11StubMessageINtB5_18NetworkBatchSourceNtNtCslaj7P7CWVfX_9flyby_net3sim18SimulatedNetSourceENtNvNtB5_5testss_21network_sim_to_memory15AnyFrameDecoderINtB5_20IdentityPreProcessorBW_EINtB5_14FixedPlacementBW_EE23write_with_backpressureB7_
FNDA:1,_RNvMsa_NtCsggT0ekrhFaK_5flyby8pipelineINtB5_14SimplePipelineNtCseHB1QHhtQVt_12flyby_memory11StubMessageINtB5_18NetworkBatchSourceNtNtCslaj7P7CWVfX_9flyby_net3sim18SimulatedNetSourceENtNvNtB5_5testss_21network_sim_to_memory15AnyFrameDecoderINtB5_20IdentityPreProcessorBW_EINtB5_14FixedPlacementBW_EE3newB7_
FNDA:8,_RNvMsa_NtCsggT0ekrhFaK_5flyby8pipelineINtB5_14SimplePipelineNtCseHB1QHhtQVt_12flyby_memory11StubMessageINtB5_18NetworkBatchSourceNtNtCslaj7P7CWVfX_9flyby_net3sim18SimulatedNetSourceENtNvNtNtB7_7builder5testss_22run_demo_pipeline_runs11DropDecoderINtB5_20IdentityPreProcessorBW_EINtB5_14FixedPlacementBW_EE11ensure_initB7_
FNDA:1,_RNvMsa_NtCsggT0ekrhFaK_5flyby8pipelineINtB5_14SimplePipelineNtCseHB1QHhtQVt_12flyby_memory11StubMessageINtB5_18NetworkBatchSourceNtNtCslaj7P7CWVfX_9flyby_net3sim18SimulatedNetSourceENtNvNtNtB7_7builder5testss_22run_demo_pipeline_runs11DropDecoderINtB5_20IdentityPreProcessorBW_EINtB5_14FixedPlacementBW_EE12messages_outB7_
FNDA:32,_RNvMsa_NtCsggT0ekrhFaK_5flyby8pipelineINtB5_14SimplePipelineNtCseHB1QHhtQVt_12flyby_memory11StubMessageINtB5_18NetworkBatchSourceNtNtCslaj7P7CWVfX_9flyby_net3sim18SimulatedNetSourceENtNvNtNtB7_7builder5testss_22run_demo_pipeline_runs11DropDecoderINtB5_20IdentityPreProcessorBW_EINtB5_14FixedPlacementBW_EE13record_metricB7_
FNDA:8,_RNvMsa_NtCsggT0ekrhFaK_5flyby8pipelineINtB5_14SimplePipelineNtCseHB1QHhtQVt_12flyby_memory11StubMessageINtB5_18NetworkBatchSourceNtNtCslaj7P7CWVfX_9flyby_net3sim18SimulatedNetSourceENtNvNtNtB7_7builder5testss_22run_demo_pipeline_runs11DropDecoderINtB5_20IdentityPreProcessorBW_EINtB5_14FixedPlacementBW_EE14refill_pendingB7_
FNDA:32,_RNvMsa_NtCsggT0ekrhFaK_5flyby8pipelineINtB5_14SimplePipelineNtCseHB1QHhtQVt_12flyby_memory11StubMessageINtB5_18NetworkBatchSourceNtNtCslaj7P7CWVfX_9flyby_net3sim18SimulatedNetSourceENtNvNtNtB7_7builder5testss_22run_demo_pipeline_runs11DropDecoderINtB5_20IdentityPreProcessorBW_EINtB5_14FixedPlacementBW_EE17process_one_frameB7_
FNDA:0,_RNvMsa_NtCsggT0ekrhFaK_5flyby8pipelineINtB5_14SimplePipelineNtCseHB1QHhtQVt_12flyby_memory11StubMessageINtB5_18NetworkBatchSourceNtNtCslaj7P7CWVfX_9flyby_net3sim18SimulatedNetSourceENtNvNtNtB7_7builder5testss_22run_demo_pipeline_runs11DropDecoderINtB5_20IdentityPreProcessorBW_EINtB5_14FixedPlacementBW_EE23write_with_backpressureB7_
FNDA:1,_RNvMsa_NtCsggT0ekrhFaK_5flyby8pipelineINtB5_14SimplePipelineNtCseHB1QHhtQVt_12flyby_memory11StubMessageINtB5_18NetworkBatchSourceNtNtCslaj7P7CWVfX_9flyby_net3sim18SimulatedNetSourceENtNvNtNtB7_7builder5testss_22run_demo_pipeline_runs11DropDecoderINtB5_20IdentityPreProcessorBW_EINtB5_14FixedPlacementBW_EE3newB7_
FNDA:0,_RNvMsa_NtCsggT0ekrhFaK_5flyby8pipelineINtB5_14SimplePipelineNtCseHB1QHhtQVt_12flyby_memory11StubMessageINtB5_18NetworkBatchSourceNtNtCslaj7P7CWVfX_9flyby_net3sim18SimulatedNetSourceENtNvNtNtB7_7builder5testss_29run_demo_requires_source_flag11DropDecoderINtB5_20IdentityPreProcessorBW_EINtB5_14FixedPlacementBW_EE11ensure_initB7_
FNDA:0,_RNvMsa_NtCsggT0ekrhFaK_5flyby8pipelineINtB5_14SimplePipelineNtCseHB1QHhtQVt_12flyby_memory11StubMessageINtB5_18NetworkBatchSourceNtNtCslaj7P7CWVfX_9flyby_net3sim18SimulatedNetSourceENtNvNtNtB7_7builder5testss_29run_demo_requires_source_flag11DropDecoderINtB5_20IdentityPreProcessorBW_EINtB5_14FixedPlacementBW_EE12messages_outB7_
FNDA:0,_RNvMsa_NtCsggT0ekrhFaK_5flyby8pipelineINtB5_14SimplePipelineNtCseHB1QHhtQVt_12flyby_memory11StubMessageINtB5_18NetworkBatchSourceNtNtCslaj7P7CWVfX_9flyby_net3sim18SimulatedNetSourceENtNvNtNtB7_7builder5testss_29run_demo_requires_source_flag11DropDecoderINtB5_20IdentityPreProcessorBW_EINtB5_14FixedPlacementBW_EE13record_metricB7_
FNDA:0,_RNvMsa_NtCsggT0ekrhFaK_5flyby8pipelineINtB5_14SimplePipelineNtCseHB1QHhtQVt_12flyby_memory11StubMessageINtB5_18NetworkBatchSourceNtNtCslaj7P7CWVfX_9flyby_net3sim18SimulatedNetSourceENtNvNtNtB7_7builder5testss_29run_demo_requires_source_flag11DropDecoderINtB5_20IdentityPreProcessorBW_EINtB5_14FixedPlacementBW_EE14refill_pendingB7_
FNDA:0,_RNvMsa_NtCsggT0ekrhFaK_5flyby8pipelineINtB5_14SimplePipelineNtCseHB1QHhtQVt_12flyby_memory11StubMessageINtB5_18NetworkBatchSourceNtNtCslaj7P7CWVfX_9flyby_net3sim18SimulatedNetSourceENtNvNtNtB7_7builder5testss_29run_demo_requires_source_flag11DropDecoderINtB5_20IdentityPreProcessorBW_EINtB5_14FixedPlacementBW_EE17process_one_frameB7_
FNDA:0,_RNvMsa_NtCsggT0ekrhFaK_5flyby8pipelineINtB5_14SimplePipelineNtCseHB1QHhtQVt_12flyby_memory11StubMessageINtB5_18NetworkBatchSourceNtNtCslaj7P7CWVfX_9flyby_net3sim18SimulatedNetSourceENtNvNtNtB7_7builder5testss_29run_demo_requires_source_flag11DropDecoderINtB5_20IdentityPreProcessorBW_EINtB5_14FixedPlacementBW_EE23write_with_backpressureB7_
FNDA:0,_RNvMsa_NtCsggT0ekrhFaK_5flyby8pipelineINtB5_14SimplePipelineNtCseHB1QHhtQVt_12flyby_memory11StubMessageINtB5_18NetworkBatchSourceNtNtCslaj7P7CWVfX_9flyby_net3sim18SimulatedNetSourceENtNvNtNtB7_7builder5testss_29run_demo_requires_source_flag11DropDecoderINtB5_20IdentityPreProcessorBW_EINtB5_14FixedPlacementBW_EE3newB7_
FNDA:6,_RNvMsa_NtCsggT0ekrhFaK_5flyby8pipelineINtB5_14SimplePipelineNtNtB5_5tests4TickNtBY_9VecSourceNtBY_11TickDecoderINtB5_20IdentityPreProcessorBW_EINtB5_14FixedPlacementBW_EE11ensure_initB7_
FNDA:1,_RNvMsa_NtCsggT0ekrhFaK_5flyby8pipelineINtB5_14SimplePipelineNtNtB5_5tests4TickNtBY_9VecSourceNtBY_11TickDecoderINtB5_20IdentityPreProcessorBW_EINtB5_14FixedPlacementBW_EE12messages_outB7_
FNDA:5,_RNvMsa_NtCsggT0ekrhFaK_5flyby8pipelineINtB5_14SimplePipelineNtNtB5_5tests4TickNtBY_9VecSourceNtBY_11TickDecoderINtB5_20IdentityPreProcessorBW_EINtB5_14FixedPlacementBW_EE13record_metricB7_
FNDA:5,_RNvMsa_NtCsggT0ekrhFaK_5flyby8pipelineINtB5_14SimplePipelineNtNtB5_5tests4TickNtBY_9VecSourceNtBY_11TickDecoderINtB5_20IdentityPreProcessorBW_EINtB5_14FixedPlacementBW_EE14refill_pendingB7_
FNDA:5,_RNvMsa_NtCsggT0ekrhFaK_5flyby8pipelineINtB5_14SimplePipelineNtNtB5_5tests4TickNtBY_9VecSourceNtBY_11TickDecoderINtB5_20IdentityPreProcessorBW_EINtB5_14FixedPlacementBW_EE17process_one_frameB7_
FNDA:5,_RNvMsa_NtCsggT0ekrhFaK_5flyby8pipelineINtB5_14SimplePipelineNtNtB5_5tests4TickNtBY_9VecSourceNtBY_11TickDecoderINtB5_20IdentityPreProcessorBW_EINtB5_14FixedPlacementBW_EE23write_with_backpressureB7_
FNDA:1,_RNvMsa_NtCsggT0ekrhFaK_5flyby8pipelineINtB5_14SimplePipelineNtNtB5_5tests4TickNtBY_9VecSourceNtBY_11TickDecoderINtB5_20IdentityPreProcessorBW_EINtB5_14FixedPlacementBW_EE3newB7_
FNDA:2,_RNvMsd_NtCsggT0ekrhFaK_5flyby8pipelineINtB5_18NetworkBatchSourceNtNtCslaj7P7CWVfX_9flyby_net3sim18SimulatedNetSourceE3newB7_
FNDA:2,_RNvXNtCsggT0ekrhFaK_5flyby8pipelineINtB2_20IdentityPreProcessorNtCseHB1QHhtQVt_12flyby_memory11StubMessageENtNtCsl8K0bEFm1U0_4core7default7Default7defaultB4_
FNDA:1,_RNvXNtCsggT0ekrhFaK_5flyby8pipelineINtB2_20IdentityPreProcessorNtNtB2_5tests4TickENtNtCsl8K0bEFm1U0_4core7default7Default7defaultB4_
FNDA:10,_RNvXs1_NtCsggT0ekrhFaK_5flyby8pipelineINtB5_14FixedPlacementNtCseHB1QHhtQVt_12flyby_memory11StubMessageENtNtCscf8MsWp3cCb_10flyby_core9placement9Placement5routeB7_
FNDA:5,_RNvXs1_NtCsggT0ekrhFaK_5flyby8pipelineINtB5_14FixedPlacementNtNtB5_5tests4TickENtNtCscf8MsWp3cCb_10flyby_core9placement9Placement5routeB7_
FNDA:10,_RNvXs_NtCsggT0ekrhFaK_5flyby8pipelineINtB4_20IdentityPreProcessorNtCseHB1QHhtQVt_12flyby_memory11StubMessageENtNtCscf8MsWp3cCb_10flyby_core12preprocessor12PreProcessor7processB6_
FNDA:5,_RNvXs_NtCsggT0ekrhFaK_5flyby8pipelineINtB4_20IdentityPreProcessorNtNtB4_5tests4TickENtNtCscf8MsWp3cCb_10flyby_core12preprocessor12PreProcessor7processB6_
FNDA:1,_RNvXsb_NtCsggT0ekrhFaK_5flyby8pipelineINtB5_14SimplePipelineNtCseHB1QHhtQVt_12flyby_memory11StubMessageINtB5_18NetworkBatchSourceNtNtCslaj7P7CWVfX_9flyby_net3sim18SimulatedNetSourceENtNvNtB5_5testss_21network_sim_to_memory15AnyFrameDecoderINtB5_20IdentityPreProcessorBW_EINtB5_14FixedPlacementBW_EENtNtCscf8MsWp3cCb_10flyby_core9lifecycle9Lifecycle4initB7_
FNDA:1,_RNvXsb_NtCsggT0ekrhFaK_5flyby8pipelineINtB5_14SimplePipelineNtCseHB1QHhtQVt_12flyby_memory11StubMessageINtB5_18NetworkBatchSourceNtNtCslaj7P7CWVfX_9flyby_net3sim18SimulatedNetSourceENtNvNtB5_5testss_21network_sim_to_memory15AnyFrameDecoderINtB5_20IdentityPreProcessorBW_EINtB5_14FixedPlacementBW_EENtNtCscf8MsWp3cCb_10flyby_core9lifecycle9Lifecycle8shutdownB7_
FNDA:1,_RNvXsb_NtCsggT0ekrhFaK_5flyby8pipelineINtB5_14SimplePipelineNtCseHB1QHhtQVt_12flyby_memory11StubMessageINtB5_18NetworkBatchSourceNtNtCslaj7P7CWVfX_9flyby_net3sim18SimulatedNetSourceENtNvNtNtB7_7builder5testss_22run_demo_pipeline_runs11DropDecoderINtB5_20IdentityPreProcessorBW_EINtB5_14FixedPlacementBW_EENtNtCscf8MsWp3cCb_10flyby_core9lifecycle9Lifecycle4initB7_
FNDA:1,_RNvXsb_NtCsggT0ekrhFaK_5flyby8pipelineINtB5_14SimplePipelineNtCseHB1QHhtQVt_12flyby_memory11StubMessageINtB5_18NetworkBatchSourceNtNtCslaj7P7CWVfX_9flyby_net3sim18SimulatedNetSourceENtNvNtNtB7_7builder5testss_22run_demo_pipeline_runs11DropDecoderINtB5_20IdentityPreProcessorBW_EINtB5_14FixedPlacementBW_EENtNtCscf8MsWp3cCb_10flyby_core9lifecycle9Lifecycle8shutdownB7_
FNDA:0,_RNvXsb_NtCsggT0ekrhFaK_5flyby8pipelineINtB5_14SimplePipelineNtCseHB1QHhtQVt_12flyby_memory11StubMessageINtB5_18NetworkBatchSourceNtNtCslaj7P7CWVfX_9flyby_net3sim18SimulatedNetSourceENtNvNtNtB7_7builder5testss_29run_demo_requires_source_flag11DropDecoderINtB5_20IdentityPreProcessorBW_EINtB5_14FixedPlacementBW_EENtNtCscf8MsWp3cCb_10flyby_core9lifecycle9Lifecycle4initB7_
FNDA:0,_RNvXsb_NtCsggT0ekrhFaK_5flyby8pipelineINtB5_14SimplePipelineNtCseHB1QHhtQVt_12flyby_memory11StubMessageINtB5_18NetworkBatchSourceNtNtCslaj7P7CWVfX_9flyby_net3sim18SimulatedNetSourceENtNvNtNtB7_7builder5testss_29run_demo_requires_source_flag11DropDecoderINtB5_20IdentityPreProcessorBW_EINtB5_14FixedPlacementBW_EENtNtCscf8MsWp3cCb_10flyby_core9lifecycle9Lifecycle8shutdownB7_
FNDA:1,_RNvXsb_NtCsggT0ekrhFaK_5flyby8pipelineINtB5_14SimplePipelineNtNtB5_5tests4TickNtBY_9VecSourceNtBY_11TickDecoderINtB5_20IdentityPreProcessorBW_EINtB5_14FixedPlacementBW_EENtNtCscf8MsWp3cCb_10flyby_core9lifecycle9Lifecycle4initB7_
FNDA:1,_RNvXsb_NtCsggT0ekrhFaK_5flyby8pipelineINtB5_14SimplePipelineNtNtB5_5tests4TickNtBY_9VecSourceNtBY_11TickDecoderINtB5_20IdentityPreProcessorBW_EINtB5_14FixedPlacementBW_EENtNtCscf8MsWp3cCb_10flyby_core9lifecycle9Lifecycle8shutdownB7_
FNDA:10,_RNvXsc_NtCsggT0ekrhFaK_5flyby8pipelineINtB5_14SimplePipelineNtCseHB1QHhtQVt_12flyby_memory11StubMessageINtB5_18NetworkBatchSourceNtNtCslaj7P7CWVfX_9flyby_net3sim18SimulatedNetSourceENtNvNtB5_5testss_21network_sim_to_memory15AnyFrameDecoderINtB5_20IdentityPreProcessorBW_EINtB5_14FixedPlacementBW_EENtNtCscf8MsWp3cCb_10flyby_core8pipeline8Pipeline12step_outcomeB7_
FNDA:1,_RNvXsc_NtCsggT0ekrhFaK_5flyby8pipelineINtB5_14SimplePipelineNtCseHB1QHhtQVt_12flyby_memory11StubMessageINtB5_18NetworkBatchSourceNtNtCslaj7P7CWVfX_9flyby_net3sim18SimulatedNetSourceENtNvNtB5_5testss_21network_sim_to_memory15AnyFrameDecoderINtB5_20IdentityPreProcessorBW_EINtB5_14FixedPlacementBW_EENtNtCscf8MsWp3cCb_10flyby_core8pipeline8Pipeline13register_sinkB7_
FNDA:8,_RNvXsc_NtCsggT0ekrhFaK_5flyby8pipelineINtB5_14SimplePipelineNtCseHB1QHhtQVt_12flyby_memory11StubMessageINtB5_18NetworkBatchSourceNtNtCslaj7P7CWVfX_9flyby_net3sim18SimulatedNetSourceENtNvNtNtB7_7builder5testss_22run_demo_pipeline_runs11DropDecoderINtB5_20IdentityPreProcessorBW_EINtB5_14FixedPlacementBW_EENtNtCscf8MsWp3cCb_10flyby_core8pipeline8Pipeline12step_outcomeB7_
FNDA:1,_RNvXsc_NtCsggT0ekrhFaK_5flyby8pipelineINtB5_14SimplePipelineNtCseHB1QHhtQVt_12flyby_memory11StubMessageINtB5_18NetworkBatchSourceNtNtCslaj7P7CWVfX_9flyby_net3sim18SimulatedNetSourceENtNvNtNtB7_7builder5testss_22run_demo_pipeline_runs11DropDecoderINtB5_20IdentityPreProcessorBW_EINtB5_14FixedPlacementBW_EENtNtCscf8MsWp3cCb_10flyby_core8pipeline8Pipeline13register_sinkB7_
FNDA:0,_RNvXsc_NtCsggT0ekrhFaK_5flyby8pipelineINtB5_14SimplePipelineNtCseHB1QHhtQVt_12flyby_memory11StubMessageINtB5_18NetworkBatchSourceNtNtCslaj7P7CWVfX_9flyby_net3sim18SimulatedNetSourceENtNvNtNtB7_7builder5testss_29run_demo_requires_source_flag11DropDecoderINtB5_20IdentityPreProcessorBW_EINtB5_14FixedPlacementBW_EENtNtCscf8MsWp3cCb_10flyby_core8pipeline8Pipeline12step_outcomeB7_
FNDA:0,_RNvXsc_NtCsggT0ekrhFaK_5flyby8pipelineINtB5_14SimplePipelineNtCseHB1QHhtQVt_12flyby_memory11StubMessageINtB5_18NetworkBatchSourceNtNtCslaj7P7CWVfX_9flyby_net3sim18SimulatedNetSourceENtNvNtNtB7_7builder5testss_29run_demo_requires_source_flag11DropDecoderINtB5_20IdentityPreProcessorBW_EINtB5_14FixedPlacementBW_EENtNtCscf8MsWp3cCb_10flyby_core8pipeline8Pipeline13register_sinkB7_
FNDA:6,_RNvXsc_NtCsggT0ekrhFaK_5flyby8pipelineINtB5_14SimplePipelineNtNtB5_5tests4TickNtBY_9VecSourceNtBY_11TickDecoderINtB5_20IdentityPreProcessorBW_EINtB5_14FixedPlacementBW_EENtNtCscf8MsWp3cCb_10flyby_core8pipeline8Pipeline12step_outcomeB7_
FNDA:1,_RNvXsc_NtCsggT0ekrhFaK_5flyby8pipelineINtB5_14SimplePipelineNtNtB5_5tests4TickNtBY_9VecSourceNtBY_11TickDecoderINtB5_20IdentityPreProcessorBW_EINtB5_14FixedPlacementBW_EENtNtCscf8MsWp3cCb_10flyby_core8pipeline8Pipeline13register_sinkB7_
FNDA:2,_RNvXse_NtCsggT0ekrhFaK_5flyby8pipelineINtB5_18NetworkBatchSourceNtNtCslaj7P7CWVfX_9flyby_net3sim18SimulatedNetSourceENtNtCscf8MsWp3cCb_10flyby_core9lifecycle9Lifecycle4initB7_
FNDA:2,_RNvXse_NtCsggT0ekrhFaK_5flyby8pipelineINtB5_18NetworkBatchSourceNtNtCslaj7P7CWVfX_9flyby_net3sim18SimulatedNetSourceENtNtCscf8MsWp3cCb_10flyby_core9lifecycle9Lifecycle8shutdownB7_
FNDA:11,_RNvXsf_NtCsggT0ekrhFaK_5flyby8pipelineINtB5_18NetworkBatchSourceNtNtCslaj7P7CWVfX_9flyby_net3sim18SimulatedNetSourceENtB5_14RawBatchSource11poll_framesB7_
FNDA:11,_RNvYINtNtCsggT0ekrhFaK_5flyby8pipeline18NetworkBatchSourceNtNtCslaj7P7CWVfX_9flyby_net3sim18SimulatedNetSourceENtB5_14RawBatchSource12is_exhaustedB7_
FNDA:1,_RNvNtNtCsggT0ekrhFaK_5flyby8pipeline5testss_21end_to_end_vec_source
FNDA:1,_RNvNtNtCsggT0ekrhFaK_5flyby8pipeline5testss_21network_sim_to_memory
FNDA:10,_RNvXNvNtNtCsggT0ekrhFaK_5flyby8pipeline5testss_21network_sim_to_memoryNtB2_15AnyFrameDecoderNtNtCscf8MsWp3cCb_10flyby_core7decoder7Decoder6decode
FNDA:5,_RNvXs0_NtNtCsggT0ekrhFaK_5flyby8pipeline5testsNtB5_11TickDecoderNtNtCscf8MsWp3cCb_10flyby_core7decoder7Decoder6decode
FNDA:1,_RNvXs1_NtNtCsggT0ekrhFaK_5flyby8pipeline5testsNtB5_9VecSourceNtNtCscf8MsWp3cCb_10flyby_core9lifecycle9Lifecycle4init
FNDA:1,_RNvXs1_NtNtCsggT0ekrhFaK_5flyby8pipeline5testsNtB5_9VecSourceNtNtCscf8MsWp3cCb_10flyby_core9lifecycle9Lifecycle8shutdown
FNDA:5,_RNvXs2_NtNtCsggT0ekrhFaK_5flyby8pipeline5testsNtB5_9VecSourceNtB7_14RawBatchSource11poll_frames
FNDA:6,_RNvXs2_NtNtCsggT0ekrhFaK_5flyby8pipeline5testsNtB5_9VecSourceNtB7_14RawBatchSource12is_exhausted
FNDA:5,_RNvXs4_NtNtCsggT0ekrhFaK_5flyby8pipeline5testsNtB5_11CollectSinkNtNtCscf8MsWp3cCb_10flyby_core4sink4Sink5write
FNDA:5,_RNvXs_NtNtCsggT0ekrhFaK_5flyby8pipeline5testsNtB4_4TickNtNtCscf8MsWp3cCb_10flyby_core7encoder6Encode11encode_into
FNDA:0,_RINvMsa_NtCsggT0ekrhFaK_5flyby8pipelineINtB6_14SimplePipelinepppppE12with_metricspEB8_
FNDA:0,_RINvNtCsggT0ekrhFaK_5flyby8pipeline21schema_hash_placementpEB4_
FNDA:0,_RNCINvNtCsggT0ekrhFaK_5flyby8pipeline21schema_hash_placementpE0B6_
FNDA:0,_RNCNvMs4_NtCsggT0ekrhFaK_5flyby8pipelineINtB7_19RoundRobinPlacementpE3new0B9_
FNDA:0,_RNCNvMs6_NtCsggT0ekrhFaK_5flyby8pipelineINtB7_13HashPlacementppE3new0B9_
FNDA:0,_RNvMs4_NtCsggT0ekrhFaK_5flyby8pipelineINtB5_19RoundRobinPlacementpE3newB7_
FNDA:0,_RNvMs6_NtCsggT0ekrhFaK_5flyby8pipelineINtB5_13HashPlacementppE3newB7_
FNDA:0,_RNvMs8_NtCsggT0ekrhFaK_5flyby8pipelineINtB5_17CallbackPlacementppE3newB7_
FNDA:0,_RNvMsa_NtCsggT0ekrhFaK_5flyby8pipelineINtB5_14SimplePipelinepppppE10source_mutB7_
FNDA:0,_RNvMsa_NtCsggT0ekrhFaK_5flyby8pipelineINtB5_14SimplePipelinepppppE12with_runtimeB7_
FNDA:0,_RNvMsa_NtCsggT0ekrhFaK_5flyby8pipelineINtB5_14SimplePipelinepppppE14runtime_configB7_
FNDA:0,_RNvMsa_NtCsggT0ekrhFaK_5flyby8pipelineINtB5_14SimplePipelinepppppE16messages_droppedB7_
FNDA:0,_RNvMsa_NtCsggT0ekrhFaK_5flyby8pipelineINtB5_14SimplePipelinepppppE19backpressure_eventsB7_
FNDA:0,_RNvMsa_NtCsggT0ekrhFaK_5flyby8pipelineINtB5_14SimplePipelinepppppE6sourceB7_
FNDA:0,_RNvMsd_NtCsggT0ekrhFaK_5flyby8pipelineINtB5_18NetworkBatchSourcepE5innerB7_
FNDA:0,_RNvMsd_NtCsggT0ekrhFaK_5flyby8pipelineINtB5_18NetworkBatchSourcepE9inner_mutB7_
FNDA:0,_RNvMsg_NtCsggT0ekrhFaK_5flyby8pipelineINtB5_18StorageBatchSourcepE16from_file_configB7_
FNDA:0,_RNvMsg_NtCsggT0ekrhFaK_5flyby8pipelineINtB5_18StorageBatchSourcepE3newB7_
FNDA:0,_RNvMsg_NtCsggT0ekrhFaK_5flyby8pipelineINtB5_18StorageBatchSourcepE5innerB7_
FNDA:0,_RNvMsg_NtCsggT0ekrhFaK_5flyby8pipelineINtB5_18StorageBatchSourcepE9inner_mutB7_
FNDA:0,_RNvXININtCsggT0ekrhFaK_5flyby8pipelines2_0pEINtB5_16DropAllPlacementpENtNtCsl8K0bEFm1U0_4core7default7Default7defaultB7_
FNDA:0,_RNvXININtCsggT0ekrhFaK_5flyby8pipelines3_0pEINtB5_16DropAllPlacementpENtNtCscf8MsWp3cCb_10flyby_core9placement9Placement5routeB7_
FNDA:0,_RNvXININtCsggT0ekrhFaK_5flyby8pipelines5_0pEINtB5_19RoundRobinPlacementpENtNtCscf8MsWp3cCb_10flyby_core9placement9Placement5routeB7_
FNDA:0,_RNvXININtCsggT0ekrhFaK_5flyby8pipelines7_0ppEINtB5_13HashPlacementppENtNtCscf8MsWp3cCb_10flyby_core9placement9Placement5routeB7_
FNDA:0,_RNvXININtCsggT0ekrhFaK_5flyby8pipelines9_0ppEINtB5_17CallbackPlacementppENtNtCscf8MsWp3cCb_10flyby_core9placement9Placement5routeB7_
FNDA:0,_RNvXININtCsggT0ekrhFaK_5flyby8pipelinesb_0pppppEINtB5_14SimplePipelinepppppENtNtCscf8MsWp3cCb_10flyby_core9lifecycle9Lifecycle3runB7_
FNDA:0,_RNvXININtCsggT0ekrhFaK_5flyby8pipelinesc_0pppppEINtB5_14SimplePipelinepppppENtNtCscf8MsWp3cCb_10flyby_core8pipeline8Pipeline4stepB7_
FNDA:0,_RNvXININtCsggT0ekrhFaK_5flyby8pipelinesh_0pEINtB5_18StorageBatchSourcepENtNtCscf8MsWp3cCb_10flyby_core9lifecycle9Lifecycle4initB7_
FNDA:0,_RNvXININtCsggT0ekrhFaK_5flyby8pipelinesh_0pEINtB5_18StorageBatchSourcepENtNtCscf8MsWp3cCb_10flyby_core9lifecycle9Lifecycle8shutdownB7_
FNDA:0,_RNvXININtCsggT0ekrhFaK_5flyby8pipelinesi_0pEINtB5_18StorageBatchSourcepENtB5_14RawBatchSource11poll_framesB7_
FNDA:0,_RNvXININtCsggT0ekrhFaK_5flyby8pipelinesi_0pEINtB5_18StorageBatchSourcepENtB5_14RawBatchSource12is_exhaustedB7_
FNDA:0,_RNvXNtNtCsggT0ekrhFaK_5flyby8pipeline5testsNtB2_4TickNtNtCscf8MsWp3cCb_10flyby_core7message7Message8metadata
FNDA:0,_RNvXNtNtCsggT0ekrhFaK_5flyby8pipeline5testsNtB2_4TickNtNtCscf8MsWp3cCb_10flyby_core7message7Message9schema_id
FNDA:0,_RNvXNtNtCsggT0ekrhFaK_5flyby8pipeline5testsNtB2_4TickNtNtCscf8MsWp3cCb_10flyby_core7message7Message9timestamp
FNDA:0,_RNvXs_NtNtCsggT0ekrhFaK_5flyby8pipeline5testsNtB4_4TickNtNtCscf8MsWp3cCb_10flyby_core7encoder6Encode11encoded_len
FNDA:5,_RNCNvNtNtCsggT0ekrhFaK_5flyby8pipeline5testss_21end_to_end_vec_source0B7_
FNDA:1,_RINvNtCseu8ThHmJ8jM_5flyby8pipeline21schema_hash_placementNtCsip1xAQdcTWT_7runtime4TickEBW_
FNDA:0,_RNCINvNtCseu8ThHmJ8jM_5flyby8pipeline21schema_hash_placementNtCsip1xAQdcTWT_7runtime4TickE0BY_
FNDA:2,_RNCNvMs4_NtCseu8ThHmJ8jM_5flyby8pipelineINtB7_19RoundRobinPlacementNtCsip1xAQdcTWT_7runtime4TickE3new0B15_
FNDA:1,_RNCNvMs6_NtCseu8ThHmJ8jM_5flyby8pipelineINtB7_13HashPlacementNtCsip1xAQdcTWT_7runtime4TickFG_RL0_BX_EyE3new0BZ_
FNDA:0,_RNCNvMsa_NtCseu8ThHmJ8jM_5flyby8pipelineINtB7_14SimplePipelineNtCsip1xAQdcTWT_7runtime4TickNtB10_9VecSourceNtB10_11TickDecoderINtB7_20IdentityPreProcessorBY_EINtB7_14FixedPlacementBY_EE23write_with_backpressure0B10_
FNDA:0,_RNCNvMsa_NtCseu8ThHmJ8jM_5flyby8pipelineINtB7_14SimplePipelineNtCsip1xAQdcTWT_7runtime4TickNtB10_9VecSourceNtB10_11TickDecoderINtB7_20IdentityPreProcessorBY_EINtB7_17CallbackPlacementBY_NCNvB10_s_34callback_and_schema_hash_placement0EE23write_with_backpressure0B10_
FNDA:0,_RNCNvMsa_NtCseu8ThHmJ8jM_5flyby8pipelineINtB7_14SimplePipelineNtCsip1xAQdcTWT_7runtime4TickNtB10_9VecSourceNtB10_11TickDecoderINtB7_20IdentityPreProcessorBY_EINtB7_19RoundRobinPlacementBY_EE23write_with_backpressure0B10_
FNDA:5,_RNCNvXsb_NtCseu8ThHmJ8jM_5flyby8pipelineINtB7_14SimplePipelineNtCsip1xAQdcTWT_7runtime4TickNtB10_9VecSourceNtB10_11TickDecoderINtB7_20IdentityPreProcessorBY_EINtB7_14FixedPlacementBY_EENtNtCscf8MsWp3cCb_10flyby_core9lifecycle9Lifecycle8shutdown0B10_
FNDA:1,_RNCNvXsb_NtCseu8ThHmJ8jM_5flyby8pipelineINtB7_14SimplePipelineNtCsip1xAQdcTWT_7runtime4TickNtB10_9VecSourceNtB10_11TickDecoderINtB7_20IdentityPreProcessorBY_EINtB7_17CallbackPlacementBY_NCNvB10_s_34callback_and_schema_hash_placement0EENtNtCscf8MsWp3cCb_10flyby_core9lifecycle9Lifecycle8shutdown0B10_
FNDA:2,_RNCNvXsb_NtCseu8ThHmJ8jM_5flyby8pipelineINtB7_14SimplePipelineNtCsip1xAQdcTWT_7runtime4TickNtB10_9VecSourceNtB10_11TickDecoderINtB7_20IdentityPreProcessorBY_EINtB7_19RoundRobinPlacementBY_EENtNtCscf8MsWp3cCb_10flyby_core9lifecycle9Lifecycle8shutdown0B10_
FNDA:5,_RNvMs0_NtCseu8ThHmJ8jM_5flyby8pipelineINtB5_14FixedPlacementNtCsip1xAQdcTWT_7runtime4TickE3newBY_
FNDA:1,_RNvMs4_NtCseu8ThHmJ8jM_5flyby8pipelineINtB5_19RoundRobinPlacementNtCsip1xAQdcTWT_7runtime4TickE3newB13_
FNDA:1,_RNvMs6_NtCseu8ThHmJ8jM_5flyby8pipelineINtB5_13HashPlacementNtCsip1xAQdcTWT_7runtime4TickFG_RL0_BV_EyE3newBX_
FNDA:1,_RNvMs8_NtCseu8ThHmJ8jM_5flyby8pipelineINtB5_17CallbackPlacementNtCsip1xAQdcTWT_7runtime4TickNCNvB11_s_34callback_and_schema_hash_placement0E3newB11_
FNDA:17,_RNvMsa_NtCseu8ThHmJ8jM_5flyby8pipelineINtB5_14SimplePipelineNtCsip1xAQdcTWT_7runtime4TickNtBY_9VecSourceNtBY_11TickDecoderINtB5_20IdentityPreProcessorBW_EINtB5_14FixedPlacementBW_EE11ensure_initBY_
FNDA:1,_RNvMsa_NtCseu8ThHmJ8jM_5flyby8pipelineINtB5_14SimplePipelineNtCsip1xAQdcTWT_7runtime4TickNtBY_9VecSourceNtBY_11TickDecoderINtB5_20IdentityPreProcessorBW_EINtB5_14FixedPlacementBW_EE12with_runtimeBY_
FNDA:14,_RNvMsa_NtCseu8ThHmJ8jM_5flyby8pipelineINtB5_14SimplePipelineNtCsip1xAQdcTWT_7runtime4TickNtBY_9VecSourceNtBY_11TickDecoderINtB5_20IdentityPreProcessorBW_EINtB5_14FixedPlacementBW_EE13record_metricBY_
FNDA:5,_RNvMsa_NtCseu8ThHmJ8jM_5flyby8pipelineINtB5_14SimplePipelineNtCsip1xAQdcTWT_7runtime4TickNtBY_9VecSourceNtBY_11TickDecoderINtB5_20IdentityPreProcessorBW_EINtB5_14FixedPlacementBW_EE14refill_pendingBY_
FNDA:1,_RNvMsa_NtCseu8ThHmJ8jM_5flyby8pipelineINtB5_14SimplePipelineNtCsip1xAQdcTWT_7runtime4TickNtBY_9VecSourceNtBY_11TickDecoderINtB5_20IdentityPreProcessorBW_EINtB5_14FixedPlacementBW_EE16messages_droppedBY_
FNDA:12,_RNvMsa_NtCseu8ThHmJ8jM_5flyby8pipelineINtB5_14SimplePipelineNtCsip1xAQdcTWT_7runtime4TickNtBY_9VecSourceNtBY_11TickDecoderINtB5_20IdentityPreProcessorBW_EINtB5_14FixedPlacementBW_EE17process_one_frameBY_
FNDA:1,_RNvMsa_NtCseu8ThHmJ8jM_5flyby8pipelineINtB5_14SimplePipelineNtCsip1xAQdcTWT_7runtime4TickNtBY_9VecSourceNtBY_11TickDecoderINtB5_20IdentityPreProcessorBW_EINtB5_14FixedPlacementBW_EE19backpressure_eventsBY_
FNDA:12,_RNvMsa_NtCseu8ThHmJ8jM_5flyby8pipelineINtB5_14SimplePipelineNtCsip1xAQdcTWT_7runtime4TickNtBY_9VecSourceNtBY_11TickDecoderINtB5_20IdentityPreProcessorBW_EINtB5_14FixedPlacementBW_EE23write_with_backpressureBY_
FNDA:5,_RNvMsa_NtCseu8ThHmJ8jM_5flyby8pipelineINtB5_14SimplePipelineNtCsip1xAQdcTWT_7runtime4TickNtBY_9VecSourceNtBY_11TickDecoderINtB5_20IdentityPreProcessorBW_EINtB5_14FixedPlacementBW_EE3newBY_
FNDA:3,_RNvMsa_NtCseu8ThHmJ8jM_5flyby8pipelineINtB5_14SimplePipelineNtCsip1xAQdcTWT_7runtime4TickNtBY_9VecSourceNtBY_11TickDecoderINtB5_20IdentityPreProcessorBW_EINtB5_17CallbackPlacementBW_NCNvBY_s_34callback_and_schema_hash_placement0EE11ensure_initBY_
FNDA:4,_RNvMsa_NtCseu8ThHmJ8jM_5flyby8pipelineINtB5_14SimplePipelineNtCsip1xAQdcTWT_7runtime4TickNtBY_9VecSourceNtBY_11TickDecoderINtB5_20IdentityPreProcessorBW_EINtB5_17CallbackPlacementBW_NCNvBY_s_34callback_and_schema_hash_placement0EE13record_metricBY_
FNDA:1,_RNvMsa_NtCseu8ThHmJ8jM_5flyby8pipelineINtB5_14SimplePipelineNtCsip1xAQdcTWT_7runtime4TickNtBY_9VecSourceNtBY_11TickDecoderINtB5_20IdentityPreProcessorBW_EINtB5_17CallbackPlacementBW_NCNvBY_s_34callback_and_schema_hash_placement0EE14refill_pendingBY_
FNDA:4,_RNvMsa_NtCseu8ThHmJ8jM_5flyby8pipelineINtB5_14SimplePipelineNtCsip1xAQdcTWT_7runtime4TickNtBY_9VecSourceNtBY_11TickDecoderINtB5_20IdentityPreProcessorBW_EINtB5_17CallbackPlacementBW_NCNvBY_s_34callback_and_schema_hash_placement0EE17process_one_frameBY_
FNDA:2,_RNvMsa_NtCseu8ThHmJ8jM_5flyby8pipelineINtB5_14SimplePipelineNtCsip1xAQdcTWT_7runtime4TickNtBY_9VecSourceNtBY_11TickDecoderINtB5_20IdentityPreProcessorBW_EINtB5_17CallbackPlacementBW_NCNvBY_s_34callback_and_schema_hash_placement0EE23write_with_backpressureBY_
FNDA:1,_RNvMsa_NtCseu8ThHmJ8jM_5flyby8pipelineINtB5_14SimplePipelineNtCsip1xAQdcTWT_7runtime4TickNtBY_9VecSourceNtBY_11TickDecoderINtB5_20IdentityPreProcessorBW_EINtB5_17CallbackPlacementBW_NCNvBY_s_34callback_and_schema_hash_placement0EE3newBY_
FNDA:5,_RNvMsa_NtCseu8ThHmJ8jM_5flyby8pipelineINtB5_14SimplePipelineNtCsip1xAQdcTWT_7runtime4TickNtBY_9VecSourceNtBY_11TickDecoderINtB5_20IdentityPreProcessorBW_EINtB5_19RoundRobinPlacementBW_EE11ensure_initBY_
FNDA:4,_RNvMsa_NtCseu8ThHmJ8jM_5flyby8pipelineINtB5_14SimplePipelineNtCsip1xAQdcTWT_7runtime4TickNtBY_9VecSourceNtBY_11TickDecoderINtB5_20IdentityPreProcessorBW_EINtB5_19RoundRobinPlacementBW_EE13record_metricBY_
FNDA:1,_RNvMsa_NtCseu8ThHmJ8jM_5flyby8pipelineINtB5_14SimplePipelineNtCsip1xAQdcTWT_7runtime4TickNtBY_9VecSourceNtBY_11TickDecoderINtB5_20IdentityPreProcessorBW_EINtB5_19RoundRobinPlacementBW_EE14refill_pendingBY_
FNDA:4,_RNvMsa_NtCseu8ThHmJ8jM_5flyby8pipelineINtB5_14SimplePipelineNtCsip1xAQdcTWT_7runtime4TickNtBY_9VecSourceNtBY_11TickDecoderINtB5_20IdentityPreProcessorBW_EINtB5_19RoundRobinPlacementBW_EE17process_one_frameBY_
FNDA:4,_RNvMsa_NtCseu8ThHmJ8jM_5flyby8pipelineINtB5_14SimplePipelineNtCsip1xAQdcTWT_7runtime4TickNtBY_9VecSourceNtBY_11TickDecoderINtB5_20IdentityPreProcessorBW_EINtB5_19RoundRobinPlacementBW_EE23write_with_backpressureBY_
FNDA:1,_RNvMsa_NtCseu8ThHmJ8jM_5flyby8pipelineINtB5_14SimplePipelineNtCsip1xAQdcTWT_7runtime4TickNtBY_9VecSourceNtBY_11TickDecoderINtB5_20IdentityPreProcessorBW_EINtB5_19RoundRobinPlacementBW_EE3newBY_
FNDA:7,_RNvXNtCseu8ThHmJ8jM_5flyby8pipelineINtB2_20IdentityPreProcessorNtCsip1xAQdcTWT_7runtime4TickENtNtCsl8K0bEFm1U0_4core7default7Default7defaultB11_
FNDA:12,_RNvXs1_NtCseu8ThHmJ8jM_5flyby8pipelineINtB5_14FixedPlacementNtCsip1xAQdcTWT_7runtime4TickENtNtCscf8MsWp3cCb_10flyby_core9placement9Placement5routeBY_
FNDA:4,_RNvXs5_NtCseu8ThHmJ8jM_5flyby8pipelineINtB5_19RoundRobinPlacementNtCsip1xAQdcTWT_7runtime4TickENtNtCscf8MsWp3cCb_10flyby_core9placement9Placement5routeB13_
FNDA:4,_RNvXs9_NtCseu8ThHmJ8jM_5flyby8pipelineINtB5_17CallbackPlacementNtCsip1xAQdcTWT_7runtime4TickNCNvB11_s_34callback_and_schema_hash_placement0ENtNtCscf8MsWp3cCb_10flyby_core9placement9Placement5routeB11_
FNDA:20,_RNvXs_NtCseu8ThHmJ8jM_5flyby8pipelineINtB4_20IdentityPreProcessorNtCsip1xAQdcTWT_7runtime4TickENtNtCscf8MsWp3cCb_10flyby_core12preprocessor12PreProcessor7processB13_
FNDA:5,_RNvXsb_NtCseu8ThHmJ8jM_5flyby8pipelineINtB5_14SimplePipelineNtCsip1xAQdcTWT_7runtime4TickNtBY_9VecSourceNtBY_11TickDecoderINtB5_20IdentityPreProcessorBW_EINtB5_14FixedPlacementBW_EENtNtCscf8MsWp3cCb_10flyby_core9lifecycle9Lifecycle4initBY_
FNDA:5,_RNvXsb_NtCseu8ThHmJ8jM_5flyby8pipelineINtB5_14SimplePipelineNtCsip1xAQdcTWT_7runtime4TickNtBY_9VecSourceNtBY_11TickDecoderINtB5_20IdentityPreProcessorBW_EINtB5_14FixedPlacementBW_EENtNtCscf8MsWp3cCb_10flyby_core9lifecycle9Lifecycle8shutdownBY_
FNDA:1,_RNvXsb_NtCseu8ThHmJ8jM_5flyby8pipelineINtB5_14SimplePipelineNtCsip1xAQdcTWT_7runtime4TickNtBY_9VecSourceNtBY_11TickDecoderINtB5_20IdentityPreProcessorBW_EINtB5_17CallbackPlacementBW_NCNvBY_s_34callback_and_schema_hash_placement0EENtNtCscf8MsWp3cCb_10flyby_core9lifecycle9Lifecycle4initBY_
FNDA:1,_RNvXsb_NtCseu8ThHmJ8jM_5flyby8pipelineINtB5_14SimplePipelineNtCsip1xAQdcTWT_7runtime4TickNtBY_9VecSourceNtBY_11TickDecoderINtB5_20IdentityPreProcessorBW_EINtB5_17CallbackPlacementBW_NCNvBY_s_34callback_and_schema_hash_placement0EENtNtCscf8MsWp3cCb_10flyby_core9lifecycle9Lifecycle8shutdownBY_
FNDA:1,_RNvXsb_NtCseu8ThHmJ8jM_5flyby8pipelineINtB5_14SimplePipelineNtCsip1xAQdcTWT_7runtime4TickNtBY_9VecSourceNtBY_11TickDecoderINtB5_20IdentityPreProcessorBW_EINtB5_19RoundRobinPlacementBW_EENtNtCscf8MsWp3cCb_10flyby_core9lifecycle9Lifecycle4initBY_
FNDA:1,_RNvXsb_NtCseu8ThHmJ8jM_5flyby8pipelineINtB5_14SimplePipelineNtCsip1xAQdcTWT_7runtime4TickNtBY_9VecSourceNtBY_11TickDecoderINtB5_20IdentityPreProcessorBW_EINtB5_19RoundRobinPlacementBW_EENtNtCscf8MsWp3cCb_10flyby_core9lifecycle9Lifecycle8shutdownBY_
FNDA:17,_RNvXsc_NtCseu8ThHmJ8jM_5flyby8pipelineINtB5_14SimplePipelineNtCsip1xAQdcTWT_7runtime4TickNtBY_9VecSourceNtBY_11TickDecoderINtB5_20IdentityPreProcessorBW_EINtB5_14FixedPlacementBW_EENtNtCscf8MsWp3cCb_10flyby_core8pipeline8Pipeline12step_outcomeBY_
FNDA:5,_RNvXsc_NtCseu8ThHmJ8jM_5flyby8pipelineINtB5_14SimplePipelineNtCsip1xAQdcTWT_7runtime4TickNtBY_9VecSourceNtBY_11TickDecoderINtB5_20IdentityPreProcessorBW_EINtB5_14FixedPlacementBW_EENtNtCscf8MsWp3cCb_10flyby_core8pipeline8Pipeline13register_sinkBY_
FNDA:3,_RNvXsc_NtCseu8ThHmJ8jM_5flyby8pipelineINtB5_14SimplePipelineNtCsip1xAQdcTWT_7runtime4TickNtBY_9VecSourceNtBY_11TickDecoderINtB5_20IdentityPreProcessorBW_EINtB5_17CallbackPlacementBW_NCNvBY_s_34callback_and_schema_hash_placement0EENtNtCscf8MsWp3cCb_10flyby_core8pipeline8Pipeline12step_outcomeBY_
FNDA:1,_RNvXsc_NtCseu8ThHmJ8jM_5flyby8pipelineINtB5_14SimplePipelineNtCsip1xAQdcTWT_7runtime4TickNtBY_9VecSourceNtBY_11TickDecoderINtB5_20IdentityPreProcessorBW_EINtB5_17CallbackPlacementBW_NCNvBY_s_34callback_and_schema_hash_placement0EENtNtCscf8MsWp3cCb_10flyby_core8pipeline8Pipeline13register_sinkBY_
FNDA:5,_RNvXsc_NtCseu8ThHmJ8jM_5flyby8pipelineINtB5_14SimplePipelineNtCsip1xAQdcTWT_7runtime4TickNtBY_9VecSourceNtBY_11TickDecoderINtB5_20IdentityPreProcessorBW_EINtB5_19RoundRobinPlacementBW_EENtNtCscf8MsWp3cCb_10flyby_core8pipeline8Pipeline12step_outcomeBY_
FNDA:2,_RNvXsc_NtCseu8ThHmJ8jM_5flyby8pipelineINtB5_14SimplePipelineNtCsip1xAQdcTWT_7runtime4TickNtBY_9VecSourceNtBY_11TickDecoderINtB5_20IdentityPreProcessorBW_EINtB5_19RoundRobinPlacementBW_EENtNtCscf8MsWp3cCb_10flyby_core8pipeline8Pipeline13register_sinkBY_
FNF:68
FNH:43
DA:28,11
DA:29,11
DA:30,11
DA:38,10
DA:39,10
DA:40,10
DA:46,35
DA:47,35
DA:48,35
DA:60,8
DA:61,8
DA:62,0
DA:63,0
DA:64,0
DA:65,8
DA:66,8
DA:67,8
DA:68,8
DA:69,8
DA:70,8
DA:76,27
DA:77,27
DA:78,27
DA:86,0
DA:87,0
DA:88,0
DA:94,0
DA:95,0
DA:96,0
DA:109,1
DA:110,1
DA:111,0
DA:112,0
DA:113,0
DA:114,1
DA:115,2
DA:116,0
DA:117,0
DA:118,0
DA:119,1
DA:120,1
DA:121,1
DA:122,1
DA:123,1
DA:124,1
DA:125,1
DA:131,4
DA:132,4
DA:133,4
DA:134,4
DA:135,4
DA:151,1
DA:152,1
DA:153,0
DA:154,1
DA:155,1
DA:156,0
DA:157,1
DA:158,1
DA:159,1
DA:160,1
DA:161,1
DA:162,1
DA:163,1
DA:173,0
DA:174,0
DA:175,0
DA:176,0
DA:177,0
DA:184,1
DA:185,1
DA:186,1
DA:200,1
DA:201,1
DA:202,1
DA:203,1
DA:204,1
DA:205,1
DA:215,4
DA:216,4
DA:217,4
DA:254,10
DA:255,10
DA:256,10
DA:257,10
DA:258,10
DA:259,10
DA:260,10
DA:261,10
DA:262,10
DA:263,10
DA:264,10
DA:265,10
DA:266,10
DA:267,10
DA:268,10
DA:269,10
DA:270,10
DA:273,0
DA:274,0
DA:275,0
DA:276,0
DA:279,1
DA:280,1
DA:281,1
DA:282,1
DA:285,0
DA:286,0
DA:287,0
DA:290,2
DA:291,2
DA:292,2
DA:295,1
DA:296,1
DA:297,1
DA:300,1
DA:301,1
DA:302,1
DA:305,0
DA:306,0
DA:307,0
DA:310,0
DA:311,0
DA:312,0
DA:314,49
DA:315,49
DA:316,0
DA:317,0
DA:318,0
DA:319,49
DA:320,49
DA:321,49
DA:323,69
DA:324,69
DA:325,69
DA:326,69
DA:327,69
DA:329,23
DA:330,23
DA:331,23
DA:332,23
DA:334,23
DA:335,0
DA:336,23
DA:337,23
DA:338,23
DA:341,67
DA:342,67
DA:343,32
DA:344,32
DA:346,35
DA:347,0
DA:348,0
DA:350,35
DA:351,35
DA:352,2
DA:353,2
DA:354,33
DA:355,33
DA:356,67
DA:358,33
DA:359,33
DA:360,33
DA:362,33
DA:363,33
DA:364,0
DA:365,0
DA:366,33
DA:368,2
DA:370,31
DA:371,31
DA:372,31
DA:374,2
DA:375,2
DA:376,2
DA:377,2
DA:379,2
DA:380,2
DA:381,2
DA:384,0
DA:385,0
DA:386,0
DA:387,0
DA:388,0
DA:389,0
DA:390,0
DA:391,0
DA:392,0
DA:393,0
DA:396,0
DA:398,0
DA:399,0
DA:400,0
DA:402,0
DA:403,0
DA:404,0
DA:405,0
DA:408,0
DA:410,0
DA:412,0
DA:413,0
DA:414,0
DA:415,0
DA:416,0
DA:421,0
DA:422,0
DA:423,0
DA:425,0
DA:426,0
DA:427,0
DA:428,0
DA:429,0
DA:430,0
DA:431,0
DA:432,0
DA:433,0
DA:434,0
DA:438,0
DA:441,33
DA:461,10
DA:462,10
DA:463,0
DA:464,0
DA:465,0
DA:466,10
DA:467,10
DA:468,11
DA:469,11
DA:471,10
DA:472,10
DA:473,10
DA:474,10
DA:475,10
DA:476,10
DA:477,10
DA:478,10
DA:480,10
DA:481,10
DA:482,11
DA:483,11
DA:484,0
DA:485,0
DA:486,0
DA:487,11
DA:489,10
DA:490,0
DA:491,0
DA:492,0
DA:493,10
DA:494,10
DA:495,10
DA:496,10
DA:497,10
DA:499,0
DA:500,0
DA:501,0
DA:502,0
DA:515,0
DA:516,0
DA:517,0
DA:518,0
DA:520,0
DA:522,49
DA:523,49
DA:526,50
DA:527,19
DA:528,19
DA:530,18
DA:531,18
DA:534,1
DA:535,1
DA:539,0
DA:544,31
DA:545,8
DA:546,23
DA:548,23
DA:549,23
DA:550,0
DA:551,0
DA:552,0
DA:553,0
DA:554,23
DA:556,56
DA:557,48
DA:558,48
DA:560,15
DA:561,15
DA:564,33
DA:565,33
DA:567,0
DA:570,8
DA:571,49
DA:573,11
DA:574,11
DA:575,11
DA:576,11
DA:577,11
DA:578,11
DA:579,0
DA:580,11
DA:581,11
DA:582,0
DA:583,11
DA:584,11
DA:585,0
DA:586,0
DA:587,0
DA:588,0
DA:589,11
DA:590,11
DA:591,11
DA:592,11
DA:607,2
DA:608,2
DA:609,2
DA:610,2
DA:611,2
DA:612,2
DA:615,0
DA:616,0
DA:617,0
DA:620,0
DA:621,0
DA:622,0
DA:626,2
DA:627,2
DA:628,2
DA:630,2
DA:631,2
DA:632,2
DA:636,11
DA:637,11
DA:638,11
DA:639,44
DA:640,44
DA:641,44
DA:642,11
DA:643,11
DA:654,0
DA:655,0
DA:656,0
DA:657,0
DA:658,0
DA:659,0
DA:662,0
DA:663,0
DA:664,0
DA:667,0
DA:668,0
DA:669,0
DA:672,0
DA:673,0
DA:674,0
DA:678,0
DA:679,0
DA:680,0
DA:682,0
DA:683,0
DA:684,0
DA:688,0
DA:689,0
DA:690,0
DA:691,0
DA:692,0
DA:693,0
DA:694,0
DA:695,0
DA:697,0
DA:698,0
DA:699,0
DA:714,0
DA:715,0
DA:716,0
DA:717,0
DA:718,0
DA:719,0
DA:720,0
DA:721,0
DA:722,0
DA:723,0
DA:724,0
DA:725,0
DA:729,0
DA:730,0
DA:731,0
DA:732,5
DA:733,5
DA:734,5
DA:735,5
DA:741,5
DA:742,5
DA:743,0
DA:744,5
DA:745,5
DA:746,5
DA:747,5
DA:757,1
DA:758,1
DA:759,1
DA:760,1
DA:761,1
DA:762,1
DA:763,1
DA:764,1
DA:765,1
DA:769,5
DA:770,5
DA:771,0
DA:772,5
DA:773,5
DA:774,0
DA:775,5
DA:776,5
DA:777,5
DA:778,5
DA:779,5
DA:780,5
DA:781,6
DA:782,6
DA:783,6
DA:793,5
DA:794,5
DA:795,5
DA:796,5
DA:800,1
DA:801,1
DA:802,5
DA:803,5
DA:804,5
DA:805,5
DA:806,5
DA:807,1
DA:808,1
DA:809,1
DA:810,1
DA:811,1
DA:812,1
DA:813,1
DA:814,1
DA:815,1
DA:816,1
DA:817,1
DA:818,1
DA:820,1
DA:823,1
DA:824,1
DA:825,1
DA:826,1
DA:827,6
DA:828,5
DA:829,1
DA:830,0
DA:833,1
DA:834,1
DA:835,1
DA:836,1
DA:840,1
DA:849,10
DA:850,10
DA:851,0
DA:852,10
DA:853,10
DA:854,10
DA:855,10
DA:858,1
DA:859,1
DA:860,1
DA:861,1
DA:862,1
DA:863,1
DA:864,1
DA:865,1
DA:866,1
DA:867,1
DA:868,1
DA:869,1
DA:871,1
DA:872,1
DA:873,1
DA:874,1
DA:875,1
DA:876,10
DA:877,10
DA:878,10
DA:880,1
DA:881,1
DA:882,1
BRF:0
BRH:0
LF:494
LH:318
end_of_record
SF:/Users/thanos/work/flyby/crates/flyby/src/runtime/affinity.rs
FN:33,_RNvMNtNtCsggT0ekrhFaK_5flyby7runtime8affinityNtB2_15AffinityRequest10for_worker
FN:46,_RNvNtNtCsggT0ekrhFaK_5flyby7runtime8affinity14apply_affinity
FN:33,_RNvMNtNtCseu8ThHmJ8jM_5flyby7runtime8affinityNtB2_15AffinityRequest10for_worker
FN:46,_RNvNtNtCseu8ThHmJ8jM_5flyby7runtime8affinity14apply_affinity
FNDA:0,_RNvMNtNtCsggT0ekrhFaK_5flyby7runtime8affinityNtB2_15AffinityRequest10for_worker
FNDA:0,_RNvNtNtCsggT0ekrhFaK_5flyby7runtime8affinity14apply_affinity
FNDA:2,_RNvMNtNtCseu8ThHmJ8jM_5flyby7runtime8affinityNtB2_15AffinityRequest10for_worker
FNDA:3,_RNvNtNtCseu8ThHmJ8jM_5flyby7runtime8affinity14apply_affinity
FNF:2
FNH:2
DA:33,2
DA:34,2
DA:35,2
DA:36,2
DA:37,2
DA:38,2
DA:39,2
DA:46,3
DA:47,2
DA:48,1
DA:49,1
DA:50,1
DA:51,1
DA:52,1
DA:53,1
DA:55,3
BRF:0
BRH:0
LF:16
LH:16
end_of_record
SF:/Users/thanos/work/flyby/crates/flyby/src/runtime/backpressure.rs
FN:31,_RNvMNtNtCsggT0ekrhFaK_5flyby7runtime12backpressureNtB2_20BackpressureStrategy6as_str
FN:31,_RNvMNtNtCseu8ThHmJ8jM_5flyby7runtime12backpressureNtB2_20BackpressureStrategy6as_str
FNDA:0,_RNvMNtNtCsggT0ekrhFaK_5flyby7runtime12backpressureNtB2_20BackpressureStrategy6as_str
FNDA:0,_RNvMNtNtCseu8ThHmJ8jM_5flyby7runtime12backpressureNtB2_20BackpressureStrategy6as_str
FNF:1
FNH:0
DA:31,0
DA:32,0
DA:33,0
DA:34,0
DA:35,0
DA:36,0
DA:37,0
DA:38,0
DA:40,0
BRF:0
BRH:0
LF:9
LH:0
end_of_record
SF:/Users/thanos/work/flyby/crates/flyby/src/runtime/config.rs
FN:204,_RNvNtNtNtCsggT0ekrhFaK_5flyby7runtime6config5testss_18rejects_zero_batch
FN:185,_RNvNtNtNtCsggT0ekrhFaK_5flyby7runtime6config5testss_19parses_toml_example
FN:108,_RNCNvMs_NtNtCsggT0ekrhFaK_5flyby7runtime6configNtB6_13RuntimeConfig13from_toml_str0Ba_
FN:106,_RNvMs_NtNtCsggT0ekrhFaK_5flyby7runtime6configNtB4_13RuntimeConfig13from_toml_str
FN:145,_RNvMs_NtNtCsggT0ekrhFaK_5flyby7runtime6configNtB4_13RuntimeConfig18backpressure_yield
FN:126,_RNvMs_NtNtCsggT0ekrhFaK_5flyby7runtime6configNtB4_13RuntimeConfig8validate
FN:74,_RNvNtNtCsggT0ekrhFaK_5flyby7runtime6config12default_true
FN:68,_RNvNtNtCsggT0ekrhFaK_5flyby7runtime6config15default_workers
FN:77,_RNvNtNtCsggT0ekrhFaK_5flyby7runtime6config16default_yield_ms
FN:71,_RNvNtNtCsggT0ekrhFaK_5flyby7runtime6config18default_batch_size
FN:82,_RNvXNtNtCsggT0ekrhFaK_5flyby7runtime6configNtB2_13RuntimeConfigNtNtCsl8K0bEFm1U0_4core7default7Default7default
FN:114,_RINvMs_NtNtCsggT0ekrhFaK_5flyby7runtime6configNtB5_13RuntimeConfig14from_toml_pathpEB9_
FN:116,_RNCINvMs_NtNtCsggT0ekrhFaK_5flyby7runtime6configNtB7_13RuntimeConfig14from_toml_pathpE0Bb_
FN:140,_RNvMs_NtNtCsggT0ekrhFaK_5flyby7runtime6configNtB4_13RuntimeConfig10idle_sleep
FN:174,_RNvMs_NtNtCsggT0ekrhFaK_5flyby7runtime6configNtB4_13RuntimeConfig12with_metrics
FN:150,_RNvMs_NtNtCsggT0ekrhFaK_5flyby7runtime6configNtB4_13RuntimeConfig12with_workers
FN:168,_RNvMs_NtNtCsggT0ekrhFaK_5flyby7runtime6configNtB4_13RuntimeConfig14with_scheduler
FN:156,_RNvMs_NtNtCsggT0ekrhFaK_5flyby7runtime6configNtB4_13RuntimeConfig15with_batch_size
FN:162,_RNvMs_NtNtCsggT0ekrhFaK_5flyby7runtime6configNtB4_13RuntimeConfig17with_backpressure
FN:108,_RNCNvMs_NtNtCseu8ThHmJ8jM_5flyby7runtime6configNtB6_13RuntimeConfig13from_toml_str0Ba_
FN:140,_RNvMs_NtNtCseu8ThHmJ8jM_5flyby7runtime6configNtB4_13RuntimeConfig10idle_sleep
FN:174,_RNvMs_NtNtCseu8ThHmJ8jM_5flyby7runtime6configNtB4_13RuntimeConfig12with_metrics
FN:150,_RNvMs_NtNtCseu8ThHmJ8jM_5flyby7runtime6configNtB4_13RuntimeConfig12with_workers
FN:106,_RNvMs_NtNtCseu8ThHmJ8jM_5flyby7runtime6configNtB4_13RuntimeConfig13from_toml_str
FN:168,_RNvMs_NtNtCseu8ThHmJ8jM_5flyby7runtime6configNtB4_13RuntimeConfig14with_scheduler
FN:156,_RNvMs_NtNtCseu8ThHmJ8jM_5flyby7runtime6configNtB4_13RuntimeConfig15with_batch_size
FN:162,_RNvMs_NtNtCseu8ThHmJ8jM_5flyby7runtime6configNtB4_13RuntimeConfig17with_backpressure
FN:145,_RNvMs_NtNtCseu8ThHmJ8jM_5flyby7runtime6configNtB4_13RuntimeConfig18backpressure_yield
FN:126,_RNvMs_NtNtCseu8ThHmJ8jM_5flyby7runtime6configNtB4_13RuntimeConfig8validate
FN:74,_RNvNtNtCseu8ThHmJ8jM_5flyby7runtime6config12default_true
FN:68,_RNvNtNtCseu8ThHmJ8jM_5flyby7runtime6config15default_workers
FN:77,_RNvNtNtCseu8ThHmJ8jM_5flyby7runtime6config16default_yield_ms
FN:71,_RNvNtNtCseu8ThHmJ8jM_5flyby7runtime6config18default_batch_size
FN:82,_RNvXNtNtCseu8ThHmJ8jM_5flyby7runtime6configNtB2_13RuntimeConfigNtNtCsl8K0bEFm1U0_4core7default7Default7default
FNDA:1,_RNvNtNtNtCsggT0ekrhFaK_5flyby7runtime6config5testss_18rejects_zero_batch
FNDA:1,_RNvNtNtNtCsggT0ekrhFaK_5flyby7runtime6config5testss_19parses_toml_example
FNDA:0,_RNCNvMs_NtNtCsggT0ekrhFaK_5flyby7runtime6configNtB6_13RuntimeConfig13from_toml_str0Ba_
FNDA:1,_RNvMs_NtNtCsggT0ekrhFaK_5flyby7runtime6configNtB4_13RuntimeConfig13from_toml_str
FNDA:0,_RNvMs_NtNtCsggT0ekrhFaK_5flyby7runtime6configNtB4_13RuntimeConfig18backpressure_yield
FNDA:2,_RNvMs_NtNtCsggT0ekrhFaK_5flyby7runtime6configNtB4_13RuntimeConfig8validate
FNDA:0,_RNvNtNtCsggT0ekrhFaK_5flyby7runtime6config12default_true
FNDA:4,_RNvNtNtCsggT0ekrhFaK_5flyby7runtime6config15default_workers
FNDA:1,_RNvNtNtCsggT0ekrhFaK_5flyby7runtime6config16default_yield_ms
FNDA:4,_RNvNtNtCsggT0ekrhFaK_5flyby7runtime6config18default_batch_size
FNDA:4,_RNvXNtNtCsggT0ekrhFaK_5flyby7runtime6configNtB2_13RuntimeConfigNtNtCsl8K0bEFm1U0_4core7default7Default7default
FNDA:0,_RINvMs_NtNtCsggT0ekrhFaK_5flyby7runtime6configNtB5_13RuntimeConfig14from_toml_pathpEB9_
FNDA:0,_RNCINvMs_NtNtCsggT0ekrhFaK_5flyby7runtime6configNtB7_13RuntimeConfig14from_toml_pathpE0Bb_
FNDA:0,_RNvMs_NtNtCsggT0ekrhFaK_5flyby7runtime6configNtB4_13RuntimeConfig10idle_sleep
FNDA:0,_RNvMs_NtNtCsggT0ekrhFaK_5flyby7runtime6configNtB4_13RuntimeConfig12with_metrics
FNDA:0,_RNvMs_NtNtCsggT0ekrhFaK_5flyby7runtime6configNtB4_13RuntimeConfig12with_workers
FNDA:0,_RNvMs_NtNtCsggT0ekrhFaK_5flyby7runtime6configNtB4_13RuntimeConfig14with_scheduler
FNDA:0,_RNvMs_NtNtCsggT0ekrhFaK_5flyby7runtime6configNtB4_13RuntimeConfig15with_batch_size
FNDA:0,_RNvMs_NtNtCsggT0ekrhFaK_5flyby7runtime6configNtB4_13RuntimeConfig17with_backpressure
FNDA:0,_RNCNvMs_NtNtCseu8ThHmJ8jM_5flyby7runtime6configNtB6_13RuntimeConfig13from_toml_str0Ba_
FNDA:0,_RNvMs_NtNtCseu8ThHmJ8jM_5flyby7runtime6configNtB4_13RuntimeConfig10idle_sleep
FNDA:0,_RNvMs_NtNtCseu8ThHmJ8jM_5flyby7runtime6configNtB4_13RuntimeConfig12with_metrics
FNDA:1,_RNvMs_NtNtCseu8ThHmJ8jM_5flyby7runtime6configNtB4_13RuntimeConfig12with_workers
FNDA:1,_RNvMs_NtNtCseu8ThHmJ8jM_5flyby7runtime6configNtB4_13RuntimeConfig13from_toml_str
FNDA:1,_RNvMs_NtNtCseu8ThHmJ8jM_5flyby7runtime6configNtB4_13RuntimeConfig14with_scheduler
FNDA:1,_RNvMs_NtNtCseu8ThHmJ8jM_5flyby7runtime6configNtB4_13RuntimeConfig15with_batch_size
FNDA:1,_RNvMs_NtNtCseu8ThHmJ8jM_5flyby7runtime6configNtB4_13RuntimeConfig17with_backpressure
FNDA:0,_RNvMs_NtNtCseu8ThHmJ8jM_5flyby7runtime6configNtB4_13RuntimeConfig18backpressure_yield
FNDA:4,_RNvMs_NtNtCseu8ThHmJ8jM_5flyby7runtime6configNtB4_13RuntimeConfig8validate
FNDA:0,_RNvNtNtCseu8ThHmJ8jM_5flyby7runtime6config12default_true
FNDA:13,_RNvNtNtCseu8ThHmJ8jM_5flyby7runtime6config15default_workers
FNDA:1,_RNvNtNtCseu8ThHmJ8jM_5flyby7runtime6config16default_yield_ms
FNDA:13,_RNvNtNtCseu8ThHmJ8jM_5flyby7runtime6config18default_batch_size
FNDA:13,_RNvXNtNtCseu8ThHmJ8jM_5flyby7runtime6configNtB2_13RuntimeConfigNtNtCsl8K0bEFm1U0_4core7default7Default7default
FNF:19
FNH:12
DA:68,17
DA:69,17
DA:70,17
DA:71,17
DA:72,17
DA:73,17
DA:74,0
DA:75,0
DA:76,0
DA:77,2
DA:78,2
DA:79,2
DA:82,17
DA:83,17
DA:84,17
DA:85,17
DA:86,17
DA:87,17
DA:88,17
DA:89,17
DA:90,17
DA:91,17
DA:92,17
DA:93,17
DA:94,17
DA:106,2
DA:107,2
DA:108,2
DA:109,2
DA:110,2
DA:111,2
DA:114,0
DA:115,0
DA:116,0
DA:117,0
DA:119,0
DA:121,0
DA:122,0
DA:123,0
DA:126,6
DA:127,6
DA:128,0
DA:129,6
DA:130,6
DA:131,1
DA:132,5
DA:133,5
DA:134,0
DA:135,5
DA:136,5
DA:137,6
DA:140,0
DA:141,0
DA:142,0
DA:145,0
DA:146,0
DA:147,0
DA:150,1
DA:151,1
DA:152,1
DA:153,1
DA:156,1
DA:157,1
DA:158,1
DA:159,1
DA:162,1
DA:163,1
DA:164,1
DA:165,1
DA:168,1
DA:169,1
DA:170,1
DA:171,1
DA:174,0
DA:175,0
DA:176,0
DA:177,0
DA:185,1
DA:186,1
DA:187,1
DA:188,1
DA:189,1
DA:190,1
DA:191,1
DA:192,1
DA:193,1
DA:194,1
DA:196,1
DA:197,1
DA:198,1
DA:199,1
DA:200,1
DA:201,1
DA:204,1
DA:205,1
DA:206,1
DA:207,1
DA:208,1
DA:209,1
DA:210,1
BRF:0
BRH:0
LF:103
LH:77
end_of_record
SF:/Users/thanos/work/flyby/crates/flyby/src/runtime/driver.rs
FN:88,_RINvMs_NtNtCsggT0ekrhFaK_5flyby7runtime6driverINtB5_7RuntimepE12with_metricspEB9_
FN:279,_RINvNtNtCsggT0ekrhFaK_5flyby7runtime6driver12run_pipelinepEB6_
FN:269,_RINvNtNtCsggT0ekrhFaK_5flyby7runtime6driver23run_with_worker_factoryppEB6_
FN:36,_RNvMNtNtCsggT0ekrhFaK_5flyby7runtime6driverNtB2_12RuntimePhase5as_u8
FN:150,_RNvMs_NtNtCsggT0ekrhFaK_5flyby7runtime6driverINtB4_7RuntimepE10initializeB8_
FN:120,_RNvMs_NtNtCsggT0ekrhFaK_5flyby7runtime6driverINtB4_7RuntimepE12pipeline_mutB8_
FN:109,_RNvMs_NtNtCsggT0ekrhFaK_5flyby7runtime6driverINtB4_7RuntimepE15shutdown_handleB8_
FN:114,_RNvMs_NtNtCsggT0ekrhFaK_5flyby7runtime6driverINtB4_7RuntimepE16request_shutdownB8_
FN:245,_RNvMs_NtNtCsggT0ekrhFaK_5flyby7runtime6driverINtB4_7RuntimepE17shutdown_pipelineB8_
FN:165,_RNvMs_NtNtCsggT0ekrhFaK_5flyby7runtime6driverINtB4_7RuntimepE3runB8_
FN:72,_RNvMs_NtNtCsggT0ekrhFaK_5flyby7runtime6driverINtB4_7RuntimepE5buildB8_
FN:99,_RNvMs_NtNtCsggT0ekrhFaK_5flyby7runtime6driverINtB4_7RuntimepE5phaseB8_
FN:104,_RNvMs_NtNtCsggT0ekrhFaK_5flyby7runtime6driverINtB4_7RuntimepE5statsB8_
FN:94,_RNvMs_NtNtCsggT0ekrhFaK_5flyby7runtime6driverINtB4_7RuntimepE6configB8_
FN:257,_RNvMs_NtNtCsggT0ekrhFaK_5flyby7runtime6driverINtB4_7RuntimepE7cleanupB8_
FN:125,_RNvMs_NtNtCsggT0ekrhFaK_5flyby7runtime6driverINtB4_7RuntimepE8pipelineB8_
FN:138,_RNvMs_NtNtCsggT0ekrhFaK_5flyby7runtime6driverINtB4_7RuntimepE8validateB8_
FN:129,_RNvMs_NtNtCsggT0ekrhFaK_5flyby7runtime6driverINtB4_7RuntimepE9set_phaseB8_
FN:279,_RINvNtNtCseu8ThHmJ8jM_5flyby7runtime6driver12run_pipelineINtNtB6_8pipeline14SimplePipelineNtCsip1xAQdcTWT_7runtime4TickNtB1s_9VecSourceNtB1s_11TickDecoderINtBW_20IdentityPreProcessorB1q_EINtBW_14FixedPlacementB1q_EEEB1s_
FN:279,_RINvNtNtCseu8ThHmJ8jM_5flyby7runtime6driver12run_pipelineINtNtB6_8pipeline14SimplePipelineNtCsip1xAQdcTWT_7runtime4TickNtB1s_9VecSourceNtB1s_11TickDecoderINtBW_20IdentityPreProcessorB1q_EINtBW_17CallbackPlacementB1q_NCNvB1s_s_34callback_and_schema_hash_placement0EEEB1s_
FN:279,_RINvNtNtCseu8ThHmJ8jM_5flyby7runtime6driver12run_pipelineINtNtB6_8pipeline14SimplePipelineNtCsip1xAQdcTWT_7runtime4TickNtB1s_9VecSourceNtB1s_11TickDecoderINtBW_20IdentityPreProcessorB1q_EINtBW_19RoundRobinPlacementB1q_EEEB1s_
FN:150,_RNvMs_NtNtCseu8ThHmJ8jM_5flyby7runtime6driverINtB4_7RuntimeINtNtB8_8pipeline14SimplePipelineNtCsip1xAQdcTWT_7runtime4TickNtB1u_9VecSourceNtB1u_11TickDecoderINtBY_20IdentityPreProcessorB1s_EINtBY_14FixedPlacementB1s_EEE10initializeB1u_
FN:245,_RNvMs_NtNtCseu8ThHmJ8jM_5flyby7runtime6driverINtB4_7RuntimeINtNtB8_8pipeline14SimplePipelineNtCsip1xAQdcTWT_7runtime4TickNtB1u_9VecSourceNtB1u_11TickDecoderINtBY_20IdentityPreProcessorB1s_EINtBY_14FixedPlacementB1s_EEE17shutdown_pipelineB1u_
FN:165,_RNvMs_NtNtCseu8ThHmJ8jM_5flyby7runtime6driverINtB4_7RuntimeINtNtB8_8pipeline14SimplePipelineNtCsip1xAQdcTWT_7runtime4TickNtB1u_9VecSourceNtB1u_11TickDecoderINtBY_20IdentityPreProcessorB1s_EINtBY_14FixedPlacementB1s_EEE3runB1u_
FN:72,_RNvMs_NtNtCseu8ThHmJ8jM_5flyby7runtime6driverINtB4_7RuntimeINtNtB8_8pipeline14SimplePipelineNtCsip1xAQdcTWT_7runtime4TickNtB1u_9VecSourceNtB1u_11TickDecoderINtBY_20IdentityPreProcessorB1s_EINtBY_14FixedPlacementB1s_EEE5buildB1u_
FN:99,_RNvMs_NtNtCseu8ThHmJ8jM_5flyby7runtime6driverINtB4_7RuntimeINtNtB8_8pipeline14SimplePipelineNtCsip1xAQdcTWT_7runtime4TickNtB1u_9VecSourceNtB1u_11TickDecoderINtBY_20IdentityPreProcessorB1s_EINtBY_14FixedPlacementB1s_EEE5phaseB1u_
FN:257,_RNvMs_NtNtCseu8ThHmJ8jM_5flyby7runtime6driverINtB4_7RuntimeINtNtB8_8pipeline14SimplePipelineNtCsip1xAQdcTWT_7runtime4TickNtB1u_9VecSourceNtB1u_11TickDecoderINtBY_20IdentityPreProcessorB1s_EINtBY_14FixedPlacementB1s_EEE7cleanupB1u_
FN:138,_RNvMs_NtNtCseu8ThHmJ8jM_5flyby7runtime6driverINtB4_7RuntimeINtNtB8_8pipeline14SimplePipelineNtCsip1xAQdcTWT_7runtime4TickNtB1u_9VecSourceNtB1u_11TickDecoderINtBY_20IdentityPreProcessorB1s_EINtBY_14FixedPlacementB1s_EEE8validateB1u_
FN:129,_RNvMs_NtNtCseu8ThHmJ8jM_5flyby7runtime6driverINtB4_7RuntimeINtNtB8_8pipeline14SimplePipelineNtCsip1xAQdcTWT_7runtime4TickNtB1u_9VecSourceNtB1u_11TickDecoderINtBY_20IdentityPreProcessorB1s_EINtBY_14FixedPlacementB1s_EEE9set_phaseB1u_
FN:36,_RNvMNtNtCseu8ThHmJ8jM_5flyby7runtime6driverNtB2_12RuntimePhase5as_u8
FNDA:0,_RINvMs_NtNtCsggT0ekrhFaK_5flyby7runtime6driverINtB5_7RuntimepE12with_metricspEB9_
FNDA:0,_RINvNtNtCsggT0ekrhFaK_5flyby7runtime6driver12run_pipelinepEB6_
FNDA:0,_RINvNtNtCsggT0ekrhFaK_5flyby7runtime6driver23run_with_worker_factoryppEB6_
FNDA:0,_RNvMNtNtCsggT0ekrhFaK_5flyby7runtime6driverNtB2_12RuntimePhase5as_u8
FNDA:0,_RNvMs_NtNtCsggT0ekrhFaK_5flyby7runtime6driverINtB4_7RuntimepE10initializeB8_
FNDA:0,_RNvMs_NtNtCsggT0ekrhFaK_5flyby7runtime6driverINtB4_7RuntimepE12pipeline_mutB8_
FNDA:0,_RNvMs_NtNtCsggT0ekrhFaK_5flyby7runtime6driverINtB4_7RuntimepE15shutdown_handleB8_
FNDA:0,_RNvMs_NtNtCsggT0ekrhFaK_5flyby7runtime6driverINtB4_7RuntimepE16request_shutdownB8_
FNDA:0,_RNvMs_NtNtCsggT0ekrhFaK_5flyby7runtime6driverINtB4_7RuntimepE17shutdown_pipelineB8_
FNDA:0,_RNvMs_NtNtCsggT0ekrhFaK_5flyby7runtime6driverINtB4_7RuntimepE3runB8_
FNDA:0,_RNvMs_NtNtCsggT0ekrhFaK_5flyby7runtime6driverINtB4_7RuntimepE5buildB8_
FNDA:0,_RNvMs_NtNtCsggT0ekrhFaK_5flyby7runtime6driverINtB4_7RuntimepE5phaseB8_
FNDA:0,_RNvMs_NtNtCsggT0ekrhFaK_5flyby7runtime6driverINtB4_7RuntimepE5statsB8_
FNDA:0,_RNvMs_NtNtCsggT0ekrhFaK_5flyby7runtime6driverINtB4_7RuntimepE6configB8_
FNDA:0,_RNvMs_NtNtCsggT0ekrhFaK_5flyby7runtime6driverINtB4_7RuntimepE7cleanupB8_
FNDA:0,_RNvMs_NtNtCsggT0ekrhFaK_5flyby7runtime6driverINtB4_7RuntimepE8pipelineB8_
FNDA:0,_RNvMs_NtNtCsggT0ekrhFaK_5flyby7runtime6driverINtB4_7RuntimepE8validateB8_
FNDA:0,_RNvMs_NtNtCsggT0ekrhFaK_5flyby7runtime6driverINtB4_7RuntimepE9set_phaseB8_
FNDA:1,_RINvNtNtCseu8ThHmJ8jM_5flyby7runtime6driver12run_pipelineINtNtB6_8pipeline14SimplePipelineNtCsip1xAQdcTWT_7runtime4TickNtB1s_9VecSourceNtB1s_11TickDecoderINtBW_20IdentityPreProcessorB1q_EINtBW_14FixedPlacementB1q_EEEB1s_
FNDA:1,_RINvNtNtCseu8ThHmJ8jM_5flyby7runtime6driver12run_pipelineINtNtB6_8pipeline14SimplePipelineNtCsip1xAQdcTWT_7runtime4TickNtB1s_9VecSourceNtB1s_11TickDecoderINtBW_20IdentityPreProcessorB1q_EINtBW_17CallbackPlacementB1q_NCNvB1s_s_34callback_and_schema_hash_placement0EEEB1s_
FNDA:1,_RINvNtNtCseu8ThHmJ8jM_5flyby7runtime6driver12run_pipelineINtNtB6_8pipeline14SimplePipelineNtCsip1xAQdcTWT_7runtime4TickNtB1s_9VecSourceNtB1s_11TickDecoderINtBW_20IdentityPreProcessorB1q_EINtBW_19RoundRobinPlacementB1q_EEEB1s_
FNDA:1,_RNvMs_NtNtCseu8ThHmJ8jM_5flyby7runtime6driverINtB4_7RuntimeINtNtB8_8pipeline14SimplePipelineNtCsip1xAQdcTWT_7runtime4TickNtB1u_9VecSourceNtB1u_11TickDecoderINtBY_20IdentityPreProcessorB1s_EINtBY_14FixedPlacementB1s_EEE10initializeB1u_
FNDA:1,_RNvMs_NtNtCseu8ThHmJ8jM_5flyby7runtime6driverINtB4_7RuntimeINtNtB8_8pipeline14SimplePipelineNtCsip1xAQdcTWT_7runtime4TickNtB1u_9VecSourceNtB1u_11TickDecoderINtBY_20IdentityPreProcessorB1s_EINtBY_14FixedPlacementB1s_EEE17shutdown_pipelineB1u_
FNDA:1,_RNvMs_NtNtCseu8ThHmJ8jM_5flyby7runtime6driverINtB4_7RuntimeINtNtB8_8pipeline14SimplePipelineNtCsip1xAQdcTWT_7runtime4TickNtB1u_9VecSourceNtB1u_11TickDecoderINtBY_20IdentityPreProcessorB1s_EINtBY_14FixedPlacementB1s_EEE3runB1u_
FNDA:1,_RNvMs_NtNtCseu8ThHmJ8jM_5flyby7runtime6driverINtB4_7RuntimeINtNtB8_8pipeline14SimplePipelineNtCsip1xAQdcTWT_7runtime4TickNtB1u_9VecSourceNtB1u_11TickDecoderINtBY_20IdentityPreProcessorB1s_EINtBY_14FixedPlacementB1s_EEE5buildB1u_
FNDA:3,_RNvMs_NtNtCseu8ThHmJ8jM_5flyby7runtime6driverINtB4_7RuntimeINtNtB8_8pipeline14SimplePipelineNtCsip1xAQdcTWT_7runtime4TickNtB1u_9VecSourceNtB1u_11TickDecoderINtBY_20IdentityPreProcessorB1s_EINtBY_14FixedPlacementB1s_EEE5phaseB1u_
FNDA:1,_RNvMs_NtNtCseu8ThHmJ8jM_5flyby7runtime6driverINtB4_7RuntimeINtNtB8_8pipeline14SimplePipelineNtCsip1xAQdcTWT_7runtime4TickNtB1u_9VecSourceNtB1u_11TickDecoderINtBY_20IdentityPreProcessorB1s_EINtBY_14FixedPlacementB1s_EEE7cleanupB1u_
FNDA:1,_RNvMs_NtNtCseu8ThHmJ8jM_5flyby7runtime6driverINtB4_7RuntimeINtNtB8_8pipeline14SimplePipelineNtCsip1xAQdcTWT_7runtime4TickNtB1u_9VecSourceNtB1u_11TickDecoderINtBY_20IdentityPreProcessorB1s_EINtBY_14FixedPlacementB1s_EEE8validateB1u_
FNDA:6,_RNvMs_NtNtCseu8ThHmJ8jM_5flyby7runtime6driverINtB4_7RuntimeINtNtB8_8pipeline14SimplePipelineNtCsip1xAQdcTWT_7runtime4TickNtB1u_9VecSourceNtB1u_11TickDecoderINtBY_20IdentityPreProcessorB1s_EINtBY_14FixedPlacementB1s_EEE9set_phaseB1u_
FNDA:6,_RNvMNtNtCseu8ThHmJ8jM_5flyby7runtime6driverNtB2_12RuntimePhase5as_u8
FNF:18
FNH:10
DA:36,6
DA:37,6
DA:38,0
DA:39,1
DA:40,1
DA:41,1
DA:42,1
DA:43,1
DA:44,1
DA:46,6
DA:72,1
DA:73,1
DA:74,1
DA:75,1
DA:76,1
DA:77,1
DA:78,1
DA:79,1
DA:80,1
DA:81,1
DA:82,1
DA:83,1
DA:84,1
DA:85,1
DA:88,0
DA:89,0
DA:90,0
DA:91,0
DA:94,0
DA:95,0
DA:96,0
DA:99,3
DA:100,3
DA:101,3
DA:104,0
DA:105,0
DA:106,0
DA:109,0
DA:110,0
DA:111,0
DA:114,0
DA:115,0
DA:116,0
DA:117,0
DA:120,0
DA:121,0
DA:122,0
DA:125,0
DA:126,0
DA:127,0
DA:129,6
DA:130,6
DA:131,6
DA:132,6
DA:133,6
DA:134,6
DA:135,6
DA:138,1
DA:139,1
DA:140,1
DA:141,1
DA:142,1
DA:143,1
DA:144,1
DA:146,1
DA:147,1
DA:150,1
DA:151,1
DA:152,0
DA:153,1
DA:154,1
DA:155,1
DA:156,1
DA:157,1
DA:158,1
DA:159,1
DA:161,1
DA:162,1
DA:165,1
DA:166,1
DA:167,1
DA:168,0
DA:169,1
DA:170,1
DA:171,1
DA:172,1
DA:173,1
DA:175,1
DA:176,1
DA:177,1
DA:178,1
DA:180,1
DA:181,1
DA:184,1
DA:185,1
DA:186,1
DA:190,4
DA:191,0
DA:192,4
DA:193,4
DA:194,4
DA:195,4
DA:196,4
DA:197,4
DA:198,4
DA:199,4
DA:200,4
DA:201,4
DA:202,4
DA:203,4
DA:205,1
DA:206,1
DA:207,1
DA:208,1
DA:209,1
DA:211,1
DA:214,0
DA:215,0
DA:216,0
DA:219,0
DA:220,0
DA:221,0
DA:222,0
DA:223,0
DA:224,0
DA:225,0
DA:226,0
DA:227,0
DA:228,0
DA:230,3
DA:232,3
DA:237,1
DA:238,1
DA:239,1
DA:240,1
DA:241,1
DA:242,1
DA:245,1
DA:246,1
DA:247,1
DA:248,1
DA:249,1
DA:250,1
DA:252,1
DA:253,1
DA:254,1
DA:257,1
DA:258,1
DA:259,1
DA:260,1
DA:261,1
DA:262,1
DA:264,1
DA:265,1
DA:269,0
DA:270,0
DA:271,0
DA:272,0
DA:274,0
DA:275,0
DA:276,0
DA:279,3
DA:280,3
DA:281,3
DA:282,3
DA:283,3
DA:284,3
DA:285,3
BRF:0
BRH:0
LF:168
LH:121
end_of_record
SF:/Users/thanos/work/flyby/crates/flyby/src/runtime/scheduler.rs
FN:139,_RINvMs0_NtNtCsggT0ekrhFaK_5flyby7runtime9schedulerNtB6_19WorkerPoolScheduler11run_factoryppEBa_
FN:71,_RINvNtNtCsggT0ekrhFaK_5flyby7runtime9scheduler17run_single_threadpEB6_
FN:57,_RINvXs_NtNtCsggT0ekrhFaK_5flyby7runtime9schedulerNtB5_21SingleThreadSchedulerNtB5_9Scheduler3runpEB9_
FN:158,_RNCINvMs0_NtNtCsggT0ekrhFaK_5flyby7runtime9schedulerNtB8_19WorkerPoolScheduler11run_factoryppE0Bc_
FN:183,_RNCINvMs0_NtNtCsggT0ekrhFaK_5flyby7runtime9schedulerNtB8_19WorkerPoolScheduler11run_factoryppEs0_0Bc_
FN:173,_RNCINvMs0_NtNtCsggT0ekrhFaK_5flyby7runtime9schedulerNtB8_19WorkerPoolScheduler11run_factoryppEs_0Bc_
FN:159,_RNCNCINvMs0_NtNtCsggT0ekrhFaK_5flyby7runtime9schedulerNtBa_19WorkerPoolScheduler11run_factoryppE00Be_
FN:46,_RNvMNtNtCsggT0ekrhFaK_5flyby7runtime9schedulerNtB2_21SingleThreadScheduler13with_shutdown
FN:51,_RNvMNtNtCsggT0ekrhFaK_5flyby7runtime9schedulerNtB2_21SingleThreadScheduler15shutdown_handle
FN:38,_RNvMNtNtCsggT0ekrhFaK_5flyby7runtime9schedulerNtB2_21SingleThreadScheduler3new
FN:126,_RNvMs0_NtNtCsggT0ekrhFaK_5flyby7runtime9schedulerNtB5_19WorkerPoolScheduler15shutdown_handle
FN:131,_RNvMs0_NtNtCsggT0ekrhFaK_5flyby7runtime9schedulerNtB5_19WorkerPoolScheduler16request_shutdown
FN:117,_RNvMs0_NtNtCsggT0ekrhFaK_5flyby7runtime9schedulerNtB5_19WorkerPoolScheduler3new
FN:199,_RNvNtNtCsggT0ekrhFaK_5flyby7runtime9scheduler11record_step
FN:13,_RNvNtNtCsggT0ekrhFaK_5flyby7runtime9scheduler13shutdown_flag
FN:193,_RNvNtNtCsggT0ekrhFaK_5flyby7runtime9scheduler15build_scheduler
FN:61,_RNvXs_NtNtCsggT0ekrhFaK_5flyby7runtime9schedulerNtB4_21SingleThreadSchedulerNtB4_9Scheduler16request_shutdown
FN:65,_RNvXs_NtNtCsggT0ekrhFaK_5flyby7runtime9schedulerNtB4_21SingleThreadSchedulerNtB4_9Scheduler21is_shutdown_requested
FN:139,_RINvMs0_NtNtCseu8ThHmJ8jM_5flyby7runtime9schedulerNtB6_19WorkerPoolScheduler11run_factoryINtNtBa_8pipeline14SimplePipelineNtCsip1xAQdcTWT_7runtime4TickNtB1Y_9VecSourceNtB1Y_11TickDecoderINtB1s_20IdentityPreProcessorB1W_EINtB1s_14FixedPlacementB1W_EENCNvB1Y_s_19worker_pool_factory0EB1Y_
FN:71,_RINvNtNtCseu8ThHmJ8jM_5flyby7runtime9scheduler17run_single_threadINtNtB6_8pipeline14SimplePipelineNtCsip1xAQdcTWT_7runtime4TickNtB1A_9VecSourceNtB1A_11TickDecoderINtB14_20IdentityPreProcessorB1y_EINtB14_14FixedPlacementB1y_EEEB1A_
FN:71,_RINvNtNtCseu8ThHmJ8jM_5flyby7runtime9scheduler17run_single_threadINtNtB6_8pipeline14SimplePipelineNtCsip1xAQdcTWT_7runtime4TickNtB1A_9VecSourceNtB1A_11TickDecoderINtB14_20IdentityPreProcessorB1y_EINtB14_17CallbackPlacementB1y_NCNvB1A_s_34callback_and_schema_hash_placement0EEEB1A_
FN:71,_RINvNtNtCseu8ThHmJ8jM_5flyby7runtime9scheduler17run_single_threadINtNtB6_8pipeline14SimplePipelineNtCsip1xAQdcTWT_7runtime4TickNtB1A_9VecSourceNtB1A_11TickDecoderINtB14_20IdentityPreProcessorB1y_EINtB14_19RoundRobinPlacementB1y_EEEB1A_
FN:57,_RINvXs_NtNtCseu8ThHmJ8jM_5flyby7runtime9schedulerNtB5_21SingleThreadSchedulerNtB5_9Scheduler3runINtNtB9_8pipeline14SimplePipelineNtCsip1xAQdcTWT_7runtime4TickNtB25_9VecSourceNtB25_11TickDecoderINtB1z_20IdentityPreProcessorB23_EINtB1z_14FixedPlacementB23_EEEB25_
FN:158,_RNCINvMs0_NtNtCseu8ThHmJ8jM_5flyby7runtime9schedulerNtB8_19WorkerPoolScheduler11run_factoryINtNtBc_8pipeline14SimplePipelineNtCsip1xAQdcTWT_7runtime4TickNtB20_9VecSourceNtB20_11TickDecoderINtB1u_20IdentityPreProcessorB1Y_EINtB1u_14FixedPlacementB1Y_EENCNvB20_s_19worker_pool_factory0E0B20_
FN:183,_RNCINvMs0_NtNtCseu8ThHmJ8jM_5flyby7runtime9schedulerNtB8_19WorkerPoolScheduler11run_factoryINtNtBc_8pipeline14SimplePipelineNtCsip1xAQdcTWT_7runtime4TickNtB20_9VecSourceNtB20_11TickDecoderINtB1u_20IdentityPreProcessorB1Y_EINtB1u_14FixedPlacementB1Y_EENCNvB20_s_19worker_pool_factory0Es0_0B20_
FN:173,_RNCINvMs0_NtNtCseu8ThHmJ8jM_5flyby7runtime9schedulerNtB8_19WorkerPoolScheduler11run_factoryINtNtBc_8pipeline14SimplePipelineNtCsip1xAQdcTWT_7runtime4TickNtB20_9VecSourceNtB20_11TickDecoderINtB1u_20IdentityPreProcessorB1Y_EINtB1u_14FixedPlacementB1Y_EENCNvB20_s_19worker_pool_factory0Es_0B20_
FN:159,_RNCNCINvMs0_NtNtCseu8ThHmJ8jM_5flyby7runtime9schedulerNtBa_19WorkerPoolScheduler11run_factoryINtNtBe_8pipeline14SimplePipelineNtCsip1xAQdcTWT_7runtime4TickNtB22_9VecSourceNtB22_11TickDecoderINtB1w_20IdentityPreProcessorB20_EINtB1w_14FixedPlacementB20_EENCNvB22_s_19worker_pool_factory0E00B22_
FN:46,_RNvMNtNtCseu8ThHmJ8jM_5flyby7runtime9schedulerNtB2_21SingleThreadScheduler13with_shutdown
FN:51,_RNvMNtNtCseu8ThHmJ8jM_5flyby7runtime9schedulerNtB2_21SingleThreadScheduler15shutdown_handle
FN:38,_RNvMNtNtCseu8ThHmJ8jM_5flyby7runtime9schedulerNtB2_21SingleThreadScheduler3new
FN:126,_RNvMs0_NtNtCseu8ThHmJ8jM_5flyby7runtime9schedulerNtB5_19WorkerPoolScheduler15shutdown_handle
FN:131,_RNvMs0_NtNtCseu8ThHmJ8jM_5flyby7runtime9schedulerNtB5_19WorkerPoolScheduler16request_shutdown
FN:117,_RNvMs0_NtNtCseu8ThHmJ8jM_5flyby7runtime9schedulerNtB5_19WorkerPoolScheduler3new
FN:13,_RNvNtNtCseu8ThHmJ8jM_5flyby7runtime9scheduler13shutdown_flag
FN:193,_RNvNtNtCseu8ThHmJ8jM_5flyby7runtime9scheduler15build_scheduler
FN:61,_RNvXs_NtNtCseu8ThHmJ8jM_5flyby7runtime9schedulerNtB4_21SingleThreadSchedulerNtB4_9Scheduler16request_shutdown
FN:65,_RNvXs_NtNtCseu8ThHmJ8jM_5flyby7runtime9schedulerNtB4_21SingleThreadSchedulerNtB4_9Scheduler21is_shutdown_requested
FNDA:0,_RINvMs0_NtNtCsggT0ekrhFaK_5flyby7runtime9schedulerNtB6_19WorkerPoolScheduler11run_factoryppEBa_
FNDA:0,_RINvNtNtCsggT0ekrhFaK_5flyby7runtime9scheduler17run_single_threadpEB6_
FNDA:0,_RINvXs_NtNtCsggT0ekrhFaK_5flyby7runtime9schedulerNtB5_21SingleThreadSchedulerNtB5_9Scheduler3runpEB9_
FNDA:0,_RNCINvMs0_NtNtCsggT0ekrhFaK_5flyby7runtime9schedulerNtB8_19WorkerPoolScheduler11run_factoryppE0Bc_
FNDA:0,_RNCINvMs0_NtNtCsggT0ekrhFaK_5flyby7runtime9schedulerNtB8_19WorkerPoolScheduler11run_factoryppEs0_0Bc_
FNDA:0,_RNCINvMs0_NtNtCsggT0ekrhFaK_5flyby7runtime9schedulerNtB8_19WorkerPoolScheduler11run_factoryppEs_0Bc_
FNDA:0,_RNCNCINvMs0_NtNtCsggT0ekrhFaK_5flyby7runtime9schedulerNtBa_19WorkerPoolScheduler11run_factoryppE00Be_
FNDA:0,_RNvMNtNtCsggT0ekrhFaK_5flyby7runtime9schedulerNtB2_21SingleThreadScheduler13with_shutdown
FNDA:0,_RNvMNtNtCsggT0ekrhFaK_5flyby7runtime9schedulerNtB2_21SingleThreadScheduler15shutdown_handle
FNDA:0,_RNvMNtNtCsggT0ekrhFaK_5flyby7runtime9schedulerNtB2_21SingleThreadScheduler3new
FNDA:0,_RNvMs0_NtNtCsggT0ekrhFaK_5flyby7runtime9schedulerNtB5_19WorkerPoolScheduler15shutdown_handle
FNDA:0,_RNvMs0_NtNtCsggT0ekrhFaK_5flyby7runtime9schedulerNtB5_19WorkerPoolScheduler16request_shutdown
FNDA:0,_RNvMs0_NtNtCsggT0ekrhFaK_5flyby7runtime9schedulerNtB5_19WorkerPoolScheduler3new
FNDA:0,_RNvNtNtCsggT0ekrhFaK_5flyby7runtime9scheduler11record_step
FNDA:0,_RNvNtNtCsggT0ekrhFaK_5flyby7runtime9scheduler13shutdown_flag
FNDA:0,_RNvNtNtCsggT0ekrhFaK_5flyby7runtime9scheduler15build_scheduler
FNDA:0,_RNvXs_NtNtCsggT0ekrhFaK_5flyby7runtime9schedulerNtB4_21SingleThreadSchedulerNtB4_9Scheduler16request_shutdown
FNDA:0,_RNvXs_NtNtCsggT0ekrhFaK_5flyby7runtime9schedulerNtB4_21SingleThreadSchedulerNtB4_9Scheduler21is_shutdown_requested
FNDA:1,_RINvMs0_NtNtCseu8ThHmJ8jM_5flyby7runtime9schedulerNtB6_19WorkerPoolScheduler11run_factoryINtNtBa_8pipeline14SimplePipelineNtCsip1xAQdcTWT_7runtime4TickNtB1Y_9VecSourceNtB1Y_11TickDecoderINtB1s_20IdentityPreProcessorB1W_EINtB1s_14FixedPlacementB1W_EENCNvB1Y_s_19worker_pool_factory0EB1Y_
FNDA:4,_RINvNtNtCseu8ThHmJ8jM_5flyby7runtime9scheduler17run_single_threadINtNtB6_8pipeline14SimplePipelineNtCsip1xAQdcTWT_7runtime4TickNtB1A_9VecSourceNtB1A_11TickDecoderINtB14_20IdentityPreProcessorB1y_EINtB14_14FixedPlacementB1y_EEEB1A_
FNDA:1,_RINvNtNtCseu8ThHmJ8jM_5flyby7runtime9scheduler17run_single_threadINtNtB6_8pipeline14SimplePipelineNtCsip1xAQdcTWT_7runtime4TickNtB1A_9VecSourceNtB1A_11TickDecoderINtB14_20IdentityPreProcessorB1y_EINtB14_17CallbackPlacementB1y_NCNvB1A_s_34callback_and_schema_hash_placement0EEEB1A_
FNDA:1,_RINvNtNtCseu8ThHmJ8jM_5flyby7runtime9scheduler17run_single_threadINtNtB6_8pipeline14SimplePipelineNtCsip1xAQdcTWT_7runtime4TickNtB1A_9VecSourceNtB1A_11TickDecoderINtB14_20IdentityPreProcessorB1y_EINtB14_19RoundRobinPlacementB1y_EEEB1A_
FNDA:1,_RINvXs_NtNtCseu8ThHmJ8jM_5flyby7runtime9schedulerNtB5_21SingleThreadSchedulerNtB5_9Scheduler3runINtNtB9_8pipeline14SimplePipelineNtCsip1xAQdcTWT_7runtime4TickNtB25_9VecSourceNtB25_11TickDecoderINtB1z_20IdentityPreProcessorB23_EINtB1z_14FixedPlacementB23_EEEB25_
FNDA:2,_RNCINvMs0_NtNtCseu8ThHmJ8jM_5flyby7runtime9schedulerNtB8_19WorkerPoolScheduler11run_factoryINtNtBc_8pipeline14SimplePipelineNtCsip1xAQdcTWT_7runtime4TickNtB20_9VecSourceNtB20_11TickDecoderINtB1u_20IdentityPreProcessorB1Y_EINtB1u_14FixedPlacementB1Y_EENCNvB20_s_19worker_pool_factory0E0B20_
FNDA:0,_RNCINvMs0_NtNtCseu8ThHmJ8jM_5flyby7runtime9schedulerNtB8_19WorkerPoolScheduler11run_factoryINtNtBc_8pipeline14SimplePipelineNtCsip1xAQdcTWT_7runtime4TickNtB20_9VecSourceNtB20_11TickDecoderINtB1u_20IdentityPreProcessorB1Y_EINtB1u_14FixedPlacementB1Y_EENCNvB20_s_19worker_pool_factory0Es0_0B20_
FNDA:0,_RNCINvMs0_NtNtCseu8ThHmJ8jM_5flyby7runtime9schedulerNtB8_19WorkerPoolScheduler11run_factoryINtNtBc_8pipeline14SimplePipelineNtCsip1xAQdcTWT_7runtime4TickNtB20_9VecSourceNtB20_11TickDecoderINtB1u_20IdentityPreProcessorB1Y_EINtB1u_14FixedPlacementB1Y_EENCNvB20_s_19worker_pool_factory0Es_0B20_
FNDA:2,_RNCNCINvMs0_NtNtCseu8ThHmJ8jM_5flyby7runtime9schedulerNtBa_19WorkerPoolScheduler11run_factoryINtNtBe_8pipeline14SimplePipelineNtCsip1xAQdcTWT_7runtime4TickNtB22_9VecSourceNtB22_11TickDecoderINtB1w_20IdentityPreProcessorB20_EINtB1w_14FixedPlacementB20_EENCNvB22_s_19worker_pool_factory0E00B22_
FNDA:1,_RNvMNtNtCseu8ThHmJ8jM_5flyby7runtime9schedulerNtB2_21SingleThreadScheduler13with_shutdown
FNDA:0,_RNvMNtNtCseu8ThHmJ8jM_5flyby7runtime9schedulerNtB2_21SingleThreadScheduler15shutdown_handle
FNDA:1,_RNvMNtNtCseu8ThHmJ8jM_5flyby7runtime9schedulerNtB2_21SingleThreadScheduler3new
FNDA:0,_RNvMs0_NtNtCseu8ThHmJ8jM_5flyby7runtime9schedulerNtB5_19WorkerPoolScheduler15shutdown_handle
FNDA:0,_RNvMs0_NtNtCseu8ThHmJ8jM_5flyby7runtime9schedulerNtB5_19WorkerPoolScheduler16request_shutdown
FNDA:1,_RNvMs0_NtNtCseu8ThHmJ8jM_5flyby7runtime9schedulerNtB5_19WorkerPoolScheduler3new
FNDA:6,_RNvNtNtCseu8ThHmJ8jM_5flyby7runtime9scheduler13shutdown_flag
FNDA:0,_RNvNtNtCseu8ThHmJ8jM_5flyby7runtime9scheduler15build_scheduler
FNDA:0,_RNvXs_NtNtCseu8ThHmJ8jM_5flyby7runtime9schedulerNtB4_21SingleThreadSchedulerNtB4_9Scheduler16request_shutdown
FNDA:0,_RNvXs_NtNtCseu8ThHmJ8jM_5flyby7runtime9schedulerNtB4_21SingleThreadSchedulerNtB4_9Scheduler21is_shutdown_requested
FNF:18
FNH:9
DA:13,6
DA:14,6
DA:15,6
DA:38,1
DA:39,1
DA:40,1
DA:41,1
DA:42,1
DA:43,1
DA:46,1
DA:47,1
DA:48,1
DA:51,0
DA:52,0
DA:53,0
DA:57,1
DA:58,1
DA:59,1
DA:61,0
DA:62,0
DA:63,0
DA:65,0
DA:66,0
DA:67,0
DA:71,6
DA:72,6
DA:73,6
DA:74,6
DA:75,6
DA:76,6
DA:78,6
DA:81,21
DA:82,0
DA:83,21
DA:84,21
DA:85,6
DA:87,0
DA:88,0
DA:89,0
DA:92,0
DA:93,0
DA:94,0
DA:95,0
DA:96,0
DA:97,0
DA:99,15
DA:102,6
DA:103,6
DA:117,1
DA:118,1
DA:119,1
DA:120,1
DA:121,1
DA:122,1
DA:123,1
DA:126,0
DA:127,0
DA:128,0
DA:131,0
DA:132,0
DA:133,0
DA:139,1
DA:140,1
DA:141,1
DA:142,1
DA:144,1
DA:145,1
DA:146,1
DA:147,1
DA:148,1
DA:150,2
DA:151,2
DA:152,2
DA:153,2
DA:154,2
DA:155,2
DA:156,2
DA:157,2
DA:158,2
DA:159,2
DA:160,2
DA:161,2
DA:162,2
DA:163,2
DA:164,2
DA:166,2
DA:167,0
DA:168,0
DA:169,0
DA:170,0
DA:171,2
DA:172,2
DA:173,2
DA:177,2
DA:178,2
DA:179,2
DA:181,1
DA:182,1
DA:183,1
DA:184,1
DA:185,0
DA:186,1
DA:187,1
DA:188,1
DA:193,0
DA:194,0
DA:195,0
DA:199,0
DA:200,0
DA:201,0
DA:202,0
DA:203,0
DA:204,0
DA:205,0
DA:206,0
DA:207,0
DA:208,0
DA:209,0
DA:210,0
DA:211,0
BRF:0
BRH:0
LF:124
LH:76
end_of_record
SF:/Users/thanos/work/flyby/crates/flyby/src/runtime/telemetry.rs
FN:27,_RNvXNtNtCsggT0ekrhFaK_5flyby7runtime9telemetryNtB2_16RuntimeMetricKeyNtNtCscf8MsWp3cCb_10flyby_core7metrics9MetricKey4name
FN:66,_RNvNtNtCsggT0ekrhFaK_5flyby7runtime9telemetry14emit_lifecycle
FN:86,_RNvXs_NtNtCsggT0ekrhFaK_5flyby7runtime9telemetryNtB4_6StrKeyNtNtCscf8MsWp3cCb_10flyby_core7metrics9MetricKey4name
FN:66,_RNvNtNtCseu8ThHmJ8jM_5flyby7runtime9telemetry14emit_lifecycle
FN:27,_RNvXNtNtCseu8ThHmJ8jM_5flyby7runtime9telemetryNtB2_16RuntimeMetricKeyNtNtCscf8MsWp3cCb_10flyby_core7metrics9MetricKey4name
FN:86,_RNvXs_NtNtCseu8ThHmJ8jM_5flyby7runtime9telemetryNtB4_6StrKeyNtNtCscf8MsWp3cCb_10flyby_core7metrics9MetricKey4name
FNDA:0,_RNvXNtNtCsggT0ekrhFaK_5flyby7runtime9telemetryNtB2_16RuntimeMetricKeyNtNtCscf8MsWp3cCb_10flyby_core7metrics9MetricKey4name
FNDA:0,_RNvNtNtCsggT0ekrhFaK_5flyby7runtime9telemetry14emit_lifecycle
FNDA:0,_RNvXs_NtNtCsggT0ekrhFaK_5flyby7runtime9telemetryNtB4_6StrKeyNtNtCscf8MsWp3cCb_10flyby_core7metrics9MetricKey4name
FNDA:7,_RNvNtNtCseu8ThHmJ8jM_5flyby7runtime9telemetry14emit_lifecycle
FNDA:0,_RNvXNtNtCseu8ThHmJ8jM_5flyby7runtime9telemetryNtB2_16RuntimeMetricKeyNtNtCscf8MsWp3cCb_10flyby_core7metrics9MetricKey4name
FNDA:0,_RNvXs_NtNtCseu8ThHmJ8jM_5flyby7runtime9telemetryNtB4_6StrKeyNtNtCscf8MsWp3cCb_10flyby_core7metrics9MetricKey4name
FNF:3
FNH:1
DA:27,0
DA:28,0
DA:29,0
DA:30,0
DA:31,0
DA:32,0
DA:33,0
DA:34,0
DA:35,0
DA:36,0
DA:38,0
DA:66,7
DA:67,7
DA:68,0
DA:69,7
DA:70,7
DA:71,1
DA:72,1
DA:73,1
DA:74,1
DA:75,1
DA:76,1
DA:77,1
DA:78,0
DA:80,7
DA:81,7
DA:86,0
DA:87,0
DA:88,0
BRF:0
BRH:0
LF:29
LH:13
end_of_record
SF:/Users/thanos/work/flyby/simulator/src/clock.rs
FN:94,_RNvMNtCs6vtiqiiMncD_15flyby_simulator5clockNtB2_8SimClock10advance_ns
FN:101,_RNvMNtCs6vtiqiiMncD_15flyby_simulator5clockNtB2_8SimClock10is_virtual
FN:59,_RNvMNtCs6vtiqiiMncD_15flyby_simulator5clockNtB2_8SimClock3new
FN:75,_RNvMNtCs6vtiqiiMncD_15flyby_simulator5clockNtB2_8SimClock6now_ns
FN:85,_RNvMNtCs6vtiqiiMncD_15flyby_simulator5clockNtB2_8SimClock7advance
FN:107,_RNvXs_NtCs6vtiqiiMncD_15flyby_simulator5clockNtB4_8SimClockNtNtCsl8K0bEFm1U0_4core5clone5Clone5clone
FN:94,_RNvMNtCsgBpleClnEuB_15flyby_simulator5clockNtB2_8SimClock10advance_ns
FN:101,_RNvMNtCsgBpleClnEuB_15flyby_simulator5clockNtB2_8SimClock10is_virtual
FN:59,_RNvMNtCsgBpleClnEuB_15flyby_simulator5clockNtB2_8SimClock3new
FN:75,_RNvMNtCsgBpleClnEuB_15flyby_simulator5clockNtB2_8SimClock6now_ns
FN:85,_RNvMNtCsgBpleClnEuB_15flyby_simulator5clockNtB2_8SimClock7advance
FN:136,_RNvNtNtCsgBpleClnEuB_15flyby_simulator5clock5testss_24virtual_clock_advance_ns
FN:143,_RNvNtNtCsgBpleClnEuB_15flyby_simulator5clock5testss_24virtual_clock_is_virtual
FN:168,_RNvNtNtCsgBpleClnEuB_15flyby_simulator5clock5testss_28multiple_advances_accumulate
FN:149,_RNvNtNtCsgBpleClnEuB_15flyby_simulator5clock5testss_30real_time_clock_is_not_virtual
FN:155,_RNvNtNtCsgBpleClnEuB_15flyby_simulator5clock5testss_31real_time_clock_advance_is_noop
FN:129,_RNvNtNtCsgBpleClnEuB_15flyby_simulator5clock5testss_34virtual_clock_advances_by_duration
FN:121,_RNvNtNtCsgBpleClnEuB_15flyby_simulator5clock5testss_34virtual_clock_starts_at_given_time
FN:107,_RNvXs_NtCsgBpleClnEuB_15flyby_simulator5clockNtB4_8SimClockNtNtCsl8K0bEFm1U0_4core5clone5Clone5clone
FNDA:17072,_RNvMNtCs6vtiqiiMncD_15flyby_simulator5clockNtB2_8SimClock10advance_ns
FNDA:17072,_RNvMNtCs6vtiqiiMncD_15flyby_simulator5clockNtB2_8SimClock10is_virtual
FNDA:19,_RNvMNtCs6vtiqiiMncD_15flyby_simulator5clockNtB2_8SimClock3new
FNDA:51235,_RNvMNtCs6vtiqiiMncD_15flyby_simulator5clockNtB2_8SimClock6now_ns
FNDA:0,_RNvMNtCs6vtiqiiMncD_15flyby_simulator5clockNtB2_8SimClock7advance
FNDA:0,_RNvXs_NtCs6vtiqiiMncD_15flyby_simulator5clockNtB4_8SimClockNtNtCsl8K0bEFm1U0_4core5clone5Clone5clone
FNDA:2053,_RNvMNtCsgBpleClnEuB_15flyby_simulator5clockNtB2_8SimClock10advance_ns
FNDA:2044,_RNvMNtCsgBpleClnEuB_15flyby_simulator5clockNtB2_8SimClock10is_virtual
FNDA:21,_RNvMNtCsgBpleClnEuB_15flyby_simulator5clockNtB2_8SimClock3new
FNDA:6144,_RNvMNtCsgBpleClnEuB_15flyby_simulator5clockNtB2_8SimClock6now_ns
FNDA:2,_RNvMNtCsgBpleClnEuB_15flyby_simulator5clockNtB2_8SimClock7advance
FNDA:1,_RNvNtNtCsgBpleClnEuB_15flyby_simulator5clock5testss_24virtual_clock_advance_ns
FNDA:1,_RNvNtNtCsgBpleClnEuB_15flyby_simulator5clock5testss_24virtual_clock_is_virtual
FNDA:1,_RNvNtNtCsgBpleClnEuB_15flyby_simulator5clock5testss_28multiple_advances_accumulate
FNDA:1,_RNvNtNtCsgBpleClnEuB_15flyby_simulator5clock5testss_30real_time_clock_is_not_virtual
FNDA:1,_RNvNtNtCsgBpleClnEuB_15flyby_simulator5clock5testss_31real_time_clock_advance_is_noop
FNDA:1,_RNvNtNtCsgBpleClnEuB_15flyby_simulator5clock5testss_34virtual_clock_advances_by_duration
FNDA:1,_RNvNtNtCsgBpleClnEuB_15flyby_simulator5clock5testss_34virtual_clock_starts_at_given_time
FNDA:0,_RNvXs_NtCsgBpleClnEuB_15flyby_simulator5clockNtB4_8SimClockNtNtCsl8K0bEFm1U0_4core5clone5Clone5clone
FNF:13
FNH:12
DA:59,40
DA:60,40
DA:61,38
DA:62,2
DA:64,40
DA:65,40
DA:66,40
DA:67,40
DA:68,40
DA:69,40
DA:75,57379
DA:76,57379
DA:77,2
DA:78,57377
DA:80,57379
DA:85,2
DA:86,2
DA:87,1
DA:88,1
DA:89,2
DA:94,19125
DA:95,19125
DA:96,19125
DA:97,19125
DA:98,19125
DA:101,19116
DA:102,19116
DA:103,19116
DA:107,0
DA:108,0
DA:109,0
DA:110,0
DA:111,0
DA:112,0
DA:113,0
DA:121,1
DA:122,1
DA:123,1
DA:124,1
DA:125,1
DA:126,1
DA:129,1
DA:130,1
DA:131,1
DA:132,1
DA:133,1
DA:136,1
DA:137,1
DA:138,1
DA:139,1
DA:140,1
DA:143,1
DA:144,1
DA:145,1
DA:146,1
DA:149,1
DA:150,1
DA:151,1
DA:152,1
DA:155,1
DA:156,1
DA:157,1
DA:158,1
DA:159,1
DA:161,1
DA:162,1
DA:165,1
DA:168,1
DA:169,1
DA:170,10
DA:171,10
DA:172,10
DA:173,1
DA:174,1
BRF:0
BRH:0
LF:74
LH:67
end_of_record
SF:/Users/thanos/work/flyby/simulator/src/consumer.rs
FN:54,_RNvMNtCs6vtiqiiMncD_15flyby_simulator8consumerNtB2_15VirtualConsumer17set_max_per_drain
FN:22,_RNvMNtCs6vtiqiiMncD_15flyby_simulator8consumerNtB2_15VirtualConsumer3new
FN:42,_RNvMNtCs6vtiqiiMncD_15flyby_simulator8consumerNtB2_15VirtualConsumer4name
FN:32,_RNvMNtCs6vtiqiiMncD_15flyby_simulator8consumerNtB2_15VirtualConsumer4slow
FN:61,_RNvMNtCs6vtiqiiMncD_15flyby_simulator8consumerNtB2_15VirtualConsumer5drain
FN:47,_RNvMNtCs6vtiqiiMncD_15flyby_simulator8consumerNtB2_15VirtualConsumer5reads
FN:54,_RNvMNtCsgBpleClnEuB_15flyby_simulator8consumerNtB2_15VirtualConsumer17set_max_per_drain
FN:22,_RNvMNtCsgBpleClnEuB_15flyby_simulator8consumerNtB2_15VirtualConsumer3new
FN:42,_RNvMNtCsgBpleClnEuB_15flyby_simulator8consumerNtB2_15VirtualConsumer4name
FN:32,_RNvMNtCsgBpleClnEuB_15flyby_simulator8consumerNtB2_15VirtualConsumer4slow
FN:61,_RNvMNtCsgBpleClnEuB_15flyby_simulator8consumerNtB2_15VirtualConsumer5drain
FN:47,_RNvMNtCsgBpleClnEuB_15flyby_simulator8consumerNtB2_15VirtualConsumer5reads
FN:80,_RNvNtNtCsgBpleClnEuB_15flyby_simulator8consumer5testss_20drains_all_available
FN:92,_RNvNtNtCsgBpleClnEuB_15flyby_simulator8consumer5testss_29slow_consumer_respects_budget
FNDA:2,_RNvMNtCs6vtiqiiMncD_15flyby_simulator8consumerNtB2_15VirtualConsumer17set_max_per_drain
FNDA:5,_RNvMNtCs6vtiqiiMncD_15flyby_simulator8consumerNtB2_15VirtualConsumer3new
FNDA:2,_RNvMNtCs6vtiqiiMncD_15flyby_simulator8consumerNtB2_15VirtualConsumer4name
FNDA:0,_RNvMNtCs6vtiqiiMncD_15flyby_simulator8consumerNtB2_15VirtualConsumer4slow
FNDA:4015,_RNvMNtCs6vtiqiiMncD_15flyby_simulator8consumerNtB2_15VirtualConsumer5drain
FNDA:237255,_RNvMNtCs6vtiqiiMncD_15flyby_simulator8consumerNtB2_15VirtualConsumer5reads
FNDA:0,_RNvMNtCsgBpleClnEuB_15flyby_simulator8consumerNtB2_15VirtualConsumer17set_max_per_drain
FNDA:5,_RNvMNtCsgBpleClnEuB_15flyby_simulator8consumerNtB2_15VirtualConsumer3new
FNDA:0,_RNvMNtCsgBpleClnEuB_15flyby_simulator8consumerNtB2_15VirtualConsumer4name
FNDA:1,_RNvMNtCsgBpleClnEuB_15flyby_simulator8consumerNtB2_15VirtualConsumer4slow
FNDA:8,_RNvMNtCsgBpleClnEuB_15flyby_simulator8consumerNtB2_15VirtualConsumer5drain
FNDA:108,_RNvMNtCsgBpleClnEuB_15flyby_simulator8consumerNtB2_15VirtualConsumer5reads
FNDA:1,_RNvNtNtCsgBpleClnEuB_15flyby_simulator8consumer5testss_20drains_all_available
FNDA:1,_RNvNtNtCsgBpleClnEuB_15flyby_simulator8consumer5testss_29slow_consumer_respects_budget
FNF:8
FNH:8
DA:22,10
DA:23,10
DA:24,10
DA:25,10
DA:26,10
DA:27,10
DA:28,10
DA:29,10
DA:32,1
DA:33,1
DA:34,1
DA:35,1
DA:36,1
DA:37,1
DA:38,1
DA:39,1
DA:42,2
DA:43,2
DA:44,2
DA:47,237363
DA:48,237363
DA:49,237363
DA:54,2
DA:55,2
DA:56,2
DA:61,4023
DA:62,4023
DA:63,4023
DA:64,241390
DA:65,239978
DA:66,2611
DA:67,237367
DA:68,237367
DA:69,237367
DA:71,4023
DA:72,4023
DA:80,1
DA:81,1
DA:82,5
DA:83,5
DA:84,5
DA:85,1
DA:86,1
DA:87,1
DA:88,1
DA:89,1
DA:92,1
DA:93,1
DA:94,5
DA:95,5
DA:96,5
DA:97,1
DA:98,1
DA:99,1
DA:100,1
BRF:0
BRH:0
LF:55
LH:55
end_of_record
SF:/Users/thanos/work/flyby/simulator/src/dsl/compile.rs
FN:112,_RNvMNtNtCs6vtiqiiMncD_15flyby_simulator3dsl7compileNtB2_11CompiledRun15build_scheduler
FN:177,_RNvNtNtCs6vtiqiiMncD_15flyby_simulator3dsl7compile11compile_doc
FN:316,_RNvNtNtCs6vtiqiiMncD_15flyby_simulator3dsl7compile11compile_nic
FN:330,_RNvNtNtCs6vtiqiiMncD_15flyby_simulator3dsl7compile12compile_pcap
FN:578,_RNvNtNtCs6vtiqiiMncD_15flyby_simulator3dsl7compile12resolve_path
FN:537,_RNvNtNtCs6vtiqiiMncD_15flyby_simulator3dsl7compile13compile_fault
FN:344,_RNvNtNtCs6vtiqiiMncD_15flyby_simulator3dsl7compile14compile_fabric
FN:550,_RNvNtNtCs6vtiqiiMncD_15flyby_simulator3dsl7compile14compile_replay
FN:486,_RNvNtNtCs6vtiqiiMncD_15flyby_simulator3dsl7compile15compile_payload
FN:451,_RNvNtNtCs6vtiqiiMncD_15flyby_simulator3dsl7compile15compile_traffic
FN:362,_RNvNtNtCs6vtiqiiMncD_15flyby_simulator3dsl7compile16compile_consumer
FN:566,_RNvNtNtCs6vtiqiiMncD_15flyby_simulator3dsl7compile19parse_max_per_drain
FN:370,_RNvNtNtCs6vtiqiiMncD_15flyby_simulator3dsl7compile22compile_timeline_entry
FN:428,_RNvNtNtCs6vtiqiiMncD_15flyby_simulator3dsl7compile22merge_traffic_override
FN:117,_RINvMNtNtCs6vtiqiiMncD_15flyby_simulator3dsl7compileNtB3_11CompiledRun27build_scheduler_with_eventsNtNtB7_6events12VecEventSinkEB7_
FN:117,_RINvMNtNtCs6vtiqiiMncD_15flyby_simulator3dsl7compileNtB3_11CompiledRun27build_scheduler_with_eventsNtNtB7_6events13NullEventSinkEB7_
FN:25,_RINvNtNtCs6vtiqiiMncD_15flyby_simulator3dsl7compile9leak_nameNtNtCs1OjIl8oxbrv_5alloc6string6StringEB6_
FN:159,_RNCINvMNtNtCs6vtiqiiMncD_15flyby_simulator3dsl7compileNtB5_11CompiledRun27build_scheduler_with_eventsNtNtB9_6events12VecEventSinkE0B9_
FN:159,_RNCINvMNtNtCs6vtiqiiMncD_15flyby_simulator3dsl7compileNtB5_11CompiledRun27build_scheduler_with_eventsNtNtB9_6events13NullEventSinkE0B9_
FN:347,_RNCNCNvNtNtCs6vtiqiiMncD_15flyby_simulator3dsl7compile14compile_fabric00B9_
FN:232,_RNCNvNtNtCs6vtiqiiMncD_15flyby_simulator3dsl7compile11compile_doc0B7_
FN:247,_RNCNvNtNtCs6vtiqiiMncD_15flyby_simulator3dsl7compile11compile_docs0_0B7_
FN:282,_RNCNvNtNtCs6vtiqiiMncD_15flyby_simulator3dsl7compile11compile_docs1_0B7_
FN:238,_RNCNvNtNtCs6vtiqiiMncD_15flyby_simulator3dsl7compile11compile_docs_0B7_
FN:345,_RNCNvNtNtCs6vtiqiiMncD_15flyby_simulator3dsl7compile14compile_fabric0B7_
FN:377,_RNCNvNtNtCs6vtiqiiMncD_15flyby_simulator3dsl7compile22compile_timeline_entry0B7_
FN:381,_RNCNvNtNtCs6vtiqiiMncD_15flyby_simulator3dsl7compile22compile_timeline_entrys0_0B7_
FN:394,_RNCNvNtNtCs6vtiqiiMncD_15flyby_simulator3dsl7compile22compile_timeline_entrys1_0B7_
FN:414,_RNCNvNtNtCs6vtiqiiMncD_15flyby_simulator3dsl7compile22compile_timeline_entrys2_0B7_
FN:380,_RNCNvNtNtCs6vtiqiiMncD_15flyby_simulator3dsl7compile22compile_timeline_entrys_0B7_
FN:117,_RINvMNtNtCsgBpleClnEuB_15flyby_simulator3dsl7compileNtB3_11CompiledRun27build_scheduler_with_eventsNtNtB7_6events12VecEventSinkEB7_
FN:25,_RINvNtNtCsgBpleClnEuB_15flyby_simulator3dsl7compile9leak_nameNtNtCs1OjIl8oxbrv_5alloc6string6StringEB6_
FN:159,_RNCINvMNtNtCsgBpleClnEuB_15flyby_simulator3dsl7compileNtB5_11CompiledRun27build_scheduler_with_eventsNtNtB9_6events12VecEventSinkE0B9_
FN:347,_RNCNCNvNtNtCsgBpleClnEuB_15flyby_simulator3dsl7compile14compile_fabric00B9_
FN:232,_RNCNvNtNtCsgBpleClnEuB_15flyby_simulator3dsl7compile11compile_doc0B7_
FN:247,_RNCNvNtNtCsgBpleClnEuB_15flyby_simulator3dsl7compile11compile_docs0_0B7_
FN:282,_RNCNvNtNtCsgBpleClnEuB_15flyby_simulator3dsl7compile11compile_docs1_0B7_
FN:238,_RNCNvNtNtCsgBpleClnEuB_15flyby_simulator3dsl7compile11compile_docs_0B7_
FN:345,_RNCNvNtNtCsgBpleClnEuB_15flyby_simulator3dsl7compile14compile_fabric0B7_
FN:377,_RNCNvNtNtCsgBpleClnEuB_15flyby_simulator3dsl7compile22compile_timeline_entry0B7_
FN:381,_RNCNvNtNtCsgBpleClnEuB_15flyby_simulator3dsl7compile22compile_timeline_entrys0_0B7_
FN:394,_RNCNvNtNtCsgBpleClnEuB_15flyby_simulator3dsl7compile22compile_timeline_entrys1_0B7_
FN:414,_RNCNvNtNtCsgBpleClnEuB_15flyby_simulator3dsl7compile22compile_timeline_entrys2_0B7_
FN:380,_RNCNvNtNtCsgBpleClnEuB_15flyby_simulator3dsl7compile22compile_timeline_entrys_0B7_
FN:112,_RNvMNtNtCsgBpleClnEuB_15flyby_simulator3dsl7compileNtB2_11CompiledRun15build_scheduler
FN:177,_RNvNtNtCsgBpleClnEuB_15flyby_simulator3dsl7compile11compile_doc
FN:316,_RNvNtNtCsgBpleClnEuB_15flyby_simulator3dsl7compile11compile_nic
FN:330,_RNvNtNtCsgBpleClnEuB_15flyby_simulator3dsl7compile12compile_pcap
FN:578,_RNvNtNtCsgBpleClnEuB_15flyby_simulator3dsl7compile12resolve_path
FN:537,_RNvNtNtCsgBpleClnEuB_15flyby_simulator3dsl7compile13compile_fault
FN:344,_RNvNtNtCsgBpleClnEuB_15flyby_simulator3dsl7compile14compile_fabric
FN:550,_RNvNtNtCsgBpleClnEuB_15flyby_simulator3dsl7compile14compile_replay
FN:486,_RNvNtNtCsgBpleClnEuB_15flyby_simulator3dsl7compile15compile_payload
FN:451,_RNvNtNtCsgBpleClnEuB_15flyby_simulator3dsl7compile15compile_traffic
FN:362,_RNvNtNtCsgBpleClnEuB_15flyby_simulator3dsl7compile16compile_consumer
FN:566,_RNvNtNtCsgBpleClnEuB_15flyby_simulator3dsl7compile19parse_max_per_drain
FN:370,_RNvNtNtCsgBpleClnEuB_15flyby_simulator3dsl7compile22compile_timeline_entry
FN:428,_RNvNtNtCsgBpleClnEuB_15flyby_simulator3dsl7compile22merge_traffic_override
FNDA:3,_RNvMNtNtCs6vtiqiiMncD_15flyby_simulator3dsl7compileNtB2_11CompiledRun15build_scheduler
FNDA:4,_RNvNtNtCs6vtiqiiMncD_15flyby_simulator3dsl7compile11compile_doc
FNDA:3,_RNvNtNtCs6vtiqiiMncD_15flyby_simulator3dsl7compile11compile_nic
FNDA:0,_RNvNtNtCs6vtiqiiMncD_15flyby_simulator3dsl7compile12compile_pcap
FNDA:0,_RNvNtNtCs6vtiqiiMncD_15flyby_simulator3dsl7compile12resolve_path
FNDA:3,_RNvNtNtCs6vtiqiiMncD_15flyby_simulator3dsl7compile13compile_fault
FNDA:3,_RNvNtNtCs6vtiqiiMncD_15flyby_simulator3dsl7compile14compile_fabric
FNDA:0,_RNvNtNtCs6vtiqiiMncD_15flyby_simulator3dsl7compile14compile_replay
FNDA:3,_RNvNtNtCs6vtiqiiMncD_15flyby_simulator3dsl7compile15compile_payload
FNDA:3,_RNvNtNtCs6vtiqiiMncD_15flyby_simulator3dsl7compile15compile_traffic
FNDA:3,_RNvNtNtCs6vtiqiiMncD_15flyby_simulator3dsl7compile16compile_consumer
FNDA:4,_RNvNtNtCs6vtiqiiMncD_15flyby_simulator3dsl7compile19parse_max_per_drain
FNDA:3,_RNvNtNtCs6vtiqiiMncD_15flyby_simulator3dsl7compile22compile_timeline_entry
FNDA:1,_RNvNtNtCs6vtiqiiMncD_15flyby_simulator3dsl7compile22merge_traffic_override
FNDA:0,_RINvMNtNtCs6vtiqiiMncD_15flyby_simulator3dsl7compileNtB3_11CompiledRun27build_scheduler_with_eventsNtNtB7_6events12VecEventSinkEB7_
FNDA:3,_RINvMNtNtCs6vtiqiiMncD_15flyby_simulator3dsl7compileNtB3_11CompiledRun27build_scheduler_with_eventsNtNtB7_6events13NullEventSinkEB7_
FNDA:9,_RINvNtNtCs6vtiqiiMncD_15flyby_simulator3dsl7compile9leak_nameNtNtCs1OjIl8oxbrv_5alloc6string6StringEB6_
FNDA:0,_RNCINvMNtNtCs6vtiqiiMncD_15flyby_simulator3dsl7compileNtB5_11CompiledRun27build_scheduler_with_eventsNtNtB9_6events12VecEventSinkE0B9_
FNDA:0,_RNCINvMNtNtCs6vtiqiiMncD_15flyby_simulator3dsl7compileNtB5_11CompiledRun27build_scheduler_with_eventsNtNtB9_6events13NullEventSinkE0B9_
FNDA:3,_RNCNCNvNtNtCs6vtiqiiMncD_15flyby_simulator3dsl7compile14compile_fabric00B9_
FNDA:3,_RNCNvNtNtCs6vtiqiiMncD_15flyby_simulator3dsl7compile11compile_doc0B7_
FNDA:0,_RNCNvNtNtCs6vtiqiiMncD_15flyby_simulator3dsl7compile11compile_docs0_0B7_
FNDA:24,_RNCNvNtNtCs6vtiqiiMncD_15flyby_simulator3dsl7compile11compile_docs1_0B7_
FNDA:0,_RNCNvNtNtCs6vtiqiiMncD_15flyby_simulator3dsl7compile11compile_docs_0B7_
FNDA:3,_RNCNvNtNtCs6vtiqiiMncD_15flyby_simulator3dsl7compile14compile_fabric0B7_
FNDA:0,_RNCNvNtNtCs6vtiqiiMncD_15flyby_simulator3dsl7compile22compile_timeline_entry0B7_
FNDA:1,_RNCNvNtNtCs6vtiqiiMncD_15flyby_simulator3dsl7compile22compile_timeline_entrys0_0B7_
FNDA:0,_RNCNvNtNtCs6vtiqiiMncD_15flyby_simulator3dsl7compile22compile_timeline_entrys1_0B7_
FNDA:0,_RNCNvNtNtCs6vtiqiiMncD_15flyby_simulator3dsl7compile22compile_timeline_entrys2_0B7_
FNDA:1,_RNCNvNtNtCs6vtiqiiMncD_15flyby_simulator3dsl7compile22compile_timeline_entrys_0B7_
FNDA:0,_RINvMNtNtCsgBpleClnEuB_15flyby_simulator3dsl7compileNtB3_11CompiledRun27build_scheduler_with_eventsNtNtB7_6events12VecEventSinkEB7_
FNDA:0,_RINvNtNtCsgBpleClnEuB_15flyby_simulator3dsl7compile9leak_nameNtNtCs1OjIl8oxbrv_5alloc6string6StringEB6_
FNDA:0,_RNCINvMNtNtCsgBpleClnEuB_15flyby_simulator3dsl7compileNtB5_11CompiledRun27build_scheduler_with_eventsNtNtB9_6events12VecEventSinkE0B9_
FNDA:0,_RNCNCNvNtNtCsgBpleClnEuB_15flyby_simulator3dsl7compile14compile_fabric00B9_
FNDA:0,_RNCNvNtNtCsgBpleClnEuB_15flyby_simulator3dsl7compile11compile_doc0B7_
FNDA:0,_RNCNvNtNtCsgBpleClnEuB_15flyby_simulator3dsl7compile11compile_docs0_0B7_
FNDA:0,_RNCNvNtNtCsgBpleClnEuB_15flyby_simulator3dsl7compile11compile_docs1_0B7_
FNDA:0,_RNCNvNtNtCsgBpleClnEuB_15flyby_simulator3dsl7compile11compile_docs_0B7_
FNDA:0,_RNCNvNtNtCsgBpleClnEuB_15flyby_simulator3dsl7compile14compile_fabric0B7_
FNDA:0,_RNCNvNtNtCsgBpleClnEuB_15flyby_simulator3dsl7compile22compile_timeline_entry0B7_
FNDA:0,_RNCNvNtNtCsgBpleClnEuB_15flyby_simulator3dsl7compile22compile_timeline_entrys0_0B7_
FNDA:0,_RNCNvNtNtCsgBpleClnEuB_15flyby_simulator3dsl7compile22compile_timeline_entrys1_0B7_
FNDA:0,_RNCNvNtNtCsgBpleClnEuB_15flyby_simulator3dsl7compile22compile_timeline_entrys2_0B7_
FNDA:0,_RNCNvNtNtCsgBpleClnEuB_15flyby_simulator3dsl7compile22compile_timeline_entrys_0B7_
FNDA:0,_RNvMNtNtCsgBpleClnEuB_15flyby_simulator3dsl7compileNtB2_11CompiledRun15build_scheduler
FNDA:0,_RNvNtNtCsgBpleClnEuB_15flyby_simulator3dsl7compile11compile_doc
FNDA:0,_RNvNtNtCsgBpleClnEuB_15flyby_simulator3dsl7compile11compile_nic
FNDA:0,_RNvNtNtCsgBpleClnEuB_15flyby_simulator3dsl7compile12compile_pcap
FNDA:0,_RNvNtNtCsgBpleClnEuB_15flyby_simulator3dsl7compile12resolve_path
FNDA:0,_RNvNtNtCsgBpleClnEuB_15flyby_simulator3dsl7compile13compile_fault
FNDA:0,_RNvNtNtCsgBpleClnEuB_15flyby_simulator3dsl7compile14compile_fabric
FNDA:0,_RNvNtNtCsgBpleClnEuB_15flyby_simulator3dsl7compile14compile_replay
FNDA:0,_RNvNtNtCsgBpleClnEuB_15flyby_simulator3dsl7compile15compile_payload
FNDA:0,_RNvNtNtCsgBpleClnEuB_15flyby_simulator3dsl7compile15compile_traffic
FNDA:0,_RNvNtNtCsgBpleClnEuB_15flyby_simulator3dsl7compile16compile_consumer
FNDA:0,_RNvNtNtCsgBpleClnEuB_15flyby_simulator3dsl7compile19parse_max_per_drain
FNDA:0,_RNvNtNtCsgBpleClnEuB_15flyby_simulator3dsl7compile22compile_timeline_entry
FNDA:0,_RNvNtNtCsgBpleClnEuB_15flyby_simulator3dsl7compile22merge_traffic_override
FNF:28
FNH:19
DA:25,9
DA:26,9
DA:27,9
DA:112,3
DA:113,3
DA:114,3
DA:117,3
DA:118,3
DA:119,3
DA:120,3
DA:121,3
DA:122,0
DA:123,0
DA:124,0
DA:125,3
DA:127,3
DA:128,3
DA:129,3
DA:131,3
DA:132,3
DA:133,3
DA:134,3
DA:135,3
DA:136,3
DA:137,3
DA:139,3
DA:140,3
DA:141,3
DA:142,3
DA:143,3
DA:144,3
DA:145,3
DA:146,3
DA:147,3
DA:148,3
DA:150,3
DA:151,0
DA:152,0
DA:153,0
DA:154,0
DA:155,0
DA:156,0
DA:157,0
DA:158,0
DA:159,0
DA:160,0
DA:163,3
DA:164,3
DA:165,3
DA:166,3
DA:167,3
DA:168,0
DA:169,0
DA:172,3
DA:173,3
DA:177,4
DA:178,4
DA:179,1
DA:180,1
DA:181,1
DA:182,3
DA:185,3
DA:186,3
DA:187,1
DA:188,2
DA:190,3
DA:191,3
DA:192,3
DA:193,0
DA:194,3
DA:196,3
DA:197,3
DA:198,0
DA:199,0
DA:200,0
DA:201,0
DA:202,0
DA:206,3
DA:207,3
DA:208,3
DA:209,0
DA:210,3
DA:211,3
DA:212,0
DA:213,0
DA:214,0
DA:215,0
DA:216,0
DA:217,0
DA:218,0
DA:219,3
DA:221,3
DA:222,3
DA:223,0
DA:225,3
DA:227,3
DA:229,3
DA:230,3
DA:231,3
DA:232,3
DA:233,3
DA:235,3
DA:236,3
DA:237,3
DA:238,3
DA:239,3
DA:241,3
DA:242,3
DA:243,0
DA:245,0
DA:246,0
DA:247,0
DA:248,0
DA:249,0
DA:250,0
DA:251,0
DA:252,0
DA:253,0
DA:254,0
DA:255,0
DA:257,0
DA:260,3
DA:262,0
DA:263,0
DA:264,0
DA:265,0
DA:266,0
DA:268,0
DA:271,3
DA:272,3
DA:273,3
DA:274,3
DA:277,3
DA:278,3
DA:279,3
DA:281,3
DA:282,24
DA:285,3
DA:286,3
DA:288,0
DA:291,3
DA:292,3
DA:293,3
DA:294,3
DA:295,3
DA:296,3
DA:297,3
DA:298,3
DA:299,3
DA:301,3
DA:302,3
DA:303,3
DA:304,3
DA:305,3
DA:306,3
DA:307,3
DA:308,3
DA:309,3
DA:310,3
DA:311,3
DA:312,3
DA:313,3
DA:314,4
DA:316,3
DA:317,3
DA:318,3
DA:319,3
DA:320,3
DA:321,3
DA:322,3
DA:323,3
DA:324,3
DA:325,3
DA:326,3
DA:327,3
DA:328,3
DA:330,0
DA:331,0
DA:332,0
DA:333,0
DA:334,0
DA:335,0
DA:336,0
DA:337,0
DA:338,0
DA:339,0
DA:340,0
DA:341,0
DA:342,0
DA:344,3
DA:345,3
DA:346,3
DA:347,3
DA:348,3
DA:349,3
DA:350,3
DA:351,3
DA:352,3
DA:353,0
DA:354,3
DA:355,3
DA:356,3
DA:357,3
DA:358,3
DA:359,3
DA:360,3
DA:362,3
DA:363,3
DA:364,3
DA:365,3
DA:366,3
DA:367,3
DA:368,3
DA:370,3
DA:371,3
DA:372,3
DA:373,3
DA:374,1
DA:375,1
DA:376,1
DA:377,1
DA:378,1
DA:379,1
DA:380,1
DA:381,1
DA:382,1
DA:383,1
DA:384,1
DA:385,1
DA:386,1
DA:387,1
DA:388,1
DA:390,2
DA:391,1
DA:392,1
DA:393,1
DA:394,1
DA:395,1
DA:396,1
DA:397,1
DA:398,1
DA:399,1
DA:400,0
DA:401,1
DA:402,1
DA:403,0
DA:404,1
DA:405,1
DA:406,0
DA:407,1
DA:408,1
DA:410,1
DA:411,1
DA:412,1
DA:413,1
DA:414,1
DA:415,1
DA:416,1
DA:417,1
DA:418,1
DA:419,1
DA:420,1
DA:422,0
DA:423,0
DA:424,0
DA:426,3
DA:428,1
DA:429,1
DA:430,1
DA:431,1
DA:432,1
DA:433,1
DA:434,0
DA:435,0
DA:436,0
DA:438,0
DA:439,0
DA:440,0
DA:441,0
DA:442,0
DA:443,0
DA:444,0
DA:445,0
DA:448,1
DA:449,1
DA:451,3
DA:452,3
DA:453,3
DA:454,3
DA:455,3
DA:456,3
DA:457,3
DA:458,2
DA:459,2
DA:460,1
DA:461,1
DA:462,1
DA:464,0
DA:465,0
DA:466,0
DA:467,0
DA:468,0
DA:469,0
DA:470,0
DA:471,0
DA:472,0
DA:473,0
DA:477,3
DA:478,3
DA:479,3
DA:480,3
DA:481,3
DA:482,3
DA:483,3
DA:484,3
DA:486,3
DA:487,3
DA:488,3
DA:489,2
DA:490,2
DA:492,1
DA:493,0
DA:494,0
DA:495,0
DA:496,0
DA:497,0
DA:498,0
DA:499,0
DA:501,1
DA:502,0
DA:503,0
DA:504,0
DA:505,0
DA:506,0
DA:507,0
DA:508,0
DA:509,0
DA:510,0
DA:511,0
DA:513,1
DA:514,1
DA:515,1
DA:516,1
DA:517,1
DA:518,0
DA:519,0
DA:520,0
DA:521,0
DA:522,0
DA:525,1
DA:526,1
DA:528,0
DA:529,0
DA:530,0
DA:531,0
DA:532,0
DA:533,0
DA:535,3
DA:537,3
DA:538,3
DA:539,0
DA:540,3
DA:542,3
DA:543,3
DA:544,3
DA:545,3
DA:546,3
DA:547,3
DA:548,3
DA:550,0
DA:551,0
DA:552,0
DA:553,0
DA:554,0
DA:555,0
DA:556,0
DA:557,0
DA:558,0
DA:559,0
DA:560,0
DA:561,0
DA:562,0
DA:564,0
DA:566,4
DA:567,3
DA:568,0
DA:569,3
DA:570,1
DA:571,0
DA:572,0
DA:573,0
DA:574,0
DA:576,4
DA:578,0
DA:579,0
DA:580,0
DA:581,0
DA:583,0
DA:585,0
BRF:0
BRH:0
LF:411
LH:260
end_of_record
SF:/Users/thanos/work/flyby/simulator/src/dsl/doc.rs
FN:76,_RNvNtNtCs6vtiqiiMncD_15flyby_simulator3dsl3doc12default_mode
FN:70,_RNvNtNtCs6vtiqiiMncD_15flyby_simulator3dsl3doc12default_tick
FN:79,_RNvNtNtCs6vtiqiiMncD_15flyby_simulator3dsl3doc12default_true
FN:105,_RNvNtNtCs6vtiqiiMncD_15flyby_simulator3dsl3doc13default_batch
FN:73,_RNvNtNtCs6vtiqiiMncD_15flyby_simulator3dsl3doc13default_clock
FN:256,_RNvNtNtCs6vtiqiiMncD_15flyby_simulator3dsl3doc13default_frame
FN:237,_RNvNtNtCs6vtiqiiMncD_15flyby_simulator3dsl3doc13default_scale
FN:277,_RNvNtNtCs6vtiqiiMncD_15flyby_simulator3dsl3doc13default_slots
FN:393,_RNvNtNtCs6vtiqiiMncD_15flyby_simulator3dsl3doc14default_engine
FN:234,_RNvNtNtCs6vtiqiiMncD_15flyby_simulator3dsl3doc14default_replay
FN:138,_RNvNtNtCs6vtiqiiMncD_15flyby_simulator3dsl3doc15default_pattern
FN:67,_RNvNtNtCs6vtiqiiMncD_15flyby_simulator3dsl3doc16default_duration
FN:108,_RNvNtNtCs6vtiqiiMncD_15flyby_simulator3dsl3doc16default_udp_port
FN:274,_RNvNtNtCs6vtiqiiMncD_15flyby_simulator3dsl3doc17default_ring_name
FN:186,_RNvNtNtCs6vtiqiiMncD_15flyby_simulator3dsl3doc20default_payload_kind
FN:172,_RNvXNtNtCs6vtiqiiMncD_15flyby_simulator3dsl3docNtB2_10PayloadDocNtNtCsl8K0bEFm1U0_4core7default7Default7default
FN:371,_RNvXs_NtNtCs6vtiqiiMncD_15flyby_simulator3dsl3docNtB4_8TraceDocNtNtCsl8K0bEFm1U0_4core7default7Default7default
FN:76,_RNvNtNtCsgBpleClnEuB_15flyby_simulator3dsl3doc12default_mode
FN:70,_RNvNtNtCsgBpleClnEuB_15flyby_simulator3dsl3doc12default_tick
FN:79,_RNvNtNtCsgBpleClnEuB_15flyby_simulator3dsl3doc12default_true
FN:105,_RNvNtNtCsgBpleClnEuB_15flyby_simulator3dsl3doc13default_batch
FN:73,_RNvNtNtCsgBpleClnEuB_15flyby_simulator3dsl3doc13default_clock
FN:256,_RNvNtNtCsgBpleClnEuB_15flyby_simulator3dsl3doc13default_frame
FN:237,_RNvNtNtCsgBpleClnEuB_15flyby_simulator3dsl3doc13default_scale
FN:277,_RNvNtNtCsgBpleClnEuB_15flyby_simulator3dsl3doc13default_slots
FN:393,_RNvNtNtCsgBpleClnEuB_15flyby_simulator3dsl3doc14default_engine
FN:234,_RNvNtNtCsgBpleClnEuB_15flyby_simulator3dsl3doc14default_replay
FN:138,_RNvNtNtCsgBpleClnEuB_15flyby_simulator3dsl3doc15default_pattern
FN:67,_RNvNtNtCsgBpleClnEuB_15flyby_simulator3dsl3doc16default_duration
FN:108,_RNvNtNtCsgBpleClnEuB_15flyby_simulator3dsl3doc16default_udp_port
FN:274,_RNvNtNtCsgBpleClnEuB_15flyby_simulator3dsl3doc17default_ring_name
FN:186,_RNvNtNtCsgBpleClnEuB_15flyby_simulator3dsl3doc20default_payload_kind
FN:172,_RNvXNtNtCsgBpleClnEuB_15flyby_simulator3dsl3docNtB2_10PayloadDocNtNtCsl8K0bEFm1U0_4core7default7Default7default
FN:371,_RNvXs_NtNtCsgBpleClnEuB_15flyby_simulator3dsl3docNtB4_8TraceDocNtNtCsl8K0bEFm1U0_4core7default7Default7default
FNDA:1,_RNvNtNtCs6vtiqiiMncD_15flyby_simulator3dsl3doc12default_mode
FNDA:1,_RNvNtNtCs6vtiqiiMncD_15flyby_simulator3dsl3doc12default_tick
FNDA:0,_RNvNtNtCs6vtiqiiMncD_15flyby_simulator3dsl3doc12default_true
FNDA:1,_RNvNtNtCs6vtiqiiMncD_15flyby_simulator3dsl3doc13default_batch
FNDA:1,_RNvNtNtCs6vtiqiiMncD_15flyby_simulator3dsl3doc13default_clock
FNDA:0,_RNvNtNtCs6vtiqiiMncD_15flyby_simulator3dsl3doc13default_frame
FNDA:0,_RNvNtNtCs6vtiqiiMncD_15flyby_simulator3dsl3doc13default_scale
FNDA:0,_RNvNtNtCs6vtiqiiMncD_15flyby_simulator3dsl3doc13default_slots
FNDA:0,_RNvNtNtCs6vtiqiiMncD_15flyby_simulator3dsl3doc14default_engine
FNDA:0,_RNvNtNtCs6vtiqiiMncD_15flyby_simulator3dsl3doc14default_replay
FNDA:0,_RNvNtNtCs6vtiqiiMncD_15flyby_simulator3dsl3doc15default_pattern
FNDA:1,_RNvNtNtCs6vtiqiiMncD_15flyby_simulator3dsl3doc16default_duration
FNDA:3,_RNvNtNtCs6vtiqiiMncD_15flyby_simulator3dsl3doc16default_udp_port
FNDA:0,_RNvNtNtCs6vtiqiiMncD_15flyby_simulator3dsl3doc17default_ring_name
FNDA:1,_RNvNtNtCs6vtiqiiMncD_15flyby_simulator3dsl3doc20default_payload_kind
FNDA:1,_RNvXNtNtCs6vtiqiiMncD_15flyby_simulator3dsl3docNtB2_10PayloadDocNtNtCsl8K0bEFm1U0_4core7default7Default7default
FNDA:3,_RNvXs_NtNtCs6vtiqiiMncD_15flyby_simulator3dsl3docNtB4_8TraceDocNtNtCsl8K0bEFm1U0_4core7default7Default7default
FNDA:0,_RNvNtNtCsgBpleClnEuB_15flyby_simulator3dsl3doc12default_mode
FNDA:0,_RNvNtNtCsgBpleClnEuB_15flyby_simulator3dsl3doc12default_tick
FNDA:0,_RNvNtNtCsgBpleClnEuB_15flyby_simulator3dsl3doc12default_true
FNDA:0,_RNvNtNtCsgBpleClnEuB_15flyby_simulator3dsl3doc13default_batch
FNDA:0,_RNvNtNtCsgBpleClnEuB_15flyby_simulator3dsl3doc13default_clock
FNDA:0,_RNvNtNtCsgBpleClnEuB_15flyby_simulator3dsl3doc13default_frame
FNDA:0,_RNvNtNtCsgBpleClnEuB_15flyby_simulator3dsl3doc13default_scale
FNDA:0,_RNvNtNtCsgBpleClnEuB_15flyby_simulator3dsl3doc13default_slots
FNDA:0,_RNvNtNtCsgBpleClnEuB_15flyby_simulator3dsl3doc14default_engine
FNDA:0,_RNvNtNtCsgBpleClnEuB_15flyby_simulator3dsl3doc14default_replay
FNDA:0,_RNvNtNtCsgBpleClnEuB_15flyby_simulator3dsl3doc15default_pattern
FNDA:0,_RNvNtNtCsgBpleClnEuB_15flyby_simulator3dsl3doc16default_duration
FNDA:0,_RNvNtNtCsgBpleClnEuB_15flyby_simulator3dsl3doc16default_udp_port
FNDA:0,_RNvNtNtCsgBpleClnEuB_15flyby_simulator3dsl3doc17default_ring_name
FNDA:0,_RNvNtNtCsgBpleClnEuB_15flyby_simulator3dsl3doc20default_payload_kind
FNDA:0,_RNvXNtNtCsgBpleClnEuB_15flyby_simulator3dsl3docNtB2_10PayloadDocNtNtCsl8K0bEFm1U0_4core7default7Default7default
FNDA:0,_RNvXs_NtNtCsgBpleClnEuB_15flyby_simulator3dsl3docNtB4_8TraceDocNtNtCsl8K0bEFm1U0_4core7default7Default7default
FNF:17
FNH:9
DA:67,1
DA:68,1
DA:69,1
DA:70,1
DA:71,1
DA:72,1
DA:73,1
DA:74,1
DA:75,1
DA:76,1
DA:77,1
DA:78,1
DA:79,0
DA:80,0
DA:81,0
DA:105,1
DA:106,1
DA:107,1
DA:108,3
DA:109,3
DA:110,3
DA:138,0
DA:139,0
DA:140,0
DA:172,1
DA:173,1
DA:174,1
DA:175,1
DA:176,1
DA:177,1
DA:178,1
DA:179,1
DA:180,1
DA:181,1
DA:182,1
DA:183,1
DA:186,1
DA:187,1
DA:188,1
DA:234,0
DA:235,0
DA:236,0
DA:237,0
DA:238,0
DA:239,0
DA:256,0
DA:257,0
DA:258,0
DA:274,0
DA:275,0
DA:276,0
DA:277,0
DA:278,0
DA:279,0
DA:371,3
DA:372,3
DA:373,3
DA:374,3
DA:375,3
DA:376,3
DA:393,0
DA:394,0
DA:395,0
BRF:0
BRH:0
LF:63
LH:39
end_of_record
SF:/Users/thanos/work/flyby/simulator/src/dsl/duration.rs
FN:16,_RNCNvNtNtCs6vtiqiiMncD_15flyby_simulator3dsl8duration17parse_duration_ns0B7_
FN:31,_RNCNvNtNtCs6vtiqiiMncD_15flyby_simulator3dsl8duration17parse_duration_nss_0B7_
FN:40,_RNvNtNtCs6vtiqiiMncD_15flyby_simulator3dsl8duration14split_num_unit
FN:9,_RNvNtNtCs6vtiqiiMncD_15flyby_simulator3dsl8duration17parse_duration_ns
FN:40,_RNvNtNtCsgBpleClnEuB_15flyby_simulator3dsl8duration14split_num_unit
FN:9,_RNvNtNtCsgBpleClnEuB_15flyby_simulator3dsl8duration17parse_duration_ns
FN:16,_RNCNvNtNtCsgBpleClnEuB_15flyby_simulator3dsl8duration17parse_duration_ns0B7_
FN:31,_RNCNvNtNtCsgBpleClnEuB_15flyby_simulator3dsl8duration17parse_duration_nss_0B7_
FN:63,_RNvNtNtNtCsgBpleClnEuB_15flyby_simulator3dsl8duration5testss_19parses_common_units
FNDA:16,_RNCNvNtNtCs6vtiqiiMncD_15flyby_simulator3dsl8duration17parse_duration_ns0B7_
FNDA:0,_RNCNvNtNtCs6vtiqiiMncD_15flyby_simulator3dsl8duration17parse_duration_nss_0B7_
FNDA:10,_RNvNtNtCs6vtiqiiMncD_15flyby_simulator3dsl8duration14split_num_unit
FNDA:10,_RNvNtNtCs6vtiqiiMncD_15flyby_simulator3dsl8duration17parse_duration_ns
FNDA:5,_RNvNtNtCsgBpleClnEuB_15flyby_simulator3dsl8duration14split_num_unit
FNDA:5,_RNvNtNtCsgBpleClnEuB_15flyby_simulator3dsl8duration17parse_duration_ns
FNDA:11,_RNCNvNtNtCsgBpleClnEuB_15flyby_simulator3dsl8duration17parse_duration_ns0B7_
FNDA:0,_RNCNvNtNtCsgBpleClnEuB_15flyby_simulator3dsl8duration17parse_duration_nss_0B7_
FNDA:1,_RNvNtNtNtCsgBpleClnEuB_15flyby_simulator3dsl8duration5testss_19parses_common_units
FNF:5
FNH:4
DA:9,15
DA:10,15
DA:11,15
DA:12,0
DA:13,15
DA:15,15
DA:16,27
DA:17,15
DA:18,15
DA:19,14
DA:20,13
DA:21,4
DA:22,0
DA:23,0
DA:24,0
DA:25,0
DA:29,15
DA:30,15
DA:31,15
DA:32,15
DA:33,0
DA:34,0
DA:35,0
DA:36,15
DA:37,15
DA:38,15
DA:40,15
DA:41,15
DA:42,15
DA:43,15
DA:44,0
DA:45,15
DA:46,15
DA:47,42
DA:48,27
DA:49,27
DA:50,15
DA:51,0
DA:52,15
DA:53,15
DA:54,15
DA:55,15
DA:56,15
DA:63,1
DA:64,1
DA:65,1
DA:66,1
DA:67,1
DA:68,1
DA:69,1
BRF:0
BRH:0
LF:52
LH:41
end_of_record
SF:/Users/thanos/work/flyby/simulator/src/dsl/mod.rs
FN:59,_RINvNtCs6vtiqiiMncD_15flyby_simulator3dsl11compile_strReECsiTMFchfn6h2_3dsl
FN:46,_RINvNtCs6vtiqiiMncD_15flyby_simulator3dsl12compile_pathRNtNtCsg55jX0GwzBC_3std4path7PathBufECsiTMFchfn6h2_3dsl
FN:34,_RINvNtCs6vtiqiiMncD_15flyby_simulator3dsl9load_pathRNtNtCsg55jX0GwzBC_3std4path4PathECsiTMFchfn6h2_3dsl
FN:51,_RNCINvNtCs6vtiqiiMncD_15flyby_simulator3dsl12compile_pathRNtNtCsg55jX0GwzBC_3std4path7PathBufE0CsiTMFchfn6h2_3dsl
FN:36,_RNCINvNtCs6vtiqiiMncD_15flyby_simulator3dsl9load_pathRNtNtCsg55jX0GwzBC_3std4path4PathE0CsiTMFchfn6h2_3dsl
FN:65,_RNvNtCs6vtiqiiMncD_15flyby_simulator3dsl24looks_like_scenario_file
FN:29,_RNvNtCs6vtiqiiMncD_15flyby_simulator3dsl9parse_str
FN:30,_RNCNvNtCs6vtiqiiMncD_15flyby_simulator3dsl9parse_str0B5_
FN:59,_RINvNtCs6vtiqiiMncD_15flyby_simulator3dsl11compile_strpEB4_
FN:46,_RINvNtCs6vtiqiiMncD_15flyby_simulator3dsl12compile_pathpEB4_
FN:34,_RINvNtCs6vtiqiiMncD_15flyby_simulator3dsl9load_pathpEB4_
FN:51,_RNCINvNtCs6vtiqiiMncD_15flyby_simulator3dsl12compile_pathpE0B6_
FN:36,_RNCINvNtCs6vtiqiiMncD_15flyby_simulator3dsl9load_pathpE0B6_
FN:46,_RINvNtCs6vtiqiiMncD_15flyby_simulator3dsl12compile_pathRNtNtCs1OjIl8oxbrv_5alloc6string6StringECsgMOyHKgvxbf_9flyby_sim
FN:46,_RINvNtCs6vtiqiiMncD_15flyby_simulator3dsl12compile_pathReECsgMOyHKgvxbf_9flyby_sim
FN:34,_RINvNtCs6vtiqiiMncD_15flyby_simulator3dsl9load_pathRNtNtCsg55jX0GwzBC_3std4path4PathECsgMOyHKgvxbf_9flyby_sim
FN:51,_RNCINvNtCs6vtiqiiMncD_15flyby_simulator3dsl12compile_pathRNtNtCs1OjIl8oxbrv_5alloc6string6StringE0CsgMOyHKgvxbf_9flyby_sim
FN:51,_RNCINvNtCs6vtiqiiMncD_15flyby_simulator3dsl12compile_pathReE0CsgMOyHKgvxbf_9flyby_sim
FN:36,_RNCINvNtCs6vtiqiiMncD_15flyby_simulator3dsl9load_pathRNtNtCsg55jX0GwzBC_3std4path4PathE0CsgMOyHKgvxbf_9flyby_sim
FN:59,_RINvNtCsgBpleClnEuB_15flyby_simulator3dsl11compile_strpEB4_
FN:46,_RINvNtCsgBpleClnEuB_15flyby_simulator3dsl12compile_pathpEB4_
FN:34,_RINvNtCsgBpleClnEuB_15flyby_simulator3dsl9load_pathpEB4_
FN:51,_RNCINvNtCsgBpleClnEuB_15flyby_simulator3dsl12compile_pathpE0B6_
FN:36,_RNCINvNtCsgBpleClnEuB_15flyby_simulator3dsl9load_pathpE0B6_
FN:30,_RNCNvNtCsgBpleClnEuB_15flyby_simulator3dsl9parse_str0B5_
FN:65,_RNvNtCsgBpleClnEuB_15flyby_simulator3dsl24looks_like_scenario_file
FN:29,_RNvNtCsgBpleClnEuB_15flyby_simulator3dsl9parse_str
FNDA:1,_RINvNtCs6vtiqiiMncD_15flyby_simulator3dsl11compile_strReECsiTMFchfn6h2_3dsl
FNDA:3,_RINvNtCs6vtiqiiMncD_15flyby_simulator3dsl12compile_pathRNtNtCsg55jX0GwzBC_3std4path7PathBufECsiTMFchfn6h2_3dsl
FNDA:3,_RINvNtCs6vtiqiiMncD_15flyby_simulator3dsl9load_pathRNtNtCsg55jX0GwzBC_3std4path4PathECsiTMFchfn6h2_3dsl
FNDA:0,_RNCINvNtCs6vtiqiiMncD_15flyby_simulator3dsl12compile_pathRNtNtCsg55jX0GwzBC_3std4path7PathBufE0CsiTMFchfn6h2_3dsl
FNDA:0,_RNCINvNtCs6vtiqiiMncD_15flyby_simulator3dsl9load_pathRNtNtCsg55jX0GwzBC_3std4path4PathE0CsiTMFchfn6h2_3dsl
FNDA:3,_RNvNtCs6vtiqiiMncD_15flyby_simulator3dsl24looks_like_scenario_file
FNDA:4,_RNvNtCs6vtiqiiMncD_15flyby_simulator3dsl9parse_str
FNDA:0,_RNCNvNtCs6vtiqiiMncD_15flyby_simulator3dsl9parse_str0B5_
FNDA:0,_RINvNtCs6vtiqiiMncD_15flyby_simulator3dsl11compile_strpEB4_
FNDA:0,_RINvNtCs6vtiqiiMncD_15flyby_simulator3dsl12compile_pathpEB4_
FNDA:0,_RINvNtCs6vtiqiiMncD_15flyby_simulator3dsl9load_pathpEB4_
FNDA:0,_RNCINvNtCs6vtiqiiMncD_15flyby_simulator3dsl12compile_pathpE0B6_
FNDA:0,_RNCINvNtCs6vtiqiiMncD_15flyby_simulator3dsl9load_pathpE0B6_
FNDA:0,_RINvNtCs6vtiqiiMncD_15flyby_simulator3dsl12compile_pathRNtNtCs1OjIl8oxbrv_5alloc6string6StringECsgMOyHKgvxbf_9flyby_sim
FNDA:0,_RINvNtCs6vtiqiiMncD_15flyby_simulator3dsl12compile_pathReECsgMOyHKgvxbf_9flyby_sim
FNDA:0,_RINvNtCs6vtiqiiMncD_15flyby_simulator3dsl9load_pathRNtNtCsg55jX0GwzBC_3std4path4PathECsgMOyHKgvxbf_9flyby_sim
FNDA:0,_RNCINvNtCs6vtiqiiMncD_15flyby_simulator3dsl12compile_pathRNtNtCs1OjIl8oxbrv_5alloc6string6StringE0CsgMOyHKgvxbf_9flyby_sim
FNDA:0,_RNCINvNtCs6vtiqiiMncD_15flyby_simulator3dsl12compile_pathReE0CsgMOyHKgvxbf_9flyby_sim
FNDA:0,_RNCINvNtCs6vtiqiiMncD_15flyby_simulator3dsl9load_pathRNtNtCsg55jX0GwzBC_3std4path4PathE0CsgMOyHKgvxbf_9flyby_sim
FNDA:0,_RINvNtCsgBpleClnEuB_15flyby_simulator3dsl11compile_strpEB4_
FNDA:0,_RINvNtCsgBpleClnEuB_15flyby_simulator3dsl12compile_pathpEB4_
FNDA:0,_RINvNtCsgBpleClnEuB_15flyby_simulator3dsl9load_pathpEB4_
FNDA:0,_RNCINvNtCsgBpleClnEuB_15flyby_simulator3dsl12compile_pathpE0B6_
FNDA:0,_RNCINvNtCsgBpleClnEuB_15flyby_simulator3dsl9load_pathpE0B6_
FNDA:0,_RNCNvNtCsgBpleClnEuB_15flyby_simulator3dsl9parse_str0B5_
FNDA:0,_RNvNtCsgBpleClnEuB_15flyby_simulator3dsl24looks_like_scenario_file
FNDA:0,_RNvNtCsgBpleClnEuB_15flyby_simulator3dsl9parse_str
FNF:8
FNH:5
DA:29,4
DA:30,4
DA:31,4
DA:34,3
DA:35,3
DA:36,3
DA:37,0
DA:39,0
DA:41,0
DA:42,3
DA:43,3
DA:46,3
DA:47,3
DA:48,3
DA:49,3
DA:50,3
DA:51,3
DA:52,3
DA:53,3
DA:54,3
DA:59,1
DA:60,1
DA:61,1
DA:62,1
DA:65,3
DA:66,3
DA:67,3
DA:68,2
DA:69,1
DA:70,1
DA:71,3
BRF:0
BRH:0
LF:35
LH:28
end_of_record
SF:/Users/thanos/work/flyby/simulator/src/dsl/script.rs
FN:47,_RNvMNtNtCs6vtiqiiMncD_15flyby_simulator3dsl6scriptNtB2_10ScriptHost10require_at
FN:103,_RNvNtNtCs6vtiqiiMncD_15flyby_simulator3dsl6script11eval_script
FN:118,_RNvNtNtCs6vtiqiiMncD_15flyby_simulator3dsl6script12register_api
FN:72,_RNvNtNtCs6vtiqiiMncD_15flyby_simulator3dsl6script15eval_script_doc
FN:49,_RNCNvMNtNtCs6vtiqiiMncD_15flyby_simulator3dsl6scriptNtB4_10ScriptHost10require_at0B8_
FN:111,_RNCNvNtNtCs6vtiqiiMncD_15flyby_simulator3dsl6script11eval_script0B7_
FN:114,_RNCNvNtNtCs6vtiqiiMncD_15flyby_simulator3dsl6script11eval_scripts_0B7_
FN:125,_RNCNvNtNtCs6vtiqiiMncD_15flyby_simulator3dsl6script12register_apis0_0B7_
FN:126,_RNCNvNtNtCs6vtiqiiMncD_15flyby_simulator3dsl6script12register_apis1_0B7_
FN:128,_RNCNvNtNtCs6vtiqiiMncD_15flyby_simulator3dsl6script12register_apis2_0B7_
FN:129,_RNCNvNtNtCs6vtiqiiMncD_15flyby_simulator3dsl6script12register_apis3_0B7_
FN:130,_RNCNvNtNtCs6vtiqiiMncD_15flyby_simulator3dsl6script12register_apis4_0B7_
FN:134,_RNCNvNtNtCs6vtiqiiMncD_15flyby_simulator3dsl6script12register_apis5_0B7_
FN:142,_RNCNvNtNtCs6vtiqiiMncD_15flyby_simulator3dsl6script12register_apis6_0B7_
FN:150,_RNCNvNtNtCs6vtiqiiMncD_15flyby_simulator3dsl6script12register_apis7_0B7_
FN:156,_RNCNvNtNtCs6vtiqiiMncD_15flyby_simulator3dsl6script12register_apis8_0B7_
FN:173,_RNCNvNtNtCs6vtiqiiMncD_15flyby_simulator3dsl6script12register_apis9_0B7_
FN:124,_RNCNvNtNtCs6vtiqiiMncD_15flyby_simulator3dsl6script12register_apis_0B7_
FN:190,_RNCNvNtNtCs6vtiqiiMncD_15flyby_simulator3dsl6script12register_apisa_0B7_
FN:211,_RNCNvNtNtCs6vtiqiiMncD_15flyby_simulator3dsl6script12register_apisb_0B7_
FN:234,_RNCNvNtNtCs6vtiqiiMncD_15flyby_simulator3dsl6script12register_apisc_0B7_
FN:249,_RNCNvNtNtCs6vtiqiiMncD_15flyby_simulator3dsl6script12register_apisd_0B7_
FN:266,_RNCNvNtNtCs6vtiqiiMncD_15flyby_simulator3dsl6script12register_apise_0B7_
FN:279,_RNCNvNtNtCs6vtiqiiMncD_15flyby_simulator3dsl6script12register_apisf_0B7_
FN:296,_RNCNvNtNtCs6vtiqiiMncD_15flyby_simulator3dsl6script12register_apisg_0B7_
FN:88,_RNCNvNtNtCs6vtiqiiMncD_15flyby_simulator3dsl6script15eval_script_doc0B7_
FN:49,_RNCNvMNtNtCsgBpleClnEuB_15flyby_simulator3dsl6scriptNtB4_10ScriptHost10require_at0B8_
FN:111,_RNCNvNtNtCsgBpleClnEuB_15flyby_simulator3dsl6script11eval_script0B7_
FN:114,_RNCNvNtNtCsgBpleClnEuB_15flyby_simulator3dsl6script11eval_scripts_0B7_
FN:125,_RNCNvNtNtCsgBpleClnEuB_15flyby_simulator3dsl6script12register_apis0_0B7_
FN:126,_RNCNvNtNtCsgBpleClnEuB_15flyby_simulator3dsl6script12register_apis1_0B7_
FN:128,_RNCNvNtNtCsgBpleClnEuB_15flyby_simulator3dsl6script12register_apis2_0B7_
FN:129,_RNCNvNtNtCsgBpleClnEuB_15flyby_simulator3dsl6script12register_apis3_0B7_
FN:130,_RNCNvNtNtCsgBpleClnEuB_15flyby_simulator3dsl6script12register_apis4_0B7_
FN:134,_RNCNvNtNtCsgBpleClnEuB_15flyby_simulator3dsl6script12register_apis5_0B7_
FN:142,_RNCNvNtNtCsgBpleClnEuB_15flyby_simulator3dsl6script12register_apis6_0B7_
FN:150,_RNCNvNtNtCsgBpleClnEuB_15flyby_simulator3dsl6script12register_apis7_0B7_
FN:156,_RNCNvNtNtCsgBpleClnEuB_15flyby_simulator3dsl6script12register_apis8_0B7_
FN:173,_RNCNvNtNtCsgBpleClnEuB_15flyby_simulator3dsl6script12register_apis9_0B7_
FN:124,_RNCNvNtNtCsgBpleClnEuB_15flyby_simulator3dsl6script12register_apis_0B7_
FN:190,_RNCNvNtNtCsgBpleClnEuB_15flyby_simulator3dsl6script12register_apisa_0B7_
FN:211,_RNCNvNtNtCsgBpleClnEuB_15flyby_simulator3dsl6script12register_apisb_0B7_
FN:234,_RNCNvNtNtCsgBpleClnEuB_15flyby_simulator3dsl6script12register_apisc_0B7_
FN:249,_RNCNvNtNtCsgBpleClnEuB_15flyby_simulator3dsl6script12register_apisd_0B7_
FN:266,_RNCNvNtNtCsgBpleClnEuB_15flyby_simulator3dsl6script12register_apise_0B7_
FN:279,_RNCNvNtNtCsgBpleClnEuB_15flyby_simulator3dsl6script12register_apisf_0B7_
FN:296,_RNCNvNtNtCsgBpleClnEuB_15flyby_simulator3dsl6script12register_apisg_0B7_
FN:88,_RNCNvNtNtCsgBpleClnEuB_15flyby_simulator3dsl6script15eval_script_doc0B7_
FN:47,_RNvMNtNtCsgBpleClnEuB_15flyby_simulator3dsl6scriptNtB2_10ScriptHost10require_at
FN:103,_RNvNtNtCsgBpleClnEuB_15flyby_simulator3dsl6script11eval_script
FN:118,_RNvNtNtCsgBpleClnEuB_15flyby_simulator3dsl6script12register_api
FN:72,_RNvNtNtCsgBpleClnEuB_15flyby_simulator3dsl6script15eval_script_doc
FNDA:11,_RNvMNtNtCs6vtiqiiMncD_15flyby_simulator3dsl6scriptNtB2_10ScriptHost10require_at
FNDA:2,_RNvNtNtCs6vtiqiiMncD_15flyby_simulator3dsl6script11eval_script
FNDA:2,_RNvNtNtCs6vtiqiiMncD_15flyby_simulator3dsl6script12register_api
FNDA:1,_RNvNtNtCs6vtiqiiMncD_15flyby_simulator3dsl6script15eval_script_doc
FNDA:0,_RNCNvMNtNtCs6vtiqiiMncD_15flyby_simulator3dsl6scriptNtB4_10ScriptHost10require_at0B8_
FNDA:0,_RNCNvNtNtCs6vtiqiiMncD_15flyby_simulator3dsl6script11eval_script0B7_
FNDA:32,_RNCNvNtNtCs6vtiqiiMncD_15flyby_simulator3dsl6script11eval_scripts_0B7_
FNDA:14,_RNCNvNtNtCs6vtiqiiMncD_15flyby_simulator3dsl6script12register_apis0_0B7_
FNDA:0,_RNCNvNtNtCs6vtiqiiMncD_15flyby_simulator3dsl6script12register_apis1_0B7_
FNDA:0,_RNCNvNtNtCs6vtiqiiMncD_15flyby_simulator3dsl6script12register_apis2_0B7_
FNDA:0,_RNCNvNtNtCs6vtiqiiMncD_15flyby_simulator3dsl6script12register_apis3_0B7_
FNDA:0,_RNCNvNtNtCs6vtiqiiMncD_15flyby_simulator3dsl6script12register_apis4_0B7_
FNDA:11,_RNCNvNtNtCs6vtiqiiMncD_15flyby_simulator3dsl6script12register_apis5_0B7_
FNDA:10,_RNCNvNtNtCs6vtiqiiMncD_15flyby_simulator3dsl6script12register_apis6_0B7_
FNDA:1,_RNCNvNtNtCs6vtiqiiMncD_15flyby_simulator3dsl6script12register_apis7_0B7_
FNDA:10,_RNCNvNtNtCs6vtiqiiMncD_15flyby_simulator3dsl6script12register_apis8_0B7_
FNDA:0,_RNCNvNtNtCs6vtiqiiMncD_15flyby_simulator3dsl6script12register_apis9_0B7_
FNDA:0,_RNCNvNtNtCs6vtiqiiMncD_15flyby_simulator3dsl6script12register_apis_0B7_
FNDA:0,_RNCNvNtNtCs6vtiqiiMncD_15flyby_simulator3dsl6script12register_apisa_0B7_
FNDA:0,_RNCNvNtNtCs6vtiqiiMncD_15flyby_simulator3dsl6script12register_apisb_0B7_
FNDA:1,_RNCNvNtNtCs6vtiqiiMncD_15flyby_simulator3dsl6script12register_apisc_0B7_
FNDA:0,_RNCNvNtNtCs6vtiqiiMncD_15flyby_simulator3dsl6script12register_apisd_0B7_
FNDA:3,_RNCNvNtNtCs6vtiqiiMncD_15flyby_simulator3dsl6script12register_apise_0B7_
FNDA:0,_RNCNvNtNtCs6vtiqiiMncD_15flyby_simulator3dsl6script12register_apisf_0B7_
FNDA:0,_RNCNvNtNtCs6vtiqiiMncD_15flyby_simulator3dsl6script12register_apisg_0B7_
FNDA:0,_RNCNvNtNtCs6vtiqiiMncD_15flyby_simulator3dsl6script15eval_script_doc0B7_
FNDA:0,_RNCNvMNtNtCsgBpleClnEuB_15flyby_simulator3dsl6scriptNtB4_10ScriptHost10require_at0B8_
FNDA:0,_RNCNvNtNtCsgBpleClnEuB_15flyby_simulator3dsl6script11eval_script0B7_
FNDA:0,_RNCNvNtNtCsgBpleClnEuB_15flyby_simulator3dsl6script11eval_scripts_0B7_
FNDA:0,_RNCNvNtNtCsgBpleClnEuB_15flyby_simulator3dsl6script12register_apis0_0B7_
FNDA:0,_RNCNvNtNtCsgBpleClnEuB_15flyby_simulator3dsl6script12register_apis1_0B7_
FNDA:0,_RNCNvNtNtCsgBpleClnEuB_15flyby_simulator3dsl6script12register_apis2_0B7_
FNDA:0,_RNCNvNtNtCsgBpleClnEuB_15flyby_simulator3dsl6script12register_apis3_0B7_
FNDA:0,_RNCNvNtNtCsgBpleClnEuB_15flyby_simulator3dsl6script12register_apis4_0B7_
FNDA:0,_RNCNvNtNtCsgBpleClnEuB_15flyby_simulator3dsl6script12register_apis5_0B7_
FNDA:0,_RNCNvNtNtCsgBpleClnEuB_15flyby_simulator3dsl6script12register_apis6_0B7_
FNDA:0,_RNCNvNtNtCsgBpleClnEuB_15flyby_simulator3dsl6script12register_apis7_0B7_
FNDA:0,_RNCNvNtNtCsgBpleClnEuB_15flyby_simulator3dsl6script12register_apis8_0B7_
FNDA:0,_RNCNvNtNtCsgBpleClnEuB_15flyby_simulator3dsl6script12register_apis9_0B7_
FNDA:0,_RNCNvNtNtCsgBpleClnEuB_15flyby_simulator3dsl6script12register_apis_0B7_
FNDA:0,_RNCNvNtNtCsgBpleClnEuB_15flyby_simulator3dsl6script12register_apisa_0B7_
FNDA:0,_RNCNvNtNtCsgBpleClnEuB_15flyby_simulator3dsl6script12register_apisb_0B7_
FNDA:0,_RNCNvNtNtCsgBpleClnEuB_15flyby_simulator3dsl6script12register_apisc_0B7_
FNDA:0,_RNCNvNtNtCsgBpleClnEuB_15flyby_simulator3dsl6script12register_apisd_0B7_
FNDA:0,_RNCNvNtNtCsgBpleClnEuB_15flyby_simulator3dsl6script12register_apise_0B7_
FNDA:0,_RNCNvNtNtCsgBpleClnEuB_15flyby_simulator3dsl6script12register_apisf_0B7_
FNDA:0,_RNCNvNtNtCsgBpleClnEuB_15flyby_simulator3dsl6script12register_apisg_0B7_
FNDA:0,_RNCNvNtNtCsgBpleClnEuB_15flyby_simulator3dsl6script15eval_script_doc0B7_
FNDA:0,_RNvMNtNtCsgBpleClnEuB_15flyby_simulator3dsl6scriptNtB2_10ScriptHost10require_at
FNDA:0,_RNvNtNtCsgBpleClnEuB_15flyby_simulator3dsl6script11eval_script
FNDA:0,_RNvNtNtCsgBpleClnEuB_15flyby_simulator3dsl6script12register_api
FNDA:0,_RNvNtNtCsgBpleClnEuB_15flyby_simulator3dsl6script15eval_script_doc
FNF:26
FNH:12
DA:47,11
DA:48,11
DA:49,11
DA:50,11
DA:72,1
DA:73,1
DA:74,0
DA:75,0
DA:76,0
DA:77,0
DA:78,1
DA:80,1
DA:81,1
DA:82,0
DA:83,0
DA:84,0
DA:86,0
DA:88,0
DA:89,0
DA:90,0
DA:93,0
DA:94,0
DA:95,0
DA:99,1
DA:100,1
DA:103,2
DA:104,2
DA:105,2
DA:106,2
DA:108,2
DA:109,2
DA:110,2
DA:111,2
DA:113,2
DA:114,32
DA:115,2
DA:116,2
DA:118,2
DA:119,2
DA:120,2
DA:123,2
DA:124,2
DA:125,14
DA:126,2
DA:128,2
DA:129,2
DA:130,2
DA:133,2
DA:134,11
DA:135,11
DA:136,11
DA:140,2
DA:141,2
DA:142,10
DA:143,10
DA:144,10
DA:148,2
DA:149,2
DA:150,1
DA:151,1
DA:152,1
DA:156,10
DA:157,10
DA:158,10
DA:159,10
DA:160,10
DA:161,10
DA:162,10
DA:163,10
DA:164,10
DA:165,10
DA:166,10
DA:167,10
DA:168,10
DA:169,10
DA:170,10
DA:171,10
DA:173,2
DA:174,0
DA:175,0
DA:176,0
DA:177,0
DA:178,0
DA:179,0
DA:180,0
DA:181,0
DA:182,0
DA:183,0
DA:184,0
DA:185,0
DA:186,0
DA:187,0
DA:188,0
DA:190,2
DA:191,0
DA:192,0
DA:193,0
DA:194,0
DA:195,0
DA:196,0
DA:197,0
DA:198,0
DA:199,0
DA:200,0
DA:201,0
DA:202,0
DA:203,0
DA:204,0
DA:205,0
DA:206,0
DA:207,0
DA:209,2
DA:211,0
DA:212,0
DA:213,0
DA:214,0
DA:215,0
DA:216,0
DA:217,0
DA:218,0
DA:219,0
DA:220,0
DA:221,0
DA:222,0
DA:223,0
DA:224,0
DA:225,0
DA:226,0
DA:227,0
DA:228,0
DA:229,0
DA:230,0
DA:234,2
DA:235,1
DA:236,1
DA:237,1
DA:238,1
DA:239,1
DA:240,1
DA:241,1
DA:242,1
DA:243,1
DA:244,1
DA:245,1
DA:246,1
DA:247,1
DA:249,2
DA:250,0
DA:251,0
DA:252,0
DA:253,0
DA:254,0
DA:255,0
DA:256,0
DA:257,0
DA:258,0
DA:259,0
DA:260,0
DA:261,0
DA:265,2
DA:266,3
DA:267,3
DA:268,3
DA:269,3
DA:270,3
DA:271,3
DA:272,3
DA:273,3
DA:274,3
DA:275,3
DA:278,2
DA:279,2
DA:280,0
DA:281,0
DA:282,0
DA:283,0
DA:284,0
DA:285,0
DA:286,0
DA:287,0
DA:288,0
DA:289,0
DA:290,0
DA:293,2
DA:294,2
DA:296,0
DA:297,0
DA:298,0
DA:299,0
DA:300,0
DA:301,0
DA:302,0
DA:303,0
DA:306,2
BRF:0
BRH:0
LF:213
LH:103
end_of_record
SF:/Users/thanos/work/flyby/simulator/src/events.rs
FN:161,_RNvXNtCs6vtiqiiMncD_15flyby_simulator6eventsNtB2_13NullEventSinkNtB2_9EventSink4emit
FN:206,_RNvMs_NtCs6vtiqiiMncD_15flyby_simulator6eventsNtB4_12VecEventSink11events_from
FN:215,_RNvMs_NtCs6vtiqiiMncD_15flyby_simulator6eventsNtB4_12VecEventSink11truncate_to
FN:191,_RNvMs_NtCs6vtiqiiMncD_15flyby_simulator6eventsNtB4_12VecEventSink3len
FN:181,_RNvMs_NtCs6vtiqiiMncD_15flyby_simulator6eventsNtB4_12VecEventSink3new
FN:201,_RNvMs_NtCs6vtiqiiMncD_15flyby_simulator6eventsNtB4_12VecEventSink5clear
FN:186,_RNvMs_NtCs6vtiqiiMncD_15flyby_simulator6eventsNtB4_12VecEventSink6events
FN:196,_RNvMs_NtCs6vtiqiiMncD_15flyby_simulator6eventsNtB4_12VecEventSink8is_empty
FN:225,_RNvXs0_NtCs6vtiqiiMncD_15flyby_simulator6eventsNtB5_12VecEventSinkNtB5_9EventSink4emit
FN:206,_RNvMs_NtCsgBpleClnEuB_15flyby_simulator6eventsNtB4_12VecEventSink11events_from
FN:215,_RNvMs_NtCsgBpleClnEuB_15flyby_simulator6eventsNtB4_12VecEventSink11truncate_to
FN:191,_RNvMs_NtCsgBpleClnEuB_15flyby_simulator6eventsNtB4_12VecEventSink3len
FN:181,_RNvMs_NtCsgBpleClnEuB_15flyby_simulator6eventsNtB4_12VecEventSink3new
FN:186,_RNvMs_NtCsgBpleClnEuB_15flyby_simulator6eventsNtB4_12VecEventSink6events
FN:196,_RNvMs_NtCsgBpleClnEuB_15flyby_simulator6eventsNtB4_12VecEventSink8is_empty
FN:225,_RNvXs0_NtCsgBpleClnEuB_15flyby_simulator6eventsNtB5_12VecEventSinkNtB5_9EventSink4emit
FN:161,_RNvXNtCsgBpleClnEuB_15flyby_simulator6eventsNtB2_13NullEventSinkNtB2_9EventSink4emit
FN:247,_RNvNtNtCsgBpleClnEuB_15flyby_simulator6events5testss_24vec_sink_collects_events
FN:235,_RNvNtNtCsgBpleClnEuB_15flyby_simulator6events5testss_27null_sink_accepts_any_event
FN:269,_RNvNtNtCsgBpleClnEuB_15flyby_simulator6events5testss_27vec_sink_events_returns_all
FN:287,_RNvNtNtCsgBpleClnEuB_15flyby_simulator6events5testss_31vec_sink_is_clonable_and_shared
FN:201,_RNvMs_NtCsgBpleClnEuB_15flyby_simulator6eventsNtB4_12VecEventSink5clear
FNDA:977239,_RNvXNtCs6vtiqiiMncD_15flyby_simulator6eventsNtB2_13NullEventSinkNtB2_9EventSink4emit
FNDA:0,_RNvMs_NtCs6vtiqiiMncD_15flyby_simulator6eventsNtB4_12VecEventSink11events_from
FNDA:0,_RNvMs_NtCs6vtiqiiMncD_15flyby_simulator6eventsNtB4_12VecEventSink11truncate_to
FNDA:0,_RNvMs_NtCs6vtiqiiMncD_15flyby_simulator6eventsNtB4_12VecEventSink3len
FNDA:2,_RNvMs_NtCs6vtiqiiMncD_15flyby_simulator6eventsNtB4_12VecEventSink3new
FNDA:0,_RNvMs_NtCs6vtiqiiMncD_15flyby_simulator6eventsNtB4_12VecEventSink5clear
FNDA:2,_RNvMs_NtCs6vtiqiiMncD_15flyby_simulator6eventsNtB4_12VecEventSink6events
FNDA:0,_RNvMs_NtCs6vtiqiiMncD_15flyby_simulator6eventsNtB4_12VecEventSink8is_empty
FNDA:10,_RNvXs0_NtCs6vtiqiiMncD_15flyby_simulator6eventsNtB5_12VecEventSinkNtB5_9EventSink4emit
FNDA:4,_RNvMs_NtCsgBpleClnEuB_15flyby_simulator6eventsNtB4_12VecEventSink11events_from
FNDA:3,_RNvMs_NtCsgBpleClnEuB_15flyby_simulator6eventsNtB4_12VecEventSink11truncate_to
FNDA:8,_RNvMs_NtCsgBpleClnEuB_15flyby_simulator6eventsNtB4_12VecEventSink3len
FNDA:19,_RNvMs_NtCsgBpleClnEuB_15flyby_simulator6eventsNtB4_12VecEventSink3new
FNDA:5,_RNvMs_NtCsgBpleClnEuB_15flyby_simulator6eventsNtB4_12VecEventSink6events
FNDA:1,_RNvMs_NtCsgBpleClnEuB_15flyby_simulator6eventsNtB4_12VecEventSink8is_empty
FNDA:361,_RNvXs0_NtCsgBpleClnEuB_15flyby_simulator6eventsNtB5_12VecEventSinkNtB5_9EventSink4emit
FNDA:3167,_RNvXNtCsgBpleClnEuB_15flyby_simulator6eventsNtB2_13NullEventSinkNtB2_9EventSink4emit
FNDA:1,_RNvNtNtCsgBpleClnEuB_15flyby_simulator6events5testss_24vec_sink_collects_events
FNDA:1,_RNvNtNtCsgBpleClnEuB_15flyby_simulator6events5testss_27null_sink_accepts_any_event
FNDA:1,_RNvNtNtCsgBpleClnEuB_15flyby_simulator6events5testss_27vec_sink_events_returns_all
FNDA:1,_RNvNtNtCsgBpleClnEuB_15flyby_simulator6events5testss_31vec_sink_is_clonable_and_shared
FNDA:0,_RNvMs_NtCsgBpleClnEuB_15flyby_simulator6eventsNtB4_12VecEventSink5clear
FNF:13
FNH:12
DA:161,980406
DA:181,21
DA:182,21
DA:183,21
DA:186,7
DA:187,7
DA:188,7
DA:191,8
DA:192,8
DA:193,8
DA:196,1
DA:197,1
DA:198,1
DA:201,0
DA:202,0
DA:203,0
DA:206,4
DA:207,4
DA:208,4
DA:209,0
DA:210,4
DA:211,4
DA:212,4
DA:215,3
DA:216,3
DA:217,3
DA:218,0
DA:219,0
DA:220,3
DA:221,3
DA:225,371
DA:226,371
DA:227,371
DA:235,1
DA:236,1
DA:237,1
DA:238,1
DA:239,1
DA:240,1
DA:241,1
DA:242,1
DA:244,1
DA:247,1
DA:248,1
DA:249,1
DA:250,1
DA:251,1
DA:252,1
DA:253,1
DA:254,1
DA:255,1
DA:256,1
DA:257,1
DA:258,1
DA:259,1
DA:260,1
DA:261,1
DA:262,1
DA:263,1
DA:264,1
DA:265,1
DA:266,1
DA:269,1
DA:270,1
DA:271,5
DA:272,5
DA:273,5
DA:274,5
DA:275,5
DA:276,5
DA:277,5
DA:278,5
DA:279,5
DA:280,1
DA:281,1
DA:282,1
DA:283,1
DA:284,1
DA:287,1
DA:288,1
DA:289,1
DA:290,1
DA:291,1
DA:292,1
DA:293,1
DA:295,1
DA:296,1
BRF:0
BRH:0
LF:87
LH:81
end_of_record
SF:/Users/thanos/work/flyby/simulator/src/fault.rs
FN:132,_RNvMs0_NtCs6vtiqiiMncD_15flyby_simulator5faultNtB5_13FaultInjector10next_state
FN:127,_RNvMs0_NtCs6vtiqiiMncD_15flyby_simulator5faultNtB5_13FaultInjector11random_unit
FN:84,_RNvMs0_NtCs6vtiqiiMncD_15flyby_simulator5faultNtB5_13FaultInjector11should_drop
FN:104,_RNvMs0_NtCs6vtiqiiMncD_15flyby_simulator5faultNtB5_13FaultInjector12should_spike
FN:94,_RNvMs0_NtCs6vtiqiiMncD_15flyby_simulator5faultNtB5_13FaultInjector14should_corrupt
FN:118,_RNvMs0_NtCs6vtiqiiMncD_15flyby_simulator5faultNtB5_13FaultInjector15corrupt_payload
FN:77,_RNvMs0_NtCs6vtiqiiMncD_15flyby_simulator5faultNtB5_13FaultInjector3new
FN:52,_RNvMs_NtCs6vtiqiiMncD_15flyby_simulator5faultNtB4_9FaultSpec8is_clean
FN:40,_RNvXNtCs6vtiqiiMncD_15flyby_simulator5faultNtB2_9FaultSpecNtNtCsl8K0bEFm1U0_4core7default7Default7default
FN:132,_RNvMs0_NtCsgBpleClnEuB_15flyby_simulator5faultNtB5_13FaultInjector10next_state
FN:127,_RNvMs0_NtCsgBpleClnEuB_15flyby_simulator5faultNtB5_13FaultInjector11random_unit
FN:84,_RNvMs0_NtCsgBpleClnEuB_15flyby_simulator5faultNtB5_13FaultInjector11should_drop
FN:104,_RNvMs0_NtCsgBpleClnEuB_15flyby_simulator5faultNtB5_13FaultInjector12should_spike
FN:94,_RNvMs0_NtCsgBpleClnEuB_15flyby_simulator5faultNtB5_13FaultInjector14should_corrupt
FN:118,_RNvMs0_NtCsgBpleClnEuB_15flyby_simulator5faultNtB5_13FaultInjector15corrupt_payload
FN:77,_RNvMs0_NtCsgBpleClnEuB_15flyby_simulator5faultNtB5_13FaultInjector3new
FN:52,_RNvMs_NtCsgBpleClnEuB_15flyby_simulator5faultNtB4_9FaultSpec8is_clean
FN:40,_RNvXNtCsgBpleClnEuB_15flyby_simulator5faultNtB2_9FaultSpecNtNtCsl8K0bEFm1U0_4core7default7Default7default
FN:147,_RNvNtNtCsgBpleClnEuB_15flyby_simulator5fault5testss_21default_spec_is_clean
FN:152,_RNvNtNtCsgBpleClnEuB_15flyby_simulator5fault5testss_26zero_drop_rate_never_drops
FN:160,_RNvNtNtCsgBpleClnEuB_15flyby_simulator5fault5testss_27full_drop_rate_always_drops
FN:186,_RNvNtNtCsgBpleClnEuB_15flyby_simulator5fault5testss_28corrupt_payload_flips_a_byte
FN:250,_RNvNtNtCsgBpleClnEuB_15flyby_simulator5fault5testss_28zero_spike_rate_returns_zero
FN:239,_RNvNtNtCsgBpleClnEuB_15flyby_simulator5fault5testss_35latency_spike_returns_configured_ns
FN:201,_RNvNtNtCsgBpleClnEuB_15flyby_simulator5fault5testss_36determinism_same_seed_same_decisions
FN:172,_RNvNtNtCsgBpleClnEuB_15flyby_simulator5fault5testss_37partial_drop_rate_produces_some_drops
FN:222,_RNvNtNtCsgBpleClnEuB_15flyby_simulator5fault5testss_43different_seeds_produce_different_decisions
FN:195,_RNCNvNtNtCsgBpleClnEuB_15flyby_simulator5fault5testss_28corrupt_payload_flips_a_byte0B7_
FN:209,_RNCNvNtNtCsgBpleClnEuB_15flyby_simulator5fault5testss_36determinism_same_seed_same_decisions0B7_
FN:213,_RNCNvNtNtCsgBpleClnEuB_15flyby_simulator5fault5testss_36determinism_same_seed_same_decisionss_0B7_
FN:178,_RNCNvNtNtCsgBpleClnEuB_15flyby_simulator5fault5testss_37partial_drop_rate_produces_some_drops0B7_
FN:229,_RNCNvNtNtCsgBpleClnEuB_15flyby_simulator5fault5testss_43different_seeds_produce_different_decisions0B7_
FN:233,_RNCNvNtNtCsgBpleClnEuB_15flyby_simulator5fault5testss_43different_seeds_produce_different_decisionss_0B7_
FNDA:213341,_RNvMs0_NtCs6vtiqiiMncD_15flyby_simulator5faultNtB5_13FaultInjector10next_state
FNDA:213332,_RNvMs0_NtCs6vtiqiiMncD_15flyby_simulator5faultNtB5_13FaultInjector11random_unit
FNDA:467583,_RNvMs0_NtCs6vtiqiiMncD_15flyby_simulator5faultNtB5_13FaultInjector11should_drop
FNDA:454744,_RNvMs0_NtCs6vtiqiiMncD_15flyby_simulator5faultNtB5_13FaultInjector12should_spike
FNDA:454744,_RNvMs0_NtCs6vtiqiiMncD_15flyby_simulator5faultNtB5_13FaultInjector14should_corrupt
FNDA:9,_RNvMs0_NtCs6vtiqiiMncD_15flyby_simulator5faultNtB5_13FaultInjector15corrupt_payload
FNDA:29,_RNvMs0_NtCs6vtiqiiMncD_15flyby_simulator5faultNtB5_13FaultInjector3new
FNDA:0,_RNvMs_NtCs6vtiqiiMncD_15flyby_simulator5faultNtB4_9FaultSpec8is_clean
FNDA:45,_RNvXNtCs6vtiqiiMncD_15flyby_simulator5faultNtB2_9FaultSpecNtNtCsl8K0bEFm1U0_4core7default7Default7default
FNDA:1478,_RNvMs0_NtCsgBpleClnEuB_15flyby_simulator5faultNtB5_13FaultInjector10next_state
FNDA:1473,_RNvMs0_NtCsgBpleClnEuB_15flyby_simulator5faultNtB5_13FaultInjector11random_unit
FNDA:3618,_RNvMs0_NtCsgBpleClnEuB_15flyby_simulator5faultNtB5_13FaultInjector11should_drop
FNDA:1253,_RNvMs0_NtCsgBpleClnEuB_15flyby_simulator5faultNtB5_13FaultInjector12should_spike
FNDA:1152,_RNvMs0_NtCsgBpleClnEuB_15flyby_simulator5faultNtB5_13FaultInjector14should_corrupt
FNDA:5,_RNvMs0_NtCsgBpleClnEuB_15flyby_simulator5faultNtB5_13FaultInjector15corrupt_payload
FNDA:37,_RNvMs0_NtCsgBpleClnEuB_15flyby_simulator5faultNtB5_13FaultInjector3new
FNDA:2,_RNvMs_NtCsgBpleClnEuB_15flyby_simulator5faultNtB4_9FaultSpec8is_clean
FNDA:82,_RNvXNtCsgBpleClnEuB_15flyby_simulator5faultNtB2_9FaultSpecNtNtCsl8K0bEFm1U0_4core7default7Default7default
FNDA:1,_RNvNtNtCsgBpleClnEuB_15flyby_simulator5fault5testss_21default_spec_is_clean
FNDA:1,_RNvNtNtCsgBpleClnEuB_15flyby_simulator5fault5testss_26zero_drop_rate_never_drops
FNDA:1,_RNvNtNtCsgBpleClnEuB_15flyby_simulator5fault5testss_27full_drop_rate_always_drops
FNDA:1,_RNvNtNtCsgBpleClnEuB_15flyby_simulator5fault5testss_28corrupt_payload_flips_a_byte
FNDA:1,_RNvNtNtCsgBpleClnEuB_15flyby_simulator5fault5testss_28zero_spike_rate_returns_zero
FNDA:1,_RNvNtNtCsgBpleClnEuB_15flyby_simulator5fault5testss_35latency_spike_returns_configured_ns
FNDA:1,_RNvNtNtCsgBpleClnEuB_15flyby_simulator5fault5testss_36determinism_same_seed_same_decisions
FNDA:1,_RNvNtNtCsgBpleClnEuB_15flyby_simulator5fault5testss_37partial_drop_rate_produces_some_drops
FNDA:1,_RNvNtNtCsgBpleClnEuB_15flyby_simulator5fault5testss_43different_seeds_produce_different_decisions
FNDA:16,_RNCNvNtNtCsgBpleClnEuB_15flyby_simulator5fault5testss_28corrupt_payload_flips_a_byte0B7_
FNDA:100,_RNCNvNtNtCsgBpleClnEuB_15flyby_simulator5fault5testss_36determinism_same_seed_same_decisions0B7_
FNDA:100,_RNCNvNtNtCsgBpleClnEuB_15flyby_simulator5fault5testss_36determinism_same_seed_same_decisionss_0B7_
FNDA:1000,_RNCNvNtNtCsgBpleClnEuB_15flyby_simulator5fault5testss_37partial_drop_rate_produces_some_drops0B7_
FNDA:50,_RNCNvNtNtCsgBpleClnEuB_15flyby_simulator5fault5testss_43different_seeds_produce_different_decisions0B7_
FNDA:50,_RNCNvNtNtCsgBpleClnEuB_15flyby_simulator5fault5testss_43different_seeds_produce_different_decisionss_0B7_
FNF:24
FNH:24
DA:40,127
DA:41,127
DA:42,127
DA:43,127
DA:44,127
DA:45,127
DA:46,127
DA:47,127
DA:52,2
DA:53,2
DA:54,2
DA:77,66
DA:78,66
DA:79,66
DA:84,471201
DA:85,471201
DA:86,257403
DA:87,213798
DA:88,213798
DA:89,471201
DA:94,455896
DA:95,455896
DA:96,454892
DA:97,1004
DA:98,1004
DA:99,455896
DA:104,455997
DA:105,455997
DA:106,455994
DA:107,3
DA:108,3
DA:109,3
DA:111,0
DA:113,455997
DA:118,14
DA:119,14
DA:120,0
DA:121,14
DA:122,14
DA:123,14
DA:124,14
DA:127,214805
DA:128,214805
DA:129,214805
DA:130,214805
DA:132,214819
DA:134,214819
DA:135,214819
DA:136,214819
DA:137,214819
DA:138,214819
DA:139,214819
DA:147,1
DA:148,1
DA:149,1
DA:152,1
DA:153,1
DA:154,1
DA:155,1000
DA:157,1
DA:160,1
DA:161,1
DA:162,1
DA:163,1
DA:164,1
DA:165,1
DA:166,1
DA:167,100
DA:169,1
DA:172,1
DA:173,1
DA:174,1
DA:175,1
DA:176,1
DA:177,1
DA:178,1000
DA:179,1
DA:180,1
DA:183,1
DA:186,1
DA:187,1
DA:188,1
DA:189,1
DA:190,1
DA:191,1
DA:192,1
DA:193,1
DA:194,1
DA:195,16
DA:196,1
DA:197,1
DA:198,1
DA:201,1
DA:202,1
DA:203,1
DA:204,1
DA:205,1
DA:206,1
DA:207,1
DA:208,1
DA:209,100
DA:211,1
DA:212,1
DA:213,100
DA:215,1
DA:219,1
DA:222,1
DA:223,1
DA:224,1
DA:225,1
DA:226,1
DA:227,1
DA:228,1
DA:229,50
DA:231,1
DA:232,1
DA:233,50
DA:235,1
DA:236,1
DA:239,1
DA:240,1
DA:241,1
DA:242,1
DA:243,1
DA:244,1
DA:245,1
DA:246,1
DA:247,1
DA:250,1
DA:251,1
DA:252,1
DA:253,100
DA:255,1
BRF:0
BRH:0
LF:139
LH:137
end_of_record
SF:/Users/thanos/work/flyby/simulator/src/generator.rs
FN:133,_RINvMs0_NtCs6vtiqiiMncD_15flyby_simulator9generatorNtB6_15ProtocolMessage9fix_quoteReEB8_
FN:124,_RNvMs0_NtCs6vtiqiiMncD_15flyby_simulator9generatorNtB5_15ProtocolMessage12market_quote
FN:140,_RNvMs0_NtCs6vtiqiiMncD_15flyby_simulator9generatorNtB5_15ProtocolMessage12nominal_size
FN:179,_RNvMs1_NtCs6vtiqiiMncD_15flyby_simulator9generatorNtB5_16PayloadGenerator15max_payload_len
FN:276,_RNvMs1_NtCs6vtiqiiMncD_15flyby_simulator9generatorNtB5_16PayloadGenerator15sample_gaussian
FN:160,_RNvMs1_NtCs6vtiqiiMncD_15flyby_simulator9generatorNtB5_16PayloadGenerator3new
FN:191,_RNvMs1_NtCs6vtiqiiMncD_15flyby_simulator9generatorNtB5_16PayloadGenerator4fill
FN:174,_RNvMs1_NtCs6vtiqiiMncD_15flyby_simulator9generatorNtB5_16PayloadGenerator4spec
FN:262,_RNvMs1_NtCs6vtiqiiMncD_15flyby_simulator9generatorNtB5_16PayloadGenerator8next_u64
FN:271,_RNvMs1_NtCs6vtiqiiMncD_15flyby_simulator9generatorNtB5_16PayloadGenerator9next_unit
FN:308,_RNvNtCs6vtiqiiMncD_15flyby_simulator9generator15build_udp_frame
FN:292,_RNvNtCs6vtiqiiMncD_15flyby_simulator9generator8fill_seq
FN:55,_RNvXNtCs6vtiqiiMncD_15flyby_simulator9generatorNtB2_11PayloadSpecNtNtCsl8K0bEFm1U0_4core3fmt5Debug3fmt
FN:78,_RNvXs_NtCs6vtiqiiMncD_15flyby_simulator9generatorNtB4_11PayloadSpecNtNtCsl8K0bEFm1U0_4core3cmp9PartialEq2eq
FN:402,_RNvNtNtCsgBpleClnEuB_15flyby_simulator9generator5testss_15custom_callback
FN:377,_RNvNtNtCsgBpleClnEuB_15flyby_simulator9generator5testss_19market_quote_layout
FN:351,_RNvNtNtCsgBpleClnEuB_15flyby_simulator9generator5testss_23random_is_deterministic
FN:389,_RNvNtNtCsgBpleClnEuB_15flyby_simulator9generator5testss_26fix_quote_roundtrip_prefix
FN:342,_RNvNtNtCsgBpleClnEuB_15flyby_simulator9generator5testss_28fixed_seq_writes_be_sequence
FN:362,_RNvNtNtCsgBpleClnEuB_15flyby_simulator9generator5testss_28gaussian_size_stays_in_range
FN:417,_RNvNtNtCsgBpleClnEuB_15flyby_simulator9generator5testss_34build_udp_frame_has_ethertype_ipv4
FN:403,_RNCNvNtNtCsgBpleClnEuB_15flyby_simulator9generator5testss_15custom_callback0B7_
FN:124,_RNvMs0_NtCsgBpleClnEuB_15flyby_simulator9generatorNtB5_15ProtocolMessage12market_quote
FN:140,_RNvMs0_NtCsgBpleClnEuB_15flyby_simulator9generatorNtB5_15ProtocolMessage12nominal_size
FN:179,_RNvMs1_NtCsgBpleClnEuB_15flyby_simulator9generatorNtB5_16PayloadGenerator15max_payload_len
FN:276,_RNvMs1_NtCsgBpleClnEuB_15flyby_simulator9generatorNtB5_16PayloadGenerator15sample_gaussian
FN:160,_RNvMs1_NtCsgBpleClnEuB_15flyby_simulator9generatorNtB5_16PayloadGenerator3new
FN:191,_RNvMs1_NtCsgBpleClnEuB_15flyby_simulator9generatorNtB5_16PayloadGenerator4fill
FN:262,_RNvMs1_NtCsgBpleClnEuB_15flyby_simulator9generatorNtB5_16PayloadGenerator8next_u64
FN:271,_RNvMs1_NtCsgBpleClnEuB_15flyby_simulator9generatorNtB5_16PayloadGenerator9next_unit
FN:308,_RNvNtCsgBpleClnEuB_15flyby_simulator9generator15build_udp_frame
FN:292,_RNvNtCsgBpleClnEuB_15flyby_simulator9generator8fill_seq
FN:174,_RNvMs1_NtCsgBpleClnEuB_15flyby_simulator9generatorNtB5_16PayloadGenerator4spec
FN:55,_RNvXNtCsgBpleClnEuB_15flyby_simulator9generatorNtB2_11PayloadSpecNtNtCsl8K0bEFm1U0_4core3fmt5Debug3fmt
FN:78,_RNvXs_NtCsgBpleClnEuB_15flyby_simulator9generatorNtB4_11PayloadSpecNtNtCsl8K0bEFm1U0_4core3cmp9PartialEq2eq
FN:133,_RINvMs0_NtCsgBpleClnEuB_15flyby_simulator9generatorNtB6_15ProtocolMessage9fix_quoteReEB8_
FNDA:0,_RINvMs0_NtCs6vtiqiiMncD_15flyby_simulator9generatorNtB6_15ProtocolMessage9fix_quoteReEB8_
FNDA:2,_RNvMs0_NtCs6vtiqiiMncD_15flyby_simulator9generatorNtB5_15ProtocolMessage12market_quote
FNDA:2016,_RNvMs0_NtCs6vtiqiiMncD_15flyby_simulator9generatorNtB5_15ProtocolMessage12nominal_size
FNDA:16100,_RNvMs1_NtCs6vtiqiiMncD_15flyby_simulator9generatorNtB5_16PayloadGenerator15max_payload_len
FNDA:0,_RNvMs1_NtCs6vtiqiiMncD_15flyby_simulator9generatorNtB5_16PayloadGenerator15sample_gaussian
FNDA:35,_RNvMs1_NtCs6vtiqiiMncD_15flyby_simulator9generatorNtB5_16PayloadGenerator3new
FNDA:454741,_RNvMs1_NtCs6vtiqiiMncD_15flyby_simulator9generatorNtB5_16PayloadGenerator4fill
FNDA:0,_RNvMs1_NtCs6vtiqiiMncD_15flyby_simulator9generatorNtB5_16PayloadGenerator4spec
FNDA:0,_RNvMs1_NtCs6vtiqiiMncD_15flyby_simulator9generatorNtB5_16PayloadGenerator8next_u64
FNDA:0,_RNvMs1_NtCs6vtiqiiMncD_15flyby_simulator9generatorNtB5_16PayloadGenerator9next_unit
FNDA:454741,_RNvNtCs6vtiqiiMncD_15flyby_simulator9generator15build_udp_frame
FNDA:307788,_RNvNtCs6vtiqiiMncD_15flyby_simulator9generator8fill_seq
FNDA:0,_RNvXNtCs6vtiqiiMncD_15flyby_simulator9generatorNtB2_11PayloadSpecNtNtCsl8K0bEFm1U0_4core3fmt5Debug3fmt
FNDA:0,_RNvXs_NtCs6vtiqiiMncD_15flyby_simulator9generatorNtB4_11PayloadSpecNtNtCsl8K0bEFm1U0_4core3cmp9PartialEq2eq
FNDA:1,_RNvNtNtCsgBpleClnEuB_15flyby_simulator9generator5testss_15custom_callback
FNDA:1,_RNvNtNtCsgBpleClnEuB_15flyby_simulator9generator5testss_19market_quote_layout
FNDA:1,_RNvNtNtCsgBpleClnEuB_15flyby_simulator9generator5testss_23random_is_deterministic
FNDA:1,_RNvNtNtCsgBpleClnEuB_15flyby_simulator9generator5testss_26fix_quote_roundtrip_prefix
FNDA:1,_RNvNtNtCsgBpleClnEuB_15flyby_simulator9generator5testss_28fixed_seq_writes_be_sequence
FNDA:1,_RNvNtNtCsgBpleClnEuB_15flyby_simulator9generator5testss_28gaussian_size_stays_in_range
FNDA:1,_RNvNtNtCsgBpleClnEuB_15flyby_simulator9generator5testss_34build_udp_frame_has_ethertype_ipv4
FNDA:1,_RNCNvNtNtCsgBpleClnEuB_15flyby_simulator9generator5testss_15custom_callback0B7_
FNDA:4,_RNvMs0_NtCsgBpleClnEuB_15flyby_simulator9generatorNtB5_15ProtocolMessage12market_quote
FNDA:3,_RNvMs0_NtCsgBpleClnEuB_15flyby_simulator9generatorNtB5_15ProtocolMessage12nominal_size
FNDA:1079,_RNvMs1_NtCsgBpleClnEuB_15flyby_simulator9generatorNtB5_16PayloadGenerator15max_payload_len
FNDA:200,_RNvMs1_NtCsgBpleClnEuB_15flyby_simulator9generatorNtB5_16PayloadGenerator15sample_gaussian
FNDA:47,_RNvMs1_NtCsgBpleClnEuB_15flyby_simulator9generatorNtB5_16PayloadGenerator3new
FNDA:1347,_RNvMs1_NtCsgBpleClnEuB_15flyby_simulator9generatorNtB5_16PayloadGenerator4fill
FNDA:11287,_RNvMs1_NtCsgBpleClnEuB_15flyby_simulator9generatorNtB5_16PayloadGenerator8next_u64
FNDA:200,_RNvMs1_NtCsgBpleClnEuB_15flyby_simulator9generatorNtB5_16PayloadGenerator9next_unit
FNDA:1142,_RNvNtCsgBpleClnEuB_15flyby_simulator9generator15build_udp_frame
FNDA:1341,_RNvNtCsgBpleClnEuB_15flyby_simulator9generator8fill_seq
FNDA:0,_RNvMs1_NtCsgBpleClnEuB_15flyby_simulator9generatorNtB5_16PayloadGenerator4spec
FNDA:0,_RNvXNtCsgBpleClnEuB_15flyby_simulator9generatorNtB2_11PayloadSpecNtNtCsl8K0bEFm1U0_4core3fmt5Debug3fmt
FNDA:0,_RNvXs_NtCsgBpleClnEuB_15flyby_simulator9generatorNtB4_11PayloadSpecNtNtCsl8K0bEFm1U0_4core3cmp9PartialEq2eq
FNDA:1,_RINvMs0_NtCsgBpleClnEuB_15flyby_simulator9generatorNtB6_15ProtocolMessage9fix_quoteReEB8_
FNF:22
FNH:19
DA:55,0
DA:56,0
DA:57,0
DA:58,0
DA:60,0
DA:61,0
DA:62,0
DA:63,0
DA:64,0
DA:65,0
DA:66,0
DA:67,0
DA:68,0
DA:69,0
DA:70,0
DA:71,0
DA:72,0
DA:74,0
DA:78,0
DA:79,0
DA:80,0
DA:81,0
DA:84,0
DA:85,0
DA:86,0
DA:87,0
DA:90,0
DA:91,0
DA:92,0
DA:93,0
DA:95,0
DA:96,0
DA:97,0
DA:98,0
DA:100,0
DA:124,6
DA:125,6
DA:126,6
DA:127,6
DA:128,6
DA:129,6
DA:130,6
DA:133,1
DA:134,1
DA:135,1
DA:136,1
DA:137,1
DA:140,2019
DA:141,2019
DA:142,2019
DA:143,0
DA:145,2019
DA:160,82
DA:161,82
DA:162,2
DA:163,1
DA:164,79
DA:166,82
DA:167,82
DA:168,82
DA:169,82
DA:170,82
DA:171,82
DA:174,0
DA:175,0
DA:176,0
DA:179,17179
DA:180,17179
DA:181,0
DA:182,2018
DA:183,15161
DA:185,17179
DA:191,456088
DA:192,456088
DA:193,0
DA:194,456088
DA:195,146956
DA:197,308929
DA:198,308929
DA:201,64
DA:202,64
DA:203,64
DA:204,2
DA:207,200
DA:209,200
DA:210,200
DA:211,200
DA:212,200
DA:213,200
DA:214,200
DA:215,200
DA:216,11023
DA:217,11023
DA:218,11023
DA:219,0
DA:220,200
DA:222,146955
DA:223,146955
DA:224,0
DA:225,0
DA:226,0
DA:227,0
DA:228,0
DA:229,0
DA:230,146955
DA:231,146955
DA:232,146955
DA:233,146955
DA:234,146955
DA:235,146955
DA:236,146955
DA:237,146955
DA:238,146955
DA:239,146955
DA:241,1
DA:242,1
DA:243,1
DA:244,1
DA:245,1
DA:246,0
DA:247,0
DA:248,0
DA:249,1
DA:250,1
DA:251,1
DA:252,1
DA:253,1
DA:255,1
DA:256,1
DA:257,1
DA:260,456088
DA:262,11287
DA:264,11287
DA:265,11287
DA:266,11287
DA:267,11287
DA:268,11287
DA:269,11287
DA:271,200
DA:272,200
DA:273,200
DA:276,200
DA:277,200
DA:278,100
DA:279,100
DA:281,100
DA:282,100
DA:283,100
DA:284,100
DA:285,100
DA:286,100
DA:287,100
DA:288,100
DA:289,200
DA:292,309129
DA:293,309129
DA:294,309129
DA:295,309129
DA:296,57431
DA:297,57431
DA:298,0
DA:299,0
DA:300,0
DA:301,0
DA:302,0
DA:303,309129
DA:308,455883
DA:309,455883
DA:310,455883
DA:313,455883
DA:314,455883
DA:315,455883
DA:318,455883
DA:319,455883
DA:320,455883
DA:321,455883
DA:322,455883
DA:323,455883
DA:324,455883
DA:325,455883
DA:328,455883
DA:329,455883
DA:330,455883
DA:331,455883
DA:333,455883
DA:334,455883
DA:335,455883
DA:342,1
DA:343,1
DA:344,1
DA:345,1
DA:346,1
DA:347,1
DA:348,1
DA:351,1
DA:352,1
DA:353,1
DA:354,1
DA:355,1
DA:356,1
DA:357,1
DA:358,1
DA:359,1
DA:362,1
DA:363,1
DA:364,1
DA:365,1
DA:366,1
DA:367,1
DA:368,1
DA:369,1
DA:370,200
DA:371,200
DA:372,200
DA:374,1
DA:377,1
DA:378,1
DA:379,1
DA:380,1
DA:381,1
DA:382,1
DA:383,1
DA:384,1
DA:385,1
DA:386,1
DA:389,1
DA:390,1
DA:391,1
DA:392,1
DA:393,1
DA:394,1
DA:395,1
DA:396,1
DA:397,1
DA:398,1
DA:399,1
DA:402,1
DA:403,1
DA:404,1
DA:405,1
DA:406,1
DA:407,1
DA:408,1
DA:409,1
DA:410,1
DA:411,1
DA:412,1
DA:413,1
DA:414,1
DA:417,1
DA:418,1
DA:419,1
DA:420,1
DA:421,1
DA:422,1
DA:423,1
BRF:0
BRH:0
LF:257
LH:201
end_of_record
SF:/Users/thanos/work/flyby/simulator/src/metrics.rs
FN:42,_RNvXNtCs6vtiqiiMncD_15flyby_simulator7metricsNtB2_12SimMetricKeyNtNtCscf8MsWp3cCb_10flyby_core7metrics9MetricKey4name
FN:42,_RNvXNtCsgBpleClnEuB_15flyby_simulator7metricsNtB2_12SimMetricKeyNtNtCscf8MsWp3cCb_10flyby_core7metrics9MetricKey4name
FN:96,_RNvNtNtCsgBpleClnEuB_15flyby_simulator7metrics5testss_16all_names_unique
FN:68,_RNvNtNtCsgBpleClnEuB_15flyby_simulator7metrics5testss_25all_names_have_sim_prefix
FN:114,_RNCNvNtNtCsgBpleClnEuB_15flyby_simulator7metrics5testss_16all_names_unique0B7_
FNDA:0,_RNvXNtCs6vtiqiiMncD_15flyby_simulator7metricsNtB2_12SimMetricKeyNtNtCscf8MsWp3cCb_10flyby_core7metrics9MetricKey4name
FNDA:28,_RNvXNtCsgBpleClnEuB_15flyby_simulator7metricsNtB2_12SimMetricKeyNtNtCscf8MsWp3cCb_10flyby_core7metrics9MetricKey4name
FNDA:1,_RNvNtNtCsgBpleClnEuB_15flyby_simulator7metrics5testss_16all_names_unique
FNDA:1,_RNvNtNtCsgBpleClnEuB_15flyby_simulator7metrics5testss_25all_names_have_sim_prefix
FNDA:14,_RNCNvNtNtCsgBpleClnEuB_15flyby_simulator7metrics5testss_16all_names_unique0B7_
FNF:4
FNH:4
DA:42,28
DA:43,28
DA:44,2
DA:45,2
DA:46,2
DA:47,2
DA:48,2
DA:49,2
DA:50,2
DA:51,2
DA:52,2
DA:53,2
DA:54,2
DA:55,2
DA:56,2
DA:57,2
DA:59,28
DA:68,1
DA:69,1
DA:70,1
DA:71,1
DA:72,1
DA:73,1
DA:74,1
DA:75,1
DA:76,1
DA:77,1
DA:78,1
DA:79,1
DA:80,1
DA:81,1
DA:82,1
DA:83,1
DA:84,1
DA:85,14
DA:86,14
DA:87,14
DA:90,0
DA:93,1
DA:96,1
DA:97,1
DA:98,1
DA:99,1
DA:100,1
DA:101,1
DA:102,1
DA:103,1
DA:104,1
DA:105,1
DA:106,1
DA:107,1
DA:108,1
DA:109,1
DA:110,1
DA:111,1
DA:112,1
DA:113,1
DA:114,14
DA:115,1
DA:116,1
DA:117,1
BRF:0
BRH:0
LF:62
LH:61
end_of_record
SF:/Users/thanos/work/flyby/simulator/src/nic.rs
FN:297,_RNvXININtCs6vtiqiiMncD_15flyby_simulator3nics1_0pEINtB5_10VirtualNicpENtNtCslaj7P7CWVfX_9flyby_net6source13NetworkSource12backend_nameB7_
FN:140,_RNvMs_NtCs6vtiqiiMncD_15flyby_simulator3nicINtB4_10VirtualNicNtNtB6_6events12VecEventSinkE11set_trafficB6_
FN:94,_RNvMs_NtCs6vtiqiiMncD_15flyby_simulator3nicINtB4_10VirtualNicNtNtB6_6events12VecEventSinkE12with_metricsB6_
FN:133,_RNvMs_NtCs6vtiqiiMncD_15flyby_simulator3nicINtB4_10VirtualNicNtNtB6_6events12VecEventSinkE13take_spike_nsB6_
FN:161,_RNvMs_NtCs6vtiqiiMncD_15flyby_simulator3nicINtB4_10VirtualNicNtNtB6_6events12VecEventSinkE14max_frame_sizeB6_
FN:127,_RNvMs_NtCs6vtiqiiMncD_15flyby_simulator3nicINtB4_10VirtualNicNtNtB6_6events12VecEventSinkE16set_tick_contextB6_
FN:89,_RNvMs_NtCs6vtiqiiMncD_15flyby_simulator3nicINtB4_10VirtualNicNtNtB6_6events12VecEventSinkE3newB6_
FN:154,_RNvMs_NtCs6vtiqiiMncD_15flyby_simulator3nicINtB4_10VirtualNicNtNtB6_6events12VecEventSinkE4emitB6_
FN:122,_RNvMs_NtCs6vtiqiiMncD_15flyby_simulator3nicINtB4_10VirtualNicNtNtB6_6events12VecEventSinkE4nameB6_
FN:149,_RNvMs_NtCs6vtiqiiMncD_15flyby_simulator3nicINtB4_10VirtualNicNtNtB6_6events12VecEventSinkE9set_faultB6_
FN:140,_RNvMs_NtCs6vtiqiiMncD_15flyby_simulator3nicINtB4_10VirtualNicNtNtB6_6events13NullEventSinkE11set_trafficB6_
FN:94,_RNvMs_NtCs6vtiqiiMncD_15flyby_simulator3nicINtB4_10VirtualNicNtNtB6_6events13NullEventSinkE12with_metricsB6_
FN:133,_RNvMs_NtCs6vtiqiiMncD_15flyby_simulator3nicINtB4_10VirtualNicNtNtB6_6events13NullEventSinkE13take_spike_nsB6_
FN:161,_RNvMs_NtCs6vtiqiiMncD_15flyby_simulator3nicINtB4_10VirtualNicNtNtB6_6events13NullEventSinkE14max_frame_sizeB6_
FN:127,_RNvMs_NtCs6vtiqiiMncD_15flyby_simulator3nicINtB4_10VirtualNicNtNtB6_6events13NullEventSinkE16set_tick_contextB6_
FN:89,_RNvMs_NtCs6vtiqiiMncD_15flyby_simulator3nicINtB4_10VirtualNicNtNtB6_6events13NullEventSinkE3newB6_
FN:154,_RNvMs_NtCs6vtiqiiMncD_15flyby_simulator3nicINtB4_10VirtualNicNtNtB6_6events13NullEventSinkE4emitB6_
FN:122,_RNvMs_NtCs6vtiqiiMncD_15flyby_simulator3nicINtB4_10VirtualNicNtNtB6_6events13NullEventSinkE4nameB6_
FN:149,_RNvMs_NtCs6vtiqiiMncD_15flyby_simulator3nicINtB4_10VirtualNicNtNtB6_6events13NullEventSinkE9set_faultB6_
FN:170,_RNvXs0_NtCs6vtiqiiMncD_15flyby_simulator3nicINtB5_10VirtualNicNtNtB7_6events12VecEventSinkENtNtCscf8MsWp3cCb_10flyby_core9lifecycle9Lifecycle4initB7_
FN:188,_RNvXs0_NtCs6vtiqiiMncD_15flyby_simulator3nicINtB5_10VirtualNicNtNtB7_6events12VecEventSinkENtNtCscf8MsWp3cCb_10flyby_core9lifecycle9Lifecycle8shutdownB7_
FN:170,_RNvXs0_NtCs6vtiqiiMncD_15flyby_simulator3nicINtB5_10VirtualNicNtNtB7_6events13NullEventSinkENtNtCscf8MsWp3cCb_10flyby_core9lifecycle9Lifecycle4initB7_
FN:188,_RNvXs0_NtCs6vtiqiiMncD_15flyby_simulator3nicINtB5_10VirtualNicNtNtB7_6events13NullEventSinkENtNtCscf8MsWp3cCb_10flyby_core9lifecycle9Lifecycle8shutdownB7_
FN:195,_RNvXs1_NtCs6vtiqiiMncD_15flyby_simulator3nicINtB5_10VirtualNicNtNtB7_6events12VecEventSinkENtNtCslaj7P7CWVfX_9flyby_net6source13NetworkSource10poll_batchB7_
FN:195,_RNvXs1_NtCs6vtiqiiMncD_15flyby_simulator3nicINtB5_10VirtualNicNtNtB7_6events13NullEventSinkENtNtCslaj7P7CWVfX_9flyby_net6source13NetworkSource10poll_batchB7_
FN:51,_RNvXNtCsgBpleClnEuB_15flyby_simulator3nicNtB2_16VirtualNicConfigNtNtCsl8K0bEFm1U0_4core7default7Default7default
FN:140,_RNvMs_NtCsgBpleClnEuB_15flyby_simulator3nicINtB4_10VirtualNicNtNtB6_6events12VecEventSinkE11set_trafficB6_
FN:94,_RNvMs_NtCsgBpleClnEuB_15flyby_simulator3nicINtB4_10VirtualNicNtNtB6_6events12VecEventSinkE12with_metricsB6_
FN:133,_RNvMs_NtCsgBpleClnEuB_15flyby_simulator3nicINtB4_10VirtualNicNtNtB6_6events12VecEventSinkE13take_spike_nsB6_
FN:161,_RNvMs_NtCsgBpleClnEuB_15flyby_simulator3nicINtB4_10VirtualNicNtNtB6_6events12VecEventSinkE14max_frame_sizeB6_
FN:127,_RNvMs_NtCsgBpleClnEuB_15flyby_simulator3nicINtB4_10VirtualNicNtNtB6_6events12VecEventSinkE16set_tick_contextB6_
FN:89,_RNvMs_NtCsgBpleClnEuB_15flyby_simulator3nicINtB4_10VirtualNicNtNtB6_6events12VecEventSinkE3newB6_
FN:154,_RNvMs_NtCsgBpleClnEuB_15flyby_simulator3nicINtB4_10VirtualNicNtNtB6_6events12VecEventSinkE4emitB6_
FN:122,_RNvMs_NtCsgBpleClnEuB_15flyby_simulator3nicINtB4_10VirtualNicNtNtB6_6events12VecEventSinkE4nameB6_
FN:149,_RNvMs_NtCsgBpleClnEuB_15flyby_simulator3nicINtB4_10VirtualNicNtNtB6_6events12VecEventSinkE9set_faultB6_
FN:140,_RNvMs_NtCsgBpleClnEuB_15flyby_simulator3nicINtB4_10VirtualNicNtNtB6_6events13NullEventSinkE11set_trafficB6_
FN:94,_RNvMs_NtCsgBpleClnEuB_15flyby_simulator3nicINtB4_10VirtualNicNtNtB6_6events13NullEventSinkE12with_metricsB6_
FN:133,_RNvMs_NtCsgBpleClnEuB_15flyby_simulator3nicINtB4_10VirtualNicNtNtB6_6events13NullEventSinkE13take_spike_nsB6_
FN:161,_RNvMs_NtCsgBpleClnEuB_15flyby_simulator3nicINtB4_10VirtualNicNtNtB6_6events13NullEventSinkE14max_frame_sizeB6_
FN:127,_RNvMs_NtCsgBpleClnEuB_15flyby_simulator3nicINtB4_10VirtualNicNtNtB6_6events13NullEventSinkE16set_tick_contextB6_
FN:89,_RNvMs_NtCsgBpleClnEuB_15flyby_simulator3nicINtB4_10VirtualNicNtNtB6_6events13NullEventSinkE3newB6_
FN:154,_RNvMs_NtCsgBpleClnEuB_15flyby_simulator3nicINtB4_10VirtualNicNtNtB6_6events13NullEventSinkE4emitB6_
FN:122,_RNvMs_NtCsgBpleClnEuB_15flyby_simulator3nicINtB4_10VirtualNicNtNtB6_6events13NullEventSinkE4nameB6_
FN:149,_RNvMs_NtCsgBpleClnEuB_15flyby_simulator3nicINtB4_10VirtualNicNtNtB6_6events13NullEventSinkE9set_faultB6_
FN:170,_RNvXs0_NtCsgBpleClnEuB_15flyby_simulator3nicINtB5_10VirtualNicNtNtB7_6events12VecEventSinkENtNtCscf8MsWp3cCb_10flyby_core9lifecycle9Lifecycle4initB7_
FN:188,_RNvXs0_NtCsgBpleClnEuB_15flyby_simulator3nicINtB5_10VirtualNicNtNtB7_6events12VecEventSinkENtNtCscf8MsWp3cCb_10flyby_core9lifecycle9Lifecycle8shutdownB7_
FN:170,_RNvXs0_NtCsgBpleClnEuB_15flyby_simulator3nicINtB5_10VirtualNicNtNtB7_6events13NullEventSinkENtNtCscf8MsWp3cCb_10flyby_core9lifecycle9Lifecycle4initB7_
FN:188,_RNvXs0_NtCsgBpleClnEuB_15flyby_simulator3nicINtB5_10VirtualNicNtNtB7_6events13NullEventSinkENtNtCscf8MsWp3cCb_10flyby_core9lifecycle9Lifecycle8shutdownB7_
FN:195,_RNvXs1_NtCsgBpleClnEuB_15flyby_simulator3nicINtB5_10VirtualNicNtNtB7_6events12VecEventSinkENtNtCslaj7P7CWVfX_9flyby_net6source13NetworkSource10poll_batchB7_
FN:195,_RNvXs1_NtCsgBpleClnEuB_15flyby_simulator3nicINtB5_10VirtualNicNtNtB7_6events13NullEventSinkENtNtCslaj7P7CWVfX_9flyby_net6source13NetworkSource10poll_batchB7_
FN:297,_RNvXs1_NtCsgBpleClnEuB_15flyby_simulator3nicINtB5_10VirtualNicNtNtB7_6events13NullEventSinkENtNtCslaj7P7CWVfX_9flyby_net6source13NetworkSource12backend_nameB7_
FN:410,_RNCNvNtNtCsgBpleClnEuB_15flyby_simulator3nic5testss_28corrupt_rate_mutates_payload0B7_
FN:355,_RNCNvNtNtCsgBpleClnEuB_15flyby_simulator3nic5testss_40clean_nic_emits_packets_generated_events0B7_
FN:309,_RNvNtNtCsgBpleClnEuB_15flyby_simulator3nic5tests8make_nic
FN:416,_RNvNtNtCsgBpleClnEuB_15flyby_simulator3nic5testss_25latency_spike_accumulates
FN:475,_RNvNtNtCsgBpleClnEuB_15flyby_simulator3nic5testss_27backend_name_is_virtual_nic
FN:384,_RNvNtNtCsgBpleClnEuB_15flyby_simulator3nic5testss_28corrupt_rate_mutates_payload
FN:324,_RNvNtNtCsgBpleClnEuB_15flyby_simulator3nic5testss_31poll_without_init_returns_error
FN:454,_RNvNtNtCsgBpleClnEuB_15flyby_simulator3nic5testss_31protocol_quote_payload_in_frame
FN:437,_RNvNtNtCsgBpleClnEuB_15flyby_simulator3nic5testss_34pacing_zero_intended_returns_empty
FN:483,_RNvNtNtCsgBpleClnEuB_15flyby_simulator3nic5testss_36shutdown_then_reinit_resets_counters
FN:331,_RNvNtNtCsgBpleClnEuB_15flyby_simulator3nic5testss_40clean_nic_emits_packets_generated_events
FN:361,_RNvNtNtCsgBpleClnEuB_15flyby_simulator3nic5testss_45full_drop_rate_removes_all_packets_from_batch
FN:51,_RNvXNtCs6vtiqiiMncD_15flyby_simulator3nicNtB2_16VirtualNicConfigNtNtCsl8K0bEFm1U0_4core7default7Default7default
FNDA:0,_RNvXININtCs6vtiqiiMncD_15flyby_simulator3nics1_0pEINtB5_10VirtualNicpENtNtCslaj7P7CWVfX_9flyby_net6source13NetworkSource12backend_nameB7_
FNDA:0,_RNvMs_NtCs6vtiqiiMncD_15flyby_simulator3nicINtB4_10VirtualNicNtNtB6_6events12VecEventSinkE11set_trafficB6_
FNDA:0,_RNvMs_NtCs6vtiqiiMncD_15flyby_simulator3nicINtB4_10VirtualNicNtNtB6_6events12VecEventSinkE12with_metricsB6_
FNDA:0,_RNvMs_NtCs6vtiqiiMncD_15flyby_simulator3nicINtB4_10VirtualNicNtNtB6_6events12VecEventSinkE13take_spike_nsB6_
FNDA:0,_RNvMs_NtCs6vtiqiiMncD_15flyby_simulator3nicINtB4_10VirtualNicNtNtB6_6events12VecEventSinkE14max_frame_sizeB6_
FNDA:0,_RNvMs_NtCs6vtiqiiMncD_15flyby_simulator3nicINtB4_10VirtualNicNtNtB6_6events12VecEventSinkE16set_tick_contextB6_
FNDA:0,_RNvMs_NtCs6vtiqiiMncD_15flyby_simulator3nicINtB4_10VirtualNicNtNtB6_6events12VecEventSinkE3newB6_
FNDA:0,_RNvMs_NtCs6vtiqiiMncD_15flyby_simulator3nicINtB4_10VirtualNicNtNtB6_6events12VecEventSinkE4emitB6_
FNDA:0,_RNvMs_NtCs6vtiqiiMncD_15flyby_simulator3nicINtB4_10VirtualNicNtNtB6_6events12VecEventSinkE4nameB6_
FNDA:0,_RNvMs_NtCs6vtiqiiMncD_15flyby_simulator3nicINtB4_10VirtualNicNtNtB6_6events12VecEventSinkE9set_faultB6_
FNDA:1,_RNvMs_NtCs6vtiqiiMncD_15flyby_simulator3nicINtB4_10VirtualNicNtNtB6_6events13NullEventSinkE11set_trafficB6_
FNDA:17,_RNvMs_NtCs6vtiqiiMncD_15flyby_simulator3nicINtB4_10VirtualNicNtNtB6_6events13NullEventSinkE12with_metricsB6_
FNDA:16065,_RNvMs_NtCs6vtiqiiMncD_15flyby_simulator3nicINtB4_10VirtualNicNtNtB6_6events13NullEventSinkE13take_spike_nsB6_
FNDA:16065,_RNvMs_NtCs6vtiqiiMncD_15flyby_simulator3nicINtB4_10VirtualNicNtNtB6_6events13NullEventSinkE14max_frame_sizeB6_
FNDA:16065,_RNvMs_NtCs6vtiqiiMncD_15flyby_simulator3nicINtB4_10VirtualNicNtNtB6_6events13NullEventSinkE16set_tick_contextB6_
FNDA:16,_RNvMs_NtCs6vtiqiiMncD_15flyby_simulator3nicINtB4_10VirtualNicNtNtB6_6events13NullEventSinkE3newB6_
FNDA:467606,_RNvMs_NtCs6vtiqiiMncD_15flyby_simulator3nicINtB4_10VirtualNicNtNtB6_6events13NullEventSinkE4emitB6_
FNDA:12,_RNvMs_NtCs6vtiqiiMncD_15flyby_simulator3nicINtB4_10VirtualNicNtNtB6_6events13NullEventSinkE4nameB6_
FNDA:11,_RNvMs_NtCs6vtiqiiMncD_15flyby_simulator3nicINtB4_10VirtualNicNtNtB6_6events13NullEventSinkE9set_faultB6_
FNDA:0,_RNvXs0_NtCs6vtiqiiMncD_15flyby_simulator3nicINtB5_10VirtualNicNtNtB7_6events12VecEventSinkENtNtCscf8MsWp3cCb_10flyby_core9lifecycle9Lifecycle4initB7_
FNDA:0,_RNvXs0_NtCs6vtiqiiMncD_15flyby_simulator3nicINtB5_10VirtualNicNtNtB7_6events12VecEventSinkENtNtCscf8MsWp3cCb_10flyby_core9lifecycle9Lifecycle8shutdownB7_
FNDA:17,_RNvXs0_NtCs6vtiqiiMncD_15flyby_simulator3nicINtB5_10VirtualNicNtNtB7_6events13NullEventSinkENtNtCscf8MsWp3cCb_10flyby_core9lifecycle9Lifecycle4initB7_
FNDA:17,_RNvXs0_NtCs6vtiqiiMncD_15flyby_simulator3nicINtB5_10VirtualNicNtNtB7_6events13NullEventSinkENtNtCscf8MsWp3cCb_10flyby_core9lifecycle9Lifecycle8shutdownB7_
FNDA:0,_RNvXs1_NtCs6vtiqiiMncD_15flyby_simulator3nicINtB5_10VirtualNicNtNtB7_6events12VecEventSinkENtNtCslaj7P7CWVfX_9flyby_net6source13NetworkSource10poll_batchB7_
FNDA:16065,_RNvXs1_NtCs6vtiqiiMncD_15flyby_simulator3nicINtB5_10VirtualNicNtNtB7_6events13NullEventSinkENtNtCslaj7P7CWVfX_9flyby_net6source13NetworkSource10poll_batchB7_
FNDA:17,_RNvXNtCsgBpleClnEuB_15flyby_simulator3nicNtB2_16VirtualNicConfigNtNtCsl8K0bEFm1U0_4core7default7Default7default
FNDA:0,_RNvMs_NtCsgBpleClnEuB_15flyby_simulator3nicINtB4_10VirtualNicNtNtB6_6events12VecEventSinkE11set_trafficB6_
FNDA:10,_RNvMs_NtCsgBpleClnEuB_15flyby_simulator3nicINtB4_10VirtualNicNtNtB6_6events12VecEventSinkE12with_metricsB6_
FNDA:3,_RNvMs_NtCsgBpleClnEuB_15flyby_simulator3nicINtB4_10VirtualNicNtNtB6_6events12VecEventSinkE13take_spike_nsB6_
FNDA:7,_RNvMs_NtCsgBpleClnEuB_15flyby_simulator3nicINtB4_10VirtualNicNtNtB6_6events12VecEventSinkE14max_frame_sizeB6_
FNDA:7,_RNvMs_NtCsgBpleClnEuB_15flyby_simulator3nicINtB4_10VirtualNicNtNtB6_6events12VecEventSinkE16set_tick_contextB6_
FNDA:10,_RNvMs_NtCsgBpleClnEuB_15flyby_simulator3nicINtB4_10VirtualNicNtNtB6_6events12VecEventSinkE3newB6_
FNDA:136,_RNvMs_NtCsgBpleClnEuB_15flyby_simulator3nicINtB4_10VirtualNicNtNtB6_6events12VecEventSinkE4emitB6_
FNDA:0,_RNvMs_NtCsgBpleClnEuB_15flyby_simulator3nicINtB4_10VirtualNicNtNtB6_6events12VecEventSinkE4nameB6_
FNDA:0,_RNvMs_NtCsgBpleClnEuB_15flyby_simulator3nicINtB4_10VirtualNicNtNtB6_6events12VecEventSinkE9set_faultB6_
FNDA:0,_RNvMs_NtCsgBpleClnEuB_15flyby_simulator3nicINtB4_10VirtualNicNtNtB6_6events13NullEventSinkE11set_trafficB6_
FNDA:10,_RNvMs_NtCsgBpleClnEuB_15flyby_simulator3nicINtB4_10VirtualNicNtNtB6_6events13NullEventSinkE12with_metricsB6_
FNDA:1031,_RNvMs_NtCsgBpleClnEuB_15flyby_simulator3nicINtB4_10VirtualNicNtNtB6_6events13NullEventSinkE13take_spike_nsB6_
FNDA:1032,_RNvMs_NtCsgBpleClnEuB_15flyby_simulator3nicINtB4_10VirtualNicNtNtB6_6events13NullEventSinkE14max_frame_sizeB6_
FNDA:1032,_RNvMs_NtCsgBpleClnEuB_15flyby_simulator3nicINtB4_10VirtualNicNtNtB6_6events13NullEventSinkE16set_tick_contextB6_
FNDA:10,_RNvMs_NtCsgBpleClnEuB_15flyby_simulator3nicINtB4_10VirtualNicNtNtB6_6events13NullEventSinkE3newB6_
FNDA:1087,_RNvMs_NtCsgBpleClnEuB_15flyby_simulator3nicINtB4_10VirtualNicNtNtB6_6events13NullEventSinkE4emitB6_
FNDA:0,_RNvMs_NtCsgBpleClnEuB_15flyby_simulator3nicINtB4_10VirtualNicNtNtB6_6events13NullEventSinkE4nameB6_
FNDA:0,_RNvMs_NtCsgBpleClnEuB_15flyby_simulator3nicINtB4_10VirtualNicNtNtB6_6events13NullEventSinkE9set_faultB6_
FNDA:10,_RNvXs0_NtCsgBpleClnEuB_15flyby_simulator3nicINtB5_10VirtualNicNtNtB7_6events12VecEventSinkENtNtCscf8MsWp3cCb_10flyby_core9lifecycle9Lifecycle4initB7_
FNDA:1,_RNvXs0_NtCsgBpleClnEuB_15flyby_simulator3nicINtB5_10VirtualNicNtNtB7_6events12VecEventSinkENtNtCscf8MsWp3cCb_10flyby_core9lifecycle9Lifecycle8shutdownB7_
FNDA:10,_RNvXs0_NtCsgBpleClnEuB_15flyby_simulator3nicINtB5_10VirtualNicNtNtB7_6events13NullEventSinkENtNtCscf8MsWp3cCb_10flyby_core9lifecycle9Lifecycle4initB7_
FNDA:7,_RNvXs0_NtCsgBpleClnEuB_15flyby_simulator3nicINtB5_10VirtualNicNtNtB7_6events13NullEventSinkENtNtCscf8MsWp3cCb_10flyby_core9lifecycle9Lifecycle8shutdownB7_
FNDA:8,_RNvXs1_NtCsgBpleClnEuB_15flyby_simulator3nicINtB5_10VirtualNicNtNtB7_6events12VecEventSinkENtNtCslaj7P7CWVfX_9flyby_net6source13NetworkSource10poll_batchB7_
FNDA:1032,_RNvXs1_NtCsgBpleClnEuB_15flyby_simulator3nicINtB5_10VirtualNicNtNtB7_6events13NullEventSinkENtNtCslaj7P7CWVfX_9flyby_net6source13NetworkSource10poll_batchB7_
FNDA:1,_RNvXs1_NtCsgBpleClnEuB_15flyby_simulator3nicINtB5_10VirtualNicNtNtB7_6events13NullEventSinkENtNtCslaj7P7CWVfX_9flyby_net6source13NetworkSource12backend_nameB7_
FNDA:9,_RNCNvNtNtCsgBpleClnEuB_15flyby_simulator3nic5testss_28corrupt_rate_mutates_payload0B7_
FNDA:5,_RNCNvNtNtCsgBpleClnEuB_15flyby_simulator3nic5testss_40clean_nic_emits_packets_generated_events0B7_
FNDA:5,_RNvNtNtCsgBpleClnEuB_15flyby_simulator3nic5tests8make_nic
FNDA:1,_RNvNtNtCsgBpleClnEuB_15flyby_simulator3nic5testss_25latency_spike_accumulates
FNDA:1,_RNvNtNtCsgBpleClnEuB_15flyby_simulator3nic5testss_27backend_name_is_virtual_nic
FNDA:1,_RNvNtNtCsgBpleClnEuB_15flyby_simulator3nic5testss_28corrupt_rate_mutates_payload
FNDA:1,_RNvNtNtCsgBpleClnEuB_15flyby_simulator3nic5testss_31poll_without_init_returns_error
FNDA:1,_RNvNtNtCsgBpleClnEuB_15flyby_simulator3nic5testss_31protocol_quote_payload_in_frame
FNDA:1,_RNvNtNtCsgBpleClnEuB_15flyby_simulator3nic5testss_34pacing_zero_intended_returns_empty
FNDA:1,_RNvNtNtCsgBpleClnEuB_15flyby_simulator3nic5testss_36shutdown_then_reinit_resets_counters
FNDA:1,_RNvNtNtCsgBpleClnEuB_15flyby_simulator3nic5testss_40clean_nic_emits_packets_generated_events
FNDA:1,_RNvNtNtCsgBpleClnEuB_15flyby_simulator3nic5testss_45full_drop_rate_removes_all_packets_from_batch
FNDA:14,_RNvXNtCs6vtiqiiMncD_15flyby_simulator3nicNtB2_16VirtualNicConfigNtNtCsl8K0bEFm1U0_4core7default7Default7default
FNF:26
FNH:26
DA:51,31
DA:52,31
DA:53,31
DA:54,31
DA:55,31
DA:56,31
DA:57,31
DA:58,31
DA:59,31
DA:89,36
DA:90,36
DA:91,36
DA:94,37
DA:95,37
DA:96,37
DA:97,37
DA:98,37
DA:99,37
DA:100,37
DA:101,37
DA:102,37
DA:103,37
DA:104,37
DA:105,37
DA:106,37
DA:107,37
DA:108,37
DA:109,37
DA:110,37
DA:111,37
DA:112,37
DA:113,37
DA:114,37
DA:115,37
DA:116,37
DA:117,37
DA:118,37
DA:119,37
DA:122,12
DA:123,12
DA:124,12
DA:127,17104
DA:128,17104
DA:129,17104
DA:130,17104
DA:133,17099
DA:134,17099
DA:135,17099
DA:136,17099
DA:137,17099
DA:140,1
DA:141,1
DA:142,1
DA:143,1
DA:144,1
DA:145,1
DA:146,1
DA:149,11
DA:150,11
DA:151,11
DA:152,11
DA:154,468829
DA:155,468829
DA:156,468829
DA:157,468829
DA:158,468829
DA:159,468829
DA:161,17104
DA:162,17104
DA:163,17104
DA:164,17104
DA:165,17104
DA:166,17104
DA:170,37
DA:171,37
DA:172,37
DA:173,37
DA:174,37
DA:175,37
DA:176,37
DA:177,37
DA:178,37
DA:179,37
DA:180,37
DA:181,37
DA:182,37
DA:183,37
DA:184,37
DA:185,37
DA:186,37
DA:188,25
DA:189,25
DA:190,25
DA:191,25
DA:195,17105
DA:196,17105
DA:197,1
DA:198,1
DA:199,1
DA:200,1
DA:201,1
DA:202,1
DA:203,1
DA:204,17104
DA:206,17104
DA:207,17104
DA:208,17104
DA:209,17104
DA:210,13
DA:211,17091
DA:213,17091
DA:214,17091
DA:215,17091
DA:216,17091
DA:218,468779
DA:219,468779
DA:220,0
DA:221,468779
DA:223,468779
DA:224,468779
DA:226,468779
DA:227,12897
DA:228,12897
DA:229,12897
DA:230,12897
DA:231,12897
DA:232,12897
DA:233,455882
DA:235,455882
DA:236,455882
DA:237,455882
DA:238,455882
DA:239,455882
DA:241,455882
DA:243,13
DA:244,13
DA:245,13
DA:246,0
DA:247,0
DA:248,13
DA:249,13
DA:250,13
DA:251,13
DA:252,455869
DA:254,455882
DA:255,455882
DA:256,2
DA:257,455880
DA:259,455882
DA:260,455882
DA:261,455882
DA:262,455882
DA:263,455882
DA:265,455882
DA:266,455882
DA:267,455882
DA:268,455882
DA:269,455882
DA:270,455882
DA:271,455882
DA:272,455882
DA:273,455882
DA:274,455882
DA:276,0
DA:277,0
DA:278,0
DA:279,0
DA:280,0
DA:281,0
DA:282,0
DA:287,17091
DA:288,17080
DA:289,17080
DA:290,17080
DA:291,17080
DA:292,17080
DA:294,17091
DA:295,17105
DA:297,1
DA:298,1
DA:299,1
DA:309,5
DA:310,5
DA:311,5
DA:312,5
DA:313,5
DA:314,5
DA:315,5
DA:316,5
DA:317,5
DA:318,5
DA:319,5
DA:320,5
DA:321,5
DA:324,1
DA:325,1
DA:326,1
DA:327,1
DA:328,1
DA:331,1
DA:332,1
DA:333,1
DA:334,1
DA:335,1
DA:336,1
DA:337,1
DA:338,1
DA:339,1
DA:340,1
DA:341,1
DA:342,1
DA:343,1
DA:344,1
DA:345,1
DA:347,1
DA:348,1
DA:349,1
DA:350,1
DA:352,1
DA:353,1
DA:354,1
DA:355,5
DA:356,1
DA:357,1
DA:358,1
DA:361,1
DA:362,1
DA:363,1
DA:364,1
DA:365,1
DA:366,1
DA:367,1
DA:368,1
DA:369,1
DA:370,1
DA:371,1
DA:372,1
DA:373,1
DA:375,1
DA:376,1
DA:377,1
DA:378,1
DA:379,1
DA:380,1
DA:381,1
DA:384,1
DA:385,1
DA:386,1
DA:387,1
DA:388,1
DA:389,1
DA:390,1
DA:391,1
DA:392,1
DA:393,1
DA:394,1
DA:395,1
DA:396,1
DA:397,1
DA:398,1
DA:399,1
DA:400,1
DA:401,1
DA:403,1
DA:404,1
DA:405,1
DA:407,1
DA:408,1
DA:409,1
DA:410,9
DA:411,1
DA:412,1
DA:413,1
DA:416,1
DA:417,1
DA:418,1
DA:419,1
DA:420,1
DA:421,1
DA:422,1
DA:423,1
DA:424,1
DA:425,1
DA:426,1
DA:427,1
DA:428,1
DA:429,1
DA:430,1
DA:431,1
DA:432,1
DA:433,1
DA:434,1
DA:437,1
DA:438,1
DA:439,1
DA:440,1
DA:441,1
DA:442,1
DA:443,1
DA:444,1
DA:445,1
DA:446,1
DA:447,1
DA:448,1
DA:449,1
DA:450,1
DA:451,1
DA:454,1
DA:455,1
DA:456,1
DA:457,1
DA:458,1
DA:459,1
DA:460,1
DA:461,1
DA:462,1
DA:463,1
DA:464,1
DA:465,1
DA:466,1
DA:467,1
DA:468,1
DA:469,1
DA:470,1
DA:471,1
DA:472,1
DA:475,1
DA:476,1
DA:477,1
DA:478,1
DA:479,1
DA:480,1
DA:483,1
DA:484,1
DA:485,1
DA:486,1
DA:487,1
DA:488,1
DA:489,1
DA:490,1
DA:491,1
DA:492,1
DA:493,1
DA:494,1
DA:495,1
DA:497,1
DA:498,1
DA:499,1
DA:500,1
BRF:0
BRH:0
LF:351
LH:341
end_of_record
SF:/Users/thanos/work/flyby/simulator/src/pcap.rs
FN:65,_RNvNtCs6vtiqiiMncD_15flyby_simulator4pcap10parse_pcap
FN:180,_RNvNtCs6vtiqiiMncD_15flyby_simulator4pcap16write_pcap_bytes
FN:152,_RNvNtCs6vtiqiiMncD_15flyby_simulator4pcap19write_pcap_bytes_ex
FN:48,_RNvXNtCs6vtiqiiMncD_15flyby_simulator4pcapNtB2_10PcapConfigNtNtCsl8K0bEFm1U0_4core7default7Default7default
FN:445,_RNCNvNtCs6vtiqiiMncD_15flyby_simulator4pcap9__read_all0B5_
FN:290,_RNvMs_NtCs6vtiqiiMncD_15flyby_simulator4pcapINtB4_10PcapSourcepE12pause_replayB6_
FN:295,_RNvMs_NtCs6vtiqiiMncD_15flyby_simulator4pcapINtB4_10PcapSourcepE13resume_replayB6_
FN:285,_RNvMs_NtCs6vtiqiiMncD_15flyby_simulator4pcapINtB4_10PcapSourcepE14advance_replayB6_
FN:253,_RNvMs_NtCs6vtiqiiMncD_15flyby_simulator4pcapINtB4_10PcapSourcepE3lenB6_
FN:258,_RNvMs_NtCs6vtiqiiMncD_15flyby_simulator4pcapINtB4_10PcapSourcepE8is_emptyB6_
FN:442,_RNvNtCs6vtiqiiMncD_15flyby_simulator4pcap9__read_all
FN:434,_RNvXININtCs6vtiqiiMncD_15flyby_simulator4pcaps1_0pEINtB5_10PcapSourcepENtNtCslaj7P7CWVfX_9flyby_net6source13NetworkSource12backend_nameB7_
FN:242,_RINvMs_NtCs6vtiqiiMncD_15flyby_simulator4pcapINtB5_10PcapSourceNtNtB7_6events12VecEventSinkE9from_pathRNtNtCsg55jX0GwzBC_3std4path7PathBufEB7_
FN:242,_RINvMs_NtCs6vtiqiiMncD_15flyby_simulator4pcapINtB5_10PcapSourceNtNtB7_6events13NullEventSinkE9from_pathRNtNtCsg55jX0GwzBC_3std4path7PathBufEB7_
FN:141,_RINvNtCs6vtiqiiMncD_15flyby_simulator4pcap9load_pcapRNtNtCsg55jX0GwzBC_3std4path7PathBufEB4_
FN:142,_RNCINvNtCs6vtiqiiMncD_15flyby_simulator4pcap9load_pcapRNtNtCsg55jX0GwzBC_3std4path7PathBufE0B6_
FN:87,_RNCNvNtCs6vtiqiiMncD_15flyby_simulator4pcap10parse_pcap0B5_
FN:91,_RNCNvNtCs6vtiqiiMncD_15flyby_simulator4pcap10parse_pcaps_0B5_
FN:344,_RNCNvXs1_NtCs6vtiqiiMncD_15flyby_simulator4pcapINtB7_10PcapSourceNtNtB9_6events12VecEventSinkENtNtCslaj7P7CWVfX_9flyby_net6source13NetworkSource10poll_batch0B9_
FN:344,_RNCNvXs1_NtCs6vtiqiiMncD_15flyby_simulator4pcapINtB7_10PcapSourceNtNtB9_6events13NullEventSinkENtNtCslaj7P7CWVfX_9flyby_net6source13NetworkSource10poll_batch0B9_
FN:276,_RNvMs_NtCs6vtiqiiMncD_15flyby_simulator4pcapINtB4_10PcapSourceNtNtB6_6events12VecEventSinkE11set_trafficB6_
FN:214,_RNvMs_NtCs6vtiqiiMncD_15flyby_simulator4pcapINtB4_10PcapSourceNtNtB6_6events12VecEventSinkE12with_metricsB6_
FN:269,_RNvMs_NtCs6vtiqiiMncD_15flyby_simulator4pcapINtB4_10PcapSourceNtNtB6_6events12VecEventSinkE13take_spike_nsB6_
FN:263,_RNvMs_NtCs6vtiqiiMncD_15flyby_simulator4pcapINtB4_10PcapSourceNtNtB6_6events12VecEventSinkE16set_tick_contextB6_
FN:209,_RNvMs_NtCs6vtiqiiMncD_15flyby_simulator4pcapINtB4_10PcapSourceNtNtB6_6events12VecEventSinkE3newB6_
FN:299,_RNvMs_NtCs6vtiqiiMncD_15flyby_simulator4pcapINtB4_10PcapSourceNtNtB6_6events12VecEventSinkE4emitB6_
FN:248,_RNvMs_NtCs6vtiqiiMncD_15flyby_simulator4pcapINtB4_10PcapSourceNtNtB6_6events12VecEventSinkE4nameB6_
FN:279,_RNvMs_NtCs6vtiqiiMncD_15flyby_simulator4pcapINtB4_10PcapSourceNtNtB6_6events12VecEventSinkE9set_faultB6_
FN:276,_RNvMs_NtCs6vtiqiiMncD_15flyby_simulator4pcapINtB4_10PcapSourceNtNtB6_6events13NullEventSinkE11set_trafficB6_
FN:214,_RNvMs_NtCs6vtiqiiMncD_15flyby_simulator4pcapINtB4_10PcapSourceNtNtB6_6events13NullEventSinkE12with_metricsB6_
FN:269,_RNvMs_NtCs6vtiqiiMncD_15flyby_simulator4pcapINtB4_10PcapSourceNtNtB6_6events13NullEventSinkE13take_spike_nsB6_
FN:263,_RNvMs_NtCs6vtiqiiMncD_15flyby_simulator4pcapINtB4_10PcapSourceNtNtB6_6events13NullEventSinkE16set_tick_contextB6_
FN:209,_RNvMs_NtCs6vtiqiiMncD_15flyby_simulator4pcapINtB4_10PcapSourceNtNtB6_6events13NullEventSinkE3newB6_
FN:299,_RNvMs_NtCs6vtiqiiMncD_15flyby_simulator4pcapINtB4_10PcapSourceNtNtB6_6events13NullEventSinkE4emitB6_
FN:248,_RNvMs_NtCs6vtiqiiMncD_15flyby_simulator4pcapINtB4_10PcapSourceNtNtB6_6events13NullEventSinkE4nameB6_
FN:279,_RNvMs_NtCs6vtiqiiMncD_15flyby_simulator4pcapINtB4_10PcapSourceNtNtB6_6events13NullEventSinkE9set_faultB6_
FN:308,_RNvXs0_NtCs6vtiqiiMncD_15flyby_simulator4pcapINtB5_10PcapSourceNtNtB7_6events12VecEventSinkENtNtCscf8MsWp3cCb_10flyby_core9lifecycle9Lifecycle4initB7_
FN:323,_RNvXs0_NtCs6vtiqiiMncD_15flyby_simulator4pcapINtB5_10PcapSourceNtNtB7_6events12VecEventSinkENtNtCscf8MsWp3cCb_10flyby_core9lifecycle9Lifecycle8shutdownB7_
FN:308,_RNvXs0_NtCs6vtiqiiMncD_15flyby_simulator4pcapINtB5_10PcapSourceNtNtB7_6events13NullEventSinkENtNtCscf8MsWp3cCb_10flyby_core9lifecycle9Lifecycle4initB7_
FN:323,_RNvXs0_NtCs6vtiqiiMncD_15flyby_simulator4pcapINtB5_10PcapSourceNtNtB7_6events13NullEventSinkENtNtCscf8MsWp3cCb_10flyby_core9lifecycle9Lifecycle8shutdownB7_
FN:330,_RNvXs1_NtCs6vtiqiiMncD_15flyby_simulator4pcapINtB5_10PcapSourceNtNtB7_6events12VecEventSinkENtNtCslaj7P7CWVfX_9flyby_net6source13NetworkSource10poll_batchB7_
FN:330,_RNvXs1_NtCs6vtiqiiMncD_15flyby_simulator4pcapINtB5_10PcapSourceNtNtB7_6events13NullEventSinkENtNtCslaj7P7CWVfX_9flyby_net6source13NetworkSource10poll_batchB7_
FN:242,_RINvMs_NtCs6vtiqiiMncD_15flyby_simulator4pcapINtB5_10PcapSourceNtNtB7_6events13NullEventSinkE9from_pathRNtNtCs1OjIl8oxbrv_5alloc6string6StringECsgMOyHKgvxbf_9flyby_sim
FN:141,_RINvNtCs6vtiqiiMncD_15flyby_simulator4pcap9load_pcapRNtNtCs1OjIl8oxbrv_5alloc6string6StringECsgMOyHKgvxbf_9flyby_sim
FN:142,_RNCINvNtCs6vtiqiiMncD_15flyby_simulator4pcap9load_pcapRNtNtCs1OjIl8oxbrv_5alloc6string6StringE0CsgMOyHKgvxbf_9flyby_sim
FN:253,_RNvMs_NtCs6vtiqiiMncD_15flyby_simulator4pcapINtB4_10PcapSourceNtNtB6_6events13NullEventSinkE3lenCsgMOyHKgvxbf_9flyby_sim
FN:242,_RINvMs_NtCsgBpleClnEuB_15flyby_simulator4pcapINtB5_10PcapSourceNtNtB7_6events12VecEventSinkE9from_pathRNtNtCsg55jX0GwzBC_3std4path7PathBufEB7_
FN:141,_RINvNtCsgBpleClnEuB_15flyby_simulator4pcap9load_pcapRNtNtCsg55jX0GwzBC_3std4path4PathEB4_
FN:141,_RINvNtCsgBpleClnEuB_15flyby_simulator4pcap9load_pcapRNtNtCsg55jX0GwzBC_3std4path7PathBufEB4_
FN:142,_RNCINvNtCsgBpleClnEuB_15flyby_simulator4pcap9load_pcapRNtNtCsg55jX0GwzBC_3std4path4PathE0B6_
FN:142,_RNCINvNtCsgBpleClnEuB_15flyby_simulator4pcap9load_pcapRNtNtCsg55jX0GwzBC_3std4path7PathBufE0B6_
FN:87,_RNCNvNtCsgBpleClnEuB_15flyby_simulator4pcap10parse_pcap0B5_
FN:91,_RNCNvNtCsgBpleClnEuB_15flyby_simulator4pcap10parse_pcaps_0B5_
FN:445,_RNCNvNtCsgBpleClnEuB_15flyby_simulator4pcap9__read_all0B5_
FN:344,_RNCNvXs1_NtCsgBpleClnEuB_15flyby_simulator4pcapINtB7_10PcapSourceNtNtB9_6events12VecEventSinkENtNtCslaj7P7CWVfX_9flyby_net6source13NetworkSource10poll_batch0B9_
FN:344,_RNCNvXs1_NtCsgBpleClnEuB_15flyby_simulator4pcapINtB7_10PcapSourceNtNtB9_6events13NullEventSinkENtNtCslaj7P7CWVfX_9flyby_net6source13NetworkSource10poll_batch0B9_
FN:276,_RNvMs_NtCsgBpleClnEuB_15flyby_simulator4pcapINtB4_10PcapSourceNtNtB6_6events12VecEventSinkE11set_trafficB6_
FN:214,_RNvMs_NtCsgBpleClnEuB_15flyby_simulator4pcapINtB4_10PcapSourceNtNtB6_6events12VecEventSinkE12with_metricsB6_
FN:269,_RNvMs_NtCsgBpleClnEuB_15flyby_simulator4pcapINtB4_10PcapSourceNtNtB6_6events12VecEventSinkE13take_spike_nsB6_
FN:263,_RNvMs_NtCsgBpleClnEuB_15flyby_simulator4pcapINtB4_10PcapSourceNtNtB6_6events12VecEventSinkE16set_tick_contextB6_
FN:209,_RNvMs_NtCsgBpleClnEuB_15flyby_simulator4pcapINtB4_10PcapSourceNtNtB6_6events12VecEventSinkE3newB6_
FN:299,_RNvMs_NtCsgBpleClnEuB_15flyby_simulator4pcapINtB4_10PcapSourceNtNtB6_6events12VecEventSinkE4emitB6_
FN:248,_RNvMs_NtCsgBpleClnEuB_15flyby_simulator4pcapINtB4_10PcapSourceNtNtB6_6events12VecEventSinkE4nameB6_
FN:279,_RNvMs_NtCsgBpleClnEuB_15flyby_simulator4pcapINtB4_10PcapSourceNtNtB6_6events12VecEventSinkE9set_faultB6_
FN:214,_RNvMs_NtCsgBpleClnEuB_15flyby_simulator4pcapINtB4_10PcapSourceNtNtB6_6events13NullEventSinkE12with_metricsB6_
FN:263,_RNvMs_NtCsgBpleClnEuB_15flyby_simulator4pcapINtB4_10PcapSourceNtNtB6_6events13NullEventSinkE16set_tick_contextB6_
FN:209,_RNvMs_NtCsgBpleClnEuB_15flyby_simulator4pcapINtB4_10PcapSourceNtNtB6_6events13NullEventSinkE3newB6_
FN:299,_RNvMs_NtCsgBpleClnEuB_15flyby_simulator4pcapINtB4_10PcapSourceNtNtB6_6events13NullEventSinkE4emitB6_
FN:308,_RNvXs0_NtCsgBpleClnEuB_15flyby_simulator4pcapINtB5_10PcapSourceNtNtB7_6events12VecEventSinkENtNtCscf8MsWp3cCb_10flyby_core9lifecycle9Lifecycle4initB7_
FN:323,_RNvXs0_NtCsgBpleClnEuB_15flyby_simulator4pcapINtB5_10PcapSourceNtNtB7_6events12VecEventSinkENtNtCscf8MsWp3cCb_10flyby_core9lifecycle9Lifecycle8shutdownB7_
FN:308,_RNvXs0_NtCsgBpleClnEuB_15flyby_simulator4pcapINtB5_10PcapSourceNtNtB7_6events13NullEventSinkENtNtCscf8MsWp3cCb_10flyby_core9lifecycle9Lifecycle4initB7_
FN:330,_RNvXs1_NtCsgBpleClnEuB_15flyby_simulator4pcapINtB5_10PcapSourceNtNtB7_6events12VecEventSinkENtNtCslaj7P7CWVfX_9flyby_net6source13NetworkSource10poll_batchB7_
FN:330,_RNvXs1_NtCsgBpleClnEuB_15flyby_simulator4pcapINtB5_10PcapSourceNtNtB7_6events13NullEventSinkENtNtCslaj7P7CWVfX_9flyby_net6source13NetworkSource10poll_batchB7_
FN:457,_RNvNtNtCsgBpleClnEuB_15flyby_simulator4pcap5tests14sample_capture
FN:466,_RNvNtNtCsgBpleClnEuB_15flyby_simulator4pcap5testss_15parse_roundtrip
FN:535,_RNvNtNtCsgBpleClnEuB_15flyby_simulator4pcap5testss_17rejects_bad_magic
FN:476,_RNvNtNtCsgBpleClnEuB_15flyby_simulator4pcap5testss_18load_from_tempfile
FN:541,_RNvNtNtCsgBpleClnEuB_15flyby_simulator4pcap5testss_19cursor_helper_reads
FN:486,_RNvNtNtCsgBpleClnEuB_15flyby_simulator4pcap5testss_23full_speed_delivers_all
FN:507,_RNvNtNtCsgBpleClnEuB_15flyby_simulator4pcap5testss_31original_timing_waits_for_clock
FN:65,_RNvNtCsgBpleClnEuB_15flyby_simulator4pcap10parse_pcap
FN:180,_RNvNtCsgBpleClnEuB_15flyby_simulator4pcap16write_pcap_bytes
FN:152,_RNvNtCsgBpleClnEuB_15flyby_simulator4pcap19write_pcap_bytes_ex
FN:442,_RNvNtCsgBpleClnEuB_15flyby_simulator4pcap9__read_all
FN:48,_RNvXNtCsgBpleClnEuB_15flyby_simulator4pcapNtB2_10PcapConfigNtNtCsl8K0bEFm1U0_4core7default7Default7default
FN:290,_RNvMs_NtCsgBpleClnEuB_15flyby_simulator4pcapINtB4_10PcapSourcepE12pause_replayB6_
FN:295,_RNvMs_NtCsgBpleClnEuB_15flyby_simulator4pcapINtB4_10PcapSourcepE13resume_replayB6_
FN:285,_RNvMs_NtCsgBpleClnEuB_15flyby_simulator4pcapINtB4_10PcapSourcepE14advance_replayB6_
FN:253,_RNvMs_NtCsgBpleClnEuB_15flyby_simulator4pcapINtB4_10PcapSourcepE3lenB6_
FN:258,_RNvMs_NtCsgBpleClnEuB_15flyby_simulator4pcapINtB4_10PcapSourcepE8is_emptyB6_
FN:434,_RNvXININtCsgBpleClnEuB_15flyby_simulator4pcaps1_0pEINtB5_10PcapSourcepENtNtCslaj7P7CWVfX_9flyby_net6source13NetworkSource12backend_nameB7_
FN:141,_RINvNtCs6vtiqiiMncD_15flyby_simulator4pcap9load_pcapReECshkIP76xL6qM_9scenarios
FN:142,_RNCINvNtCs6vtiqiiMncD_15flyby_simulator4pcap9load_pcapReE0CshkIP76xL6qM_9scenarios
FNDA:5,_RNvNtCs6vtiqiiMncD_15flyby_simulator4pcap10parse_pcap
FNDA:1,_RNvNtCs6vtiqiiMncD_15flyby_simulator4pcap16write_pcap_bytes
FNDA:1,_RNvNtCs6vtiqiiMncD_15flyby_simulator4pcap19write_pcap_bytes_ex
FNDA:1,_RNvXNtCs6vtiqiiMncD_15flyby_simulator4pcapNtB2_10PcapConfigNtNtCsl8K0bEFm1U0_4core7default7Default7default
FNDA:0,_RNCNvNtCs6vtiqiiMncD_15flyby_simulator4pcap9__read_all0B5_
FNDA:0,_RNvMs_NtCs6vtiqiiMncD_15flyby_simulator4pcapINtB4_10PcapSourcepE12pause_replayB6_
FNDA:0,_RNvMs_NtCs6vtiqiiMncD_15flyby_simulator4pcapINtB4_10PcapSourcepE13resume_replayB6_
FNDA:0,_RNvMs_NtCs6vtiqiiMncD_15flyby_simulator4pcapINtB4_10PcapSourcepE14advance_replayB6_
FNDA:0,_RNvMs_NtCs6vtiqiiMncD_15flyby_simulator4pcapINtB4_10PcapSourcepE3lenB6_
FNDA:0,_RNvMs_NtCs6vtiqiiMncD_15flyby_simulator4pcapINtB4_10PcapSourcepE8is_emptyB6_
FNDA:0,_RNvNtCs6vtiqiiMncD_15flyby_simulator4pcap9__read_all
FNDA:0,_RNvXININtCs6vtiqiiMncD_15flyby_simulator4pcaps1_0pEINtB5_10PcapSourcepENtNtCslaj7P7CWVfX_9flyby_net6source13NetworkSource12backend_nameB7_
FNDA:0,_RINvMs_NtCs6vtiqiiMncD_15flyby_simulator4pcapINtB5_10PcapSourceNtNtB7_6events12VecEventSinkE9from_pathRNtNtCsg55jX0GwzBC_3std4path7PathBufEB7_
FNDA:0,_RINvMs_NtCs6vtiqiiMncD_15flyby_simulator4pcapINtB5_10PcapSourceNtNtB7_6events13NullEventSinkE9from_pathRNtNtCsg55jX0GwzBC_3std4path7PathBufEB7_
FNDA:0,_RINvNtCs6vtiqiiMncD_15flyby_simulator4pcap9load_pcapRNtNtCsg55jX0GwzBC_3std4path7PathBufEB4_
FNDA:0,_RNCINvNtCs6vtiqiiMncD_15flyby_simulator4pcap9load_pcapRNtNtCsg55jX0GwzBC_3std4path7PathBufE0B6_
FNDA:10,_RNCNvNtCs6vtiqiiMncD_15flyby_simulator4pcap10parse_pcap0B5_
FNDA:136,_RNCNvNtCs6vtiqiiMncD_15flyby_simulator4pcap10parse_pcaps_0B5_
FNDA:0,_RNCNvXs1_NtCs6vtiqiiMncD_15flyby_simulator4pcapINtB7_10PcapSourceNtNtB9_6events12VecEventSinkENtNtCslaj7P7CWVfX_9flyby_net6source13NetworkSource10poll_batch0B9_
FNDA:30,_RNCNvXs1_NtCs6vtiqiiMncD_15flyby_simulator4pcapINtB7_10PcapSourceNtNtB9_6events13NullEventSinkENtNtCslaj7P7CWVfX_9flyby_net6source13NetworkSource10poll_batch0B9_
FNDA:0,_RNvMs_NtCs6vtiqiiMncD_15flyby_simulator4pcapINtB4_10PcapSourceNtNtB6_6events12VecEventSinkE11set_trafficB6_
FNDA:0,_RNvMs_NtCs6vtiqiiMncD_15flyby_simulator4pcapINtB4_10PcapSourceNtNtB6_6events12VecEventSinkE12with_metricsB6_
FNDA:0,_RNvMs_NtCs6vtiqiiMncD_15flyby_simulator4pcapINtB4_10PcapSourceNtNtB6_6events12VecEventSinkE13take_spike_nsB6_
FNDA:0,_RNvMs_NtCs6vtiqiiMncD_15flyby_simulator4pcapINtB4_10PcapSourceNtNtB6_6events12VecEventSinkE16set_tick_contextB6_
FNDA:0,_RNvMs_NtCs6vtiqiiMncD_15flyby_simulator4pcapINtB4_10PcapSourceNtNtB6_6events12VecEventSinkE3newB6_
FNDA:0,_RNvMs_NtCs6vtiqiiMncD_15flyby_simulator4pcapINtB4_10PcapSourceNtNtB6_6events12VecEventSinkE4emitB6_
FNDA:0,_RNvMs_NtCs6vtiqiiMncD_15flyby_simulator4pcapINtB4_10PcapSourceNtNtB6_6events12VecEventSinkE4nameB6_
FNDA:0,_RNvMs_NtCs6vtiqiiMncD_15flyby_simulator4pcapINtB4_10PcapSourceNtNtB6_6events12VecEventSinkE9set_faultB6_
FNDA:0,_RNvMs_NtCs6vtiqiiMncD_15flyby_simulator4pcapINtB4_10PcapSourceNtNtB6_6events13NullEventSinkE11set_trafficB6_
FNDA:1,_RNvMs_NtCs6vtiqiiMncD_15flyby_simulator4pcapINtB4_10PcapSourceNtNtB6_6events13NullEventSinkE12with_metricsB6_
FNDA:10,_RNvMs_NtCs6vtiqiiMncD_15flyby_simulator4pcapINtB4_10PcapSourceNtNtB6_6events13NullEventSinkE13take_spike_nsB6_
FNDA:10,_RNvMs_NtCs6vtiqiiMncD_15flyby_simulator4pcapINtB4_10PcapSourceNtNtB6_6events13NullEventSinkE16set_tick_contextB6_
FNDA:1,_RNvMs_NtCs6vtiqiiMncD_15flyby_simulator4pcapINtB4_10PcapSourceNtNtB6_6events13NullEventSinkE3newB6_
FNDA:4,_RNvMs_NtCs6vtiqiiMncD_15flyby_simulator4pcapINtB4_10PcapSourceNtNtB6_6events13NullEventSinkE4emitB6_
FNDA:0,_RNvMs_NtCs6vtiqiiMncD_15flyby_simulator4pcapINtB4_10PcapSourceNtNtB6_6events13NullEventSinkE4nameB6_
FNDA:0,_RNvMs_NtCs6vtiqiiMncD_15flyby_simulator4pcapINtB4_10PcapSourceNtNtB6_6events13NullEventSinkE9set_faultB6_
FNDA:0,_RNvXs0_NtCs6vtiqiiMncD_15flyby_simulator4pcapINtB5_10PcapSourceNtNtB7_6events12VecEventSinkENtNtCscf8MsWp3cCb_10flyby_core9lifecycle9Lifecycle4initB7_
FNDA:0,_RNvXs0_NtCs6vtiqiiMncD_15flyby_simulator4pcapINtB5_10PcapSourceNtNtB7_6events12VecEventSinkENtNtCscf8MsWp3cCb_10flyby_core9lifecycle9Lifecycle8shutdownB7_
FNDA:1,_RNvXs0_NtCs6vtiqiiMncD_15flyby_simulator4pcapINtB5_10PcapSourceNtNtB7_6events13NullEventSinkENtNtCscf8MsWp3cCb_10flyby_core9lifecycle9Lifecycle4initB7_
FNDA:1,_RNvXs0_NtCs6vtiqiiMncD_15flyby_simulator4pcapINtB5_10PcapSourceNtNtB7_6events13NullEventSinkENtNtCscf8MsWp3cCb_10flyby_core9lifecycle9Lifecycle8shutdownB7_
FNDA:0,_RNvXs1_NtCs6vtiqiiMncD_15flyby_simulator4pcapINtB5_10PcapSourceNtNtB7_6events12VecEventSinkENtNtCslaj7P7CWVfX_9flyby_net6source13NetworkSource10poll_batchB7_
FNDA:10,_RNvXs1_NtCs6vtiqiiMncD_15flyby_simulator4pcapINtB5_10PcapSourceNtNtB7_6events13NullEventSinkENtNtCslaj7P7CWVfX_9flyby_net6source13NetworkSource10poll_batchB7_
FNDA:0,_RINvMs_NtCs6vtiqiiMncD_15flyby_simulator4pcapINtB5_10PcapSourceNtNtB7_6events13NullEventSinkE9from_pathRNtNtCs1OjIl8oxbrv_5alloc6string6StringECsgMOyHKgvxbf_9flyby_sim
FNDA:0,_RINvNtCs6vtiqiiMncD_15flyby_simulator4pcap9load_pcapRNtNtCs1OjIl8oxbrv_5alloc6string6StringECsgMOyHKgvxbf_9flyby_sim
FNDA:0,_RNCINvNtCs6vtiqiiMncD_15flyby_simulator4pcap9load_pcapRNtNtCs1OjIl8oxbrv_5alloc6string6StringE0CsgMOyHKgvxbf_9flyby_sim
FNDA:0,_RNvMs_NtCs6vtiqiiMncD_15flyby_simulator4pcapINtB4_10PcapSourceNtNtB6_6events13NullEventSinkE3lenCsgMOyHKgvxbf_9flyby_sim
FNDA:0,_RINvMs_NtCsgBpleClnEuB_15flyby_simulator4pcapINtB5_10PcapSourceNtNtB7_6events12VecEventSinkE9from_pathRNtNtCsg55jX0GwzBC_3std4path7PathBufEB7_
FNDA:1,_RINvNtCsgBpleClnEuB_15flyby_simulator4pcap9load_pcapRNtNtCsg55jX0GwzBC_3std4path4PathEB4_
FNDA:0,_RINvNtCsgBpleClnEuB_15flyby_simulator4pcap9load_pcapRNtNtCsg55jX0GwzBC_3std4path7PathBufEB4_
FNDA:0,_RNCINvNtCsgBpleClnEuB_15flyby_simulator4pcap9load_pcapRNtNtCsg55jX0GwzBC_3std4path4PathE0B6_
FNDA:0,_RNCINvNtCsgBpleClnEuB_15flyby_simulator4pcap9load_pcapRNtNtCsg55jX0GwzBC_3std4path7PathBufE0B6_
FNDA:8,_RNCNvNtCsgBpleClnEuB_15flyby_simulator4pcap10parse_pcap0B5_
FNDA:64,_RNCNvNtCsgBpleClnEuB_15flyby_simulator4pcap10parse_pcaps_0B5_
FNDA:0,_RNCNvNtCsgBpleClnEuB_15flyby_simulator4pcap9__read_all0B5_
FNDA:9,_RNCNvXs1_NtCsgBpleClnEuB_15flyby_simulator4pcapINtB7_10PcapSourceNtNtB9_6events12VecEventSinkENtNtCslaj7P7CWVfX_9flyby_net6source13NetworkSource10poll_batch0B9_
FNDA:3,_RNCNvXs1_NtCsgBpleClnEuB_15flyby_simulator4pcapINtB7_10PcapSourceNtNtB9_6events13NullEventSinkENtNtCslaj7P7CWVfX_9flyby_net6source13NetworkSource10poll_batch0B9_
FNDA:0,_RNvMs_NtCsgBpleClnEuB_15flyby_simulator4pcapINtB4_10PcapSourceNtNtB6_6events12VecEventSinkE11set_trafficB6_
FNDA:1,_RNvMs_NtCsgBpleClnEuB_15flyby_simulator4pcapINtB4_10PcapSourceNtNtB6_6events12VecEventSinkE12with_metricsB6_
FNDA:0,_RNvMs_NtCsgBpleClnEuB_15flyby_simulator4pcapINtB4_10PcapSourceNtNtB6_6events12VecEventSinkE13take_spike_nsB6_
FNDA:3,_RNvMs_NtCsgBpleClnEuB_15flyby_simulator4pcapINtB4_10PcapSourceNtNtB6_6events12VecEventSinkE16set_tick_contextB6_
FNDA:1,_RNvMs_NtCsgBpleClnEuB_15flyby_simulator4pcapINtB4_10PcapSourceNtNtB6_6events12VecEventSinkE3newB6_
FNDA:3,_RNvMs_NtCsgBpleClnEuB_15flyby_simulator4pcapINtB4_10PcapSourceNtNtB6_6events12VecEventSinkE4emitB6_
FNDA:0,_RNvMs_NtCsgBpleClnEuB_15flyby_simulator4pcapINtB4_10PcapSourceNtNtB6_6events12VecEventSinkE4nameB6_
FNDA:0,_RNvMs_NtCsgBpleClnEuB_15flyby_simulator4pcapINtB4_10PcapSourceNtNtB6_6events12VecEventSinkE9set_faultB6_
FNDA:1,_RNvMs_NtCsgBpleClnEuB_15flyby_simulator4pcapINtB4_10PcapSourceNtNtB6_6events13NullEventSinkE12with_metricsB6_
FNDA:1,_RNvMs_NtCsgBpleClnEuB_15flyby_simulator4pcapINtB4_10PcapSourceNtNtB6_6events13NullEventSinkE16set_tick_contextB6_
FNDA:1,_RNvMs_NtCsgBpleClnEuB_15flyby_simulator4pcapINtB4_10PcapSourceNtNtB6_6events13NullEventSinkE3newB6_
FNDA:4,_RNvMs_NtCsgBpleClnEuB_15flyby_simulator4pcapINtB4_10PcapSourceNtNtB6_6events13NullEventSinkE4emitB6_
FNDA:1,_RNvXs0_NtCsgBpleClnEuB_15flyby_simulator4pcapINtB5_10PcapSourceNtNtB7_6events12VecEventSinkENtNtCscf8MsWp3cCb_10flyby_core9lifecycle9Lifecycle4initB7_
FNDA:0,_RNvXs0_NtCsgBpleClnEuB_15flyby_simulator4pcapINtB5_10PcapSourceNtNtB7_6events12VecEventSinkENtNtCscf8MsWp3cCb_10flyby_core9lifecycle9Lifecycle8shutdownB7_
FNDA:1,_RNvXs0_NtCsgBpleClnEuB_15flyby_simulator4pcapINtB5_10PcapSourceNtNtB7_6events13NullEventSinkENtNtCscf8MsWp3cCb_10flyby_core9lifecycle9Lifecycle4initB7_
FNDA:3,_RNvXs1_NtCsgBpleClnEuB_15flyby_simulator4pcapINtB5_10PcapSourceNtNtB7_6events12VecEventSinkENtNtCslaj7P7CWVfX_9flyby_net6source13NetworkSource10poll_batchB7_
FNDA:1,_RNvXs1_NtCsgBpleClnEuB_15flyby_simulator4pcapINtB5_10PcapSourceNtNtB7_6events13NullEventSinkENtNtCslaj7P7CWVfX_9flyby_net6source13NetworkSource10poll_batchB7_
FNDA:4,_RNvNtNtCsgBpleClnEuB_15flyby_simulator4pcap5tests14sample_capture
FNDA:1,_RNvNtNtCsgBpleClnEuB_15flyby_simulator4pcap5testss_15parse_roundtrip
FNDA:1,_RNvNtNtCsgBpleClnEuB_15flyby_simulator4pcap5testss_17rejects_bad_magic
FNDA:1,_RNvNtNtCsgBpleClnEuB_15flyby_simulator4pcap5testss_18load_from_tempfile
FNDA:1,_RNvNtNtCsgBpleClnEuB_15flyby_simulator4pcap5testss_19cursor_helper_reads
FNDA:1,_RNvNtNtCsgBpleClnEuB_15flyby_simulator4pcap5testss_23full_speed_delivers_all
FNDA:1,_RNvNtNtCsgBpleClnEuB_15flyby_simulator4pcap5testss_31original_timing_waits_for_clock
FNDA:5,_RNvNtCsgBpleClnEuB_15flyby_simulator4pcap10parse_pcap
FNDA:4,_RNvNtCsgBpleClnEuB_15flyby_simulator4pcap16write_pcap_bytes
FNDA:4,_RNvNtCsgBpleClnEuB_15flyby_simulator4pcap19write_pcap_bytes_ex
FNDA:1,_RNvNtCsgBpleClnEuB_15flyby_simulator4pcap9__read_all
FNDA:2,_RNvXNtCsgBpleClnEuB_15flyby_simulator4pcapNtB2_10PcapConfigNtNtCsl8K0bEFm1U0_4core7default7Default7default
FNDA:0,_RNvMs_NtCsgBpleClnEuB_15flyby_simulator4pcapINtB4_10PcapSourcepE12pause_replayB6_
FNDA:0,_RNvMs_NtCsgBpleClnEuB_15flyby_simulator4pcapINtB4_10PcapSourcepE13resume_replayB6_
FNDA:0,_RNvMs_NtCsgBpleClnEuB_15flyby_simulator4pcapINtB4_10PcapSourcepE14advance_replayB6_
FNDA:0,_RNvMs_NtCsgBpleClnEuB_15flyby_simulator4pcapINtB4_10PcapSourcepE3lenB6_
FNDA:0,_RNvMs_NtCsgBpleClnEuB_15flyby_simulator4pcapINtB4_10PcapSourcepE8is_emptyB6_
FNDA:0,_RNvXININtCsgBpleClnEuB_15flyby_simulator4pcaps1_0pEINtB5_10PcapSourcepENtNtCslaj7P7CWVfX_9flyby_net6source13NetworkSource12backend_nameB7_
FNDA:4,_RINvNtCs6vtiqiiMncD_15flyby_simulator4pcap9load_pcapReECshkIP76xL6qM_9scenarios
FNDA:0,_RNCINvNtCs6vtiqiiMncD_15flyby_simulator4pcap9load_pcapReE0CshkIP76xL6qM_9scenarios
FNF:36
FNH:24
DA:48,3
DA:49,3
DA:50,3
DA:51,3
DA:52,3
DA:53,3
DA:54,3
DA:55,3
DA:56,3
DA:65,10
DA:66,10
DA:67,0
DA:68,0
DA:69,0
DA:70,0
DA:71,10
DA:73,10
DA:74,10
DA:75,8
DA:76,0
DA:77,1
DA:78,0
DA:79,1
DA:80,1
DA:81,1
DA:82,1
DA:83,1
DA:87,18
DA:88,18
DA:89,18
DA:90,18
DA:91,200
DA:92,200
DA:93,200
DA:94,200
DA:96,9
DA:97,9
DA:98,9
DA:99,9
DA:100,9
DA:101,9
DA:103,9
DA:104,9
DA:105,50
DA:106,41
DA:107,41
DA:108,41
DA:109,41
DA:110,41
DA:112,41
DA:113,0
DA:114,0
DA:115,0
DA:116,0
DA:117,0
DA:118,0
DA:119,0
DA:120,41
DA:122,41
DA:123,3
DA:125,38
DA:126,38
DA:127,38
DA:130,41
DA:131,41
DA:132,41
DA:133,41
DA:134,41
DA:137,9
DA:138,10
DA:141,5
DA:142,5
DA:143,0
DA:144,0
DA:145,0
DA:147,0
DA:148,5
DA:149,5
DA:152,5
DA:153,5
DA:154,5
DA:155,5
DA:156,5
DA:157,5
DA:158,5
DA:159,5
DA:160,5
DA:161,5
DA:163,15
DA:164,15
DA:165,15
DA:166,0
DA:168,15
DA:170,15
DA:171,15
DA:172,15
DA:173,15
DA:174,15
DA:176,5
DA:177,5
DA:180,5
DA:181,5
DA:182,5
DA:209,3
DA:210,3
DA:211,3
DA:214,3
DA:215,3
DA:216,3
DA:217,3
DA:218,3
DA:219,3
DA:220,3
DA:221,3
DA:222,3
DA:223,3
DA:224,3
DA:225,3
DA:226,3
DA:227,3
DA:228,3
DA:229,3
DA:230,3
DA:231,3
DA:232,3
DA:233,3
DA:234,3
DA:235,3
DA:236,3
DA:237,3
DA:238,3
DA:239,3
DA:242,0
DA:243,0
DA:244,0
DA:245,0
DA:248,0
DA:249,0
DA:250,0
DA:253,0
DA:254,0
DA:255,0
DA:258,0
DA:259,0
DA:260,0
DA:263,14
DA:264,14
DA:265,14
DA:266,14
DA:269,10
DA:270,10
DA:271,10
DA:272,10
DA:273,10
DA:276,0
DA:279,0
DA:280,0
DA:281,0
DA:282,0
DA:285,0
DA:286,0
DA:287,0
DA:290,0
DA:291,0
DA:292,0
DA:295,0
DA:296,0
DA:297,0
DA:299,11
DA:300,11
DA:301,11
DA:302,11
DA:303,11
DA:304,11
DA:308,3
DA:309,3
DA:310,3
DA:311,3
DA:312,3
DA:313,3
DA:314,3
DA:315,3
DA:316,3
DA:317,3
DA:318,3
DA:319,3
DA:320,3
DA:321,3
DA:323,1
DA:324,1
DA:325,1
DA:326,1
DA:330,14
DA:331,14
DA:332,0
DA:333,0
DA:334,0
DA:335,0
DA:336,0
DA:337,0
DA:338,0
DA:339,14
DA:341,14
DA:342,14
DA:343,14
DA:344,42
DA:345,14
DA:346,14
DA:347,14
DA:348,14
DA:350,14
DA:351,0
DA:352,0
DA:353,14
DA:355,14
DA:356,14
DA:358,22
DA:359,22
DA:360,11
DA:361,0
DA:363,0
DA:365,11
DA:366,11
DA:368,11
DA:370,11
DA:371,11
DA:372,3
DA:373,8
DA:375,8
DA:376,8
DA:377,8
DA:378,8
DA:379,8
DA:381,8
DA:382,0
DA:383,0
DA:384,0
DA:385,0
DA:386,0
DA:387,0
DA:388,8
DA:390,8
DA:391,0
DA:392,0
DA:393,0
DA:394,0
DA:395,0
DA:396,8
DA:398,8
DA:399,8
DA:400,0
DA:401,8
DA:403,8
DA:404,8
DA:405,8
DA:406,8
DA:407,8
DA:408,8
DA:409,8
DA:410,8
DA:411,8
DA:412,8
DA:413,8
DA:414,8
DA:415,8
DA:416,8
DA:417,8
DA:418,8
DA:419,8
DA:420,8
DA:423,0
DA:424,0
DA:425,0
DA:430,14
DA:431,14
DA:432,14
DA:434,0
DA:435,0
DA:436,0
DA:442,1
DA:443,1
DA:444,1
DA:445,1
DA:446,1
DA:447,1
DA:457,4
DA:458,4
DA:459,4
DA:460,4
DA:461,4
DA:462,4
DA:463,4
DA:466,1
DA:467,1
DA:468,1
DA:469,1
DA:470,1
DA:471,1
DA:472,1
DA:473,1
DA:476,1
DA:477,1
DA:478,1
DA:479,1
DA:480,1
DA:481,1
DA:482,1
DA:483,1
DA:486,1
DA:487,1
DA:488,1
DA:489,1
DA:490,1
DA:491,1
DA:492,1
DA:493,1
DA:494,1
DA:495,1
DA:497,1
DA:498,1
DA:499,1
DA:500,1
DA:501,1
DA:502,1
DA:503,1
DA:504,1
DA:507,1
DA:508,1
DA:509,1
DA:510,1
DA:511,1
DA:512,1
DA:513,1
DA:514,1
DA:515,1
DA:516,1
DA:518,1
DA:519,1
DA:521,1
DA:522,1
DA:523,1
DA:525,1
DA:526,1
DA:527,1
DA:529,1
DA:530,1
DA:531,1
DA:532,1
DA:535,1
DA:536,1
DA:537,1
DA:538,1
DA:541,1
DA:542,1
DA:543,1
DA:544,1
BRF:0
BRH:0
LF:362
LH:282
end_of_record
SF:/Users/thanos/work/flyby/simulator/src/replay.rs
FN:132,_RNvMNtCs6vtiqiiMncD_15flyby_simulator6replayNtB2_9SimReplay11burst_ready
FN:110,_RNvMNtCs6vtiqiiMncD_15flyby_simulator6replayNtB2_9SimReplay12timing_ready
FN:38,_RNvMNtCs6vtiqiiMncD_15flyby_simulator6replayNtB2_9SimReplay3new
FN:51,_RNvMNtCs6vtiqiiMncD_15flyby_simulator6replayNtB2_9SimReplay4mode
FN:56,_RNvMNtCs6vtiqiiMncD_15flyby_simulator6replayNtB2_9SimReplay5pause
FN:61,_RNvMNtCs6vtiqiiMncD_15flyby_simulator6replayNtB2_9SimReplay6resume
FN:71,_RNvMNtCs6vtiqiiMncD_15flyby_simulator6replayNtB2_9SimReplay7advance
FN:79,_RNvMNtCs6vtiqiiMncD_15flyby_simulator6replayNtB2_9SimReplay8ready_at
FN:66,_RNvMNtCs6vtiqiiMncD_15flyby_simulator6replayNtB2_9SimReplay9is_paused
FN:132,_RNvMNtCsgBpleClnEuB_15flyby_simulator6replayNtB2_9SimReplay11burst_ready
FN:110,_RNvMNtCsgBpleClnEuB_15flyby_simulator6replayNtB2_9SimReplay12timing_ready
FN:38,_RNvMNtCsgBpleClnEuB_15flyby_simulator6replayNtB2_9SimReplay3new
FN:56,_RNvMNtCsgBpleClnEuB_15flyby_simulator6replayNtB2_9SimReplay5pause
FN:61,_RNvMNtCsgBpleClnEuB_15flyby_simulator6replayNtB2_9SimReplay6resume
FN:71,_RNvMNtCsgBpleClnEuB_15flyby_simulator6replayNtB2_9SimReplay7advance
FN:79,_RNvMNtCsgBpleClnEuB_15flyby_simulator6replayNtB2_9SimReplay8ready_at
FN:188,_RNvNtNtCsgBpleClnEuB_15flyby_simulator6replay5testss_21pause_blocks_emission
FN:170,_RNvNtNtCsgBpleClnEuB_15flyby_simulator6replay5testss_22time_scaled_slows_down
FN:155,_RNvNtNtCsgBpleClnEuB_15flyby_simulator6replay5testss_23full_speed_always_ready
FN:179,_RNvNtNtCsgBpleClnEuB_15flyby_simulator6replay5testss_28single_step_requires_advance
FN:197,_RNvNtNtCsgBpleClnEuB_15flyby_simulator6replay5testss_30burst_then_gap_in_virtual_time
FN:162,_RNvNtNtCsgBpleClnEuB_15flyby_simulator6replay5testss_31original_timing_waits_for_clock
FN:51,_RNvMNtCsgBpleClnEuB_15flyby_simulator6replayNtB2_9SimReplay4mode
FN:66,_RNvMNtCsgBpleClnEuB_15flyby_simulator6replayNtB2_9SimReplay9is_paused
FNDA:0,_RNvMNtCs6vtiqiiMncD_15flyby_simulator6replayNtB2_9SimReplay11burst_ready
FNDA:0,_RNvMNtCs6vtiqiiMncD_15flyby_simulator6replayNtB2_9SimReplay12timing_ready
FNDA:2,_RNvMNtCs6vtiqiiMncD_15flyby_simulator6replayNtB2_9SimReplay3new
FNDA:0,_RNvMNtCs6vtiqiiMncD_15flyby_simulator6replayNtB2_9SimReplay4mode
FNDA:0,_RNvMNtCs6vtiqiiMncD_15flyby_simulator6replayNtB2_9SimReplay5pause
FNDA:0,_RNvMNtCs6vtiqiiMncD_15flyby_simulator6replayNtB2_9SimReplay6resume
FNDA:0,_RNvMNtCs6vtiqiiMncD_15flyby_simulator6replayNtB2_9SimReplay7advance
FNDA:3,_RNvMNtCs6vtiqiiMncD_15flyby_simulator6replayNtB2_9SimReplay8ready_at
FNDA:0,_RNvMNtCs6vtiqiiMncD_15flyby_simulator6replayNtB2_9SimReplay9is_paused
FNDA:4,_RNvMNtCsgBpleClnEuB_15flyby_simulator6replayNtB2_9SimReplay11burst_ready
FNDA:11,_RNvMNtCsgBpleClnEuB_15flyby_simulator6replayNtB2_9SimReplay12timing_ready
FNDA:10,_RNvMNtCsgBpleClnEuB_15flyby_simulator6replayNtB2_9SimReplay3new
FNDA:1,_RNvMNtCsgBpleClnEuB_15flyby_simulator6replayNtB2_9SimReplay5pause
FNDA:1,_RNvMNtCsgBpleClnEuB_15flyby_simulator6replayNtB2_9SimReplay6resume
FNDA:1,_RNvMNtCsgBpleClnEuB_15flyby_simulator6replayNtB2_9SimReplay7advance
FNDA:25,_RNvMNtCsgBpleClnEuB_15flyby_simulator6replayNtB2_9SimReplay8ready_at
FNDA:1,_RNvNtNtCsgBpleClnEuB_15flyby_simulator6replay5testss_21pause_blocks_emission
FNDA:1,_RNvNtNtCsgBpleClnEuB_15flyby_simulator6replay5testss_22time_scaled_slows_down
FNDA:1,_RNvNtNtCsgBpleClnEuB_15flyby_simulator6replay5testss_23full_speed_always_ready
FNDA:1,_RNvNtNtCsgBpleClnEuB_15flyby_simulator6replay5testss_28single_step_requires_advance
FNDA:1,_RNvNtNtCsgBpleClnEuB_15flyby_simulator6replay5testss_30burst_then_gap_in_virtual_time
FNDA:1,_RNvNtNtCsgBpleClnEuB_15flyby_simulator6replay5testss_31original_timing_waits_for_clock
FNDA:0,_RNvMNtCsgBpleClnEuB_15flyby_simulator6replayNtB2_9SimReplay4mode
FNDA:0,_RNvMNtCsgBpleClnEuB_15flyby_simulator6replayNtB2_9SimReplay9is_paused
FNF:15
FNH:13
DA:38,12
DA:39,12
DA:40,12
DA:41,12
DA:42,12
DA:43,12
DA:44,12
DA:45,12
DA:46,12
DA:47,12
DA:48,12
DA:51,0
DA:52,0
DA:53,0
DA:56,1
DA:57,1
DA:58,1
DA:61,1
DA:62,1
DA:63,1
DA:66,0
DA:67,0
DA:68,0
DA:71,1
DA:72,1
DA:73,1
DA:74,1
DA:75,1
DA:79,28
DA:80,28
DA:81,1
DA:82,27
DA:84,27
DA:85,9
DA:88,3
DA:89,1
DA:90,2
DA:91,2
DA:92,2
DA:95,8
DA:97,3
DA:98,3
DA:99,3
DA:102,4
DA:103,4
DA:104,4
DA:105,4
DA:108,28
DA:110,11
DA:111,11
DA:112,11
DA:113,3
DA:114,8
DA:115,8
DA:116,8
DA:117,6
DA:119,2
DA:120,2
DA:121,0
DA:122,2
DA:123,2
DA:124,0
DA:126,2
DA:129,8
DA:130,11
DA:132,4
DA:133,4
DA:134,2
DA:135,1
DA:136,1
DA:137,1
DA:138,1
DA:139,2
DA:141,3
DA:142,3
DA:143,1
DA:144,1
DA:145,2
DA:146,3
DA:147,4
DA:155,1
DA:156,1
DA:157,1
DA:158,1
DA:159,1
DA:162,1
DA:163,1
DA:164,1
DA:165,1
DA:166,1
DA:167,1
DA:170,1
DA:171,1
DA:172,1
DA:174,1
DA:175,1
DA:176,1
DA:179,1
DA:180,1
DA:181,1
DA:182,1
DA:183,1
DA:184,1
DA:185,1
DA:188,1
DA:189,1
DA:190,1
DA:191,1
DA:192,1
DA:193,1
DA:194,1
DA:197,1
DA:198,1
DA:199,1
DA:200,1
DA:201,1
DA:202,1
DA:203,1
DA:204,1
DA:205,1
DA:206,1
DA:207,1
BRF:0
BRH:0
LF:122
LH:114
end_of_record
SF:/Users/thanos/work/flyby/simulator/src/ring.rs
FN:47,_RNCNvMNtCs6vtiqiiMncD_15flyby_simulator4ringNtB4_19VirtualSharedMemory3new0B6_
FN:70,_RNvMNtCs6vtiqiiMncD_15flyby_simulator4ringNtB2_19VirtualSharedMemory3len
FN:42,_RNvMNtCs6vtiqiiMncD_15flyby_simulator4ringNtB2_19VirtualSharedMemory3new
FN:60,_RNvMNtCs6vtiqiiMncD_15flyby_simulator4ringNtB2_19VirtualSharedMemory4name
FN:123,_RNvMNtCs6vtiqiiMncD_15flyby_simulator4ringNtB2_19VirtualSharedMemory4peek
FN:108,_RNvMNtCs6vtiqiiMncD_15flyby_simulator4ringNtB2_19VirtualSharedMemory7try_pop
FN:65,_RNvMNtCs6vtiqiiMncD_15flyby_simulator4ringNtB2_19VirtualSharedMemory8capacity
FN:75,_RNvMNtCs6vtiqiiMncD_15flyby_simulator4ringNtB2_19VirtualSharedMemory8is_empty
FN:87,_RNvMNtCs6vtiqiiMncD_15flyby_simulator4ringNtB2_19VirtualSharedMemory8try_push
FN:80,_RNvMNtCs6vtiqiiMncD_15flyby_simulator4ringNtB2_19VirtualSharedMemory9occupancy
FN:47,_RNCNvMNtCsgBpleClnEuB_15flyby_simulator4ringNtB4_19VirtualSharedMemory3new0B6_
FN:70,_RNvMNtCsgBpleClnEuB_15flyby_simulator4ringNtB2_19VirtualSharedMemory3len
FN:42,_RNvMNtCsgBpleClnEuB_15flyby_simulator4ringNtB2_19VirtualSharedMemory3new
FN:60,_RNvMNtCsgBpleClnEuB_15flyby_simulator4ringNtB2_19VirtualSharedMemory4name
FN:123,_RNvMNtCsgBpleClnEuB_15flyby_simulator4ringNtB2_19VirtualSharedMemory4peek
FN:108,_RNvMNtCsgBpleClnEuB_15flyby_simulator4ringNtB2_19VirtualSharedMemory7try_pop
FN:65,_RNvMNtCsgBpleClnEuB_15flyby_simulator4ringNtB2_19VirtualSharedMemory8capacity
FN:75,_RNvMNtCsgBpleClnEuB_15flyby_simulator4ringNtB2_19VirtualSharedMemory8is_empty
FN:87,_RNvMNtCsgBpleClnEuB_15flyby_simulator4ringNtB2_19VirtualSharedMemory8try_push
FN:80,_RNvMNtCsgBpleClnEuB_15flyby_simulator4ringNtB2_19VirtualSharedMemory9occupancy
FN:137,_RNvNtNtCsgBpleClnEuB_15flyby_simulator4ring5testss_18push_pop_roundtrip
FN:156,_RNvNtNtCsgBpleClnEuB_15flyby_simulator4ring5testss_21occupancy_tracks_fill
FN:165,_RNvNtNtCsgBpleClnEuB_15flyby_simulator4ring5testss_21peek_does_not_consume
FN:147,_RNvNtNtCsgBpleClnEuB_15flyby_simulator4ring5testss_22full_ring_returns_full
FNDA:6464,_RNCNvMNtCs6vtiqiiMncD_15flyby_simulator4ringNtB4_19VirtualSharedMemory3new0B6_
FNDA:259289,_RNvMNtCs6vtiqiiMncD_15flyby_simulator4ringNtB2_19VirtualSharedMemory3len
FNDA:5,_RNvMNtCs6vtiqiiMncD_15flyby_simulator4ringNtB2_19VirtualSharedMemory3new
FNDA:492529,_RNvMNtCs6vtiqiiMncD_15flyby_simulator4ringNtB2_19VirtualSharedMemory4name
FNDA:0,_RNvMNtCs6vtiqiiMncD_15flyby_simulator4ringNtB2_19VirtualSharedMemory4peek
FNDA:239859,_RNvMNtCs6vtiqiiMncD_15flyby_simulator4ringNtB2_19VirtualSharedMemory7try_pop
FNDA:0,_RNvMNtCs6vtiqiiMncD_15flyby_simulator4ringNtB2_19VirtualSharedMemory8capacity
FNDA:239859,_RNvMNtCs6vtiqiiMncD_15flyby_simulator4ringNtB2_19VirtualSharedMemory8is_empty
FNDA:255274,_RNvMNtCs6vtiqiiMncD_15flyby_simulator4ringNtB2_19VirtualSharedMemory8try_push
FNDA:4015,_RNvMNtCs6vtiqiiMncD_15flyby_simulator4ringNtB2_19VirtualSharedMemory9occupancy
FNDA:12382,_RNCNvMNtCsgBpleClnEuB_15flyby_simulator4ringNtB4_19VirtualSharedMemory3new0B6_
FNDA:137,_RNvMNtCsgBpleClnEuB_15flyby_simulator4ringNtB2_19VirtualSharedMemory3len
FNDA:10,_RNvMNtCsgBpleClnEuB_15flyby_simulator4ringNtB2_19VirtualSharedMemory3new
FNDA:210,_RNvMNtCsgBpleClnEuB_15flyby_simulator4ringNtB2_19VirtualSharedMemory4name
FNDA:1,_RNvMNtCsgBpleClnEuB_15flyby_simulator4ringNtB2_19VirtualSharedMemory4peek
FNDA:120,_RNvMNtCsgBpleClnEuB_15flyby_simulator4ringNtB2_19VirtualSharedMemory7try_pop
FNDA:2,_RNvMNtCsgBpleClnEuB_15flyby_simulator4ringNtB2_19VirtualSharedMemory8capacity
FNDA:122,_RNvMNtCsgBpleClnEuB_15flyby_simulator4ringNtB2_19VirtualSharedMemory8is_empty
FNDA:122,_RNvMNtCsgBpleClnEuB_15flyby_simulator4ringNtB2_19VirtualSharedMemory8try_push
FNDA:10,_RNvMNtCsgBpleClnEuB_15flyby_simulator4ringNtB2_19VirtualSharedMemory9occupancy
FNDA:1,_RNvNtNtCsgBpleClnEuB_15flyby_simulator4ring5testss_18push_pop_roundtrip
FNDA:1,_RNvNtNtCsgBpleClnEuB_15flyby_simulator4ring5testss_21occupancy_tracks_fill
FNDA:1,_RNvNtNtCsgBpleClnEuB_15flyby_simulator4ring5testss_21peek_does_not_consume
FNDA:1,_RNvNtNtCsgBpleClnEuB_15flyby_simulator4ring5testss_22full_ring_returns_full
FNF:14
FNH:14
DA:42,15
DA:43,15
DA:44,15
DA:46,15
DA:47,18846
DA:48,15
DA:49,15
DA:50,15
DA:57,15
DA:60,492739
DA:61,492739
DA:62,492739
DA:65,2
DA:66,2
DA:67,2
DA:70,259426
DA:71,259426
DA:72,259426
DA:75,239981
DA:76,239981
DA:77,239981
DA:80,4025
DA:81,4025
DA:82,4025
DA:87,255396
DA:88,255396
DA:89,0
DA:90,255396
DA:91,255396
DA:92,17000
DA:93,17000
DA:94,238396
DA:95,238396
DA:96,238396
DA:97,238396
DA:98,238396
DA:99,238396
DA:100,238396
DA:101,238396
DA:102,238396
DA:103,255396
DA:108,239979
DA:109,239979
DA:110,2611
DA:111,237368
DA:112,237368
DA:113,237368
DA:114,237368
DA:115,237368
DA:116,237368
DA:117,237368
DA:118,239979
DA:123,1
DA:124,1
DA:125,0
DA:126,1
DA:127,1
DA:128,1
DA:129,1
DA:137,1
DA:138,1
DA:139,1
DA:140,1
DA:141,1
DA:142,1
DA:143,1
DA:144,1
DA:147,1
DA:148,1
DA:149,1
DA:150,1
DA:151,1
DA:152,1
DA:153,1
DA:156,1
DA:157,1
DA:158,1
DA:159,1
DA:160,1
DA:161,1
DA:162,1
DA:165,1
DA:166,1
DA:167,1
DA:168,1
DA:169,1
DA:170,1
BRF:0
BRH:0
LF:88
LH:86
end_of_record
SF:/Users/thanos/work/flyby/simulator/src/scenario.rs
FN:126,_RNvMs_NtCs6vtiqiiMncD_15flyby_simulator8scenarioNtB4_8Scenario11packet_loss
FN:240,_RNvMs_NtCs6vtiqiiMncD_15flyby_simulator8scenarioNtB4_8Scenario13builtin_names
FN:73,_RNvMs_NtCs6vtiqiiMncD_15flyby_simulator8scenarioNtB4_8Scenario13constant_rate
FN:196,_RNvMs_NtCs6vtiqiiMncD_15flyby_simulator8scenarioNtB4_8Scenario13gaussian_rate
FN:149,_RNvMs_NtCs6vtiqiiMncD_15flyby_simulator8scenarioNtB4_8Scenario13slow_consumer
FN:106,_RNvMs_NtCs6vtiqiiMncD_15flyby_simulator8scenarioNtB4_8Scenario14queue_overflow
FN:173,_RNvMs_NtCs6vtiqiiMncD_15flyby_simulator8scenarioNtB4_8Scenario15corrupt_packets
FN:209,_RNvMs_NtCs6vtiqiiMncD_15flyby_simulator8scenarioNtB4_8Scenario15protocol_quotes
FN:93,_RNvMs_NtCs6vtiqiiMncD_15flyby_simulator8scenarioNtB4_8Scenario17market_open_burst
FN:224,_RNvMs_NtCs6vtiqiiMncD_15flyby_simulator8scenarioNtB4_8Scenario7by_name
FN:58,_RNvXNtCs6vtiqiiMncD_15flyby_simulator8scenarioNtB2_8ScenarioNtNtCsl8K0bEFm1U0_4core7default7Default7default
FN:300,_RNvNtNtCsgBpleClnEuB_15flyby_simulator8scenario5testss_25by_name_resolves_builtins
FN:259,_RNvNtNtCsgBpleClnEuB_15flyby_simulator8scenario5testss_27constant_rate_has_no_faults
FN:271,_RNvNtNtCsgBpleClnEuB_15flyby_simulator8scenario5testss_31slow_consumer_has_latency_spike
FN:278,_RNvNtNtCsgBpleClnEuB_15flyby_simulator8scenario5testss_33all_scenarios_have_nonempty_names
FN:265,_RNvNtNtCsgBpleClnEuB_15flyby_simulator8scenario5testss_33packet_loss_has_nonzero_drop_rate
FN:126,_RNvMs_NtCsgBpleClnEuB_15flyby_simulator8scenarioNtB4_8Scenario11packet_loss
FN:240,_RNvMs_NtCsgBpleClnEuB_15flyby_simulator8scenarioNtB4_8Scenario13builtin_names
FN:73,_RNvMs_NtCsgBpleClnEuB_15flyby_simulator8scenarioNtB4_8Scenario13constant_rate
FN:196,_RNvMs_NtCsgBpleClnEuB_15flyby_simulator8scenarioNtB4_8Scenario13gaussian_rate
FN:149,_RNvMs_NtCsgBpleClnEuB_15flyby_simulator8scenarioNtB4_8Scenario13slow_consumer
FN:106,_RNvMs_NtCsgBpleClnEuB_15flyby_simulator8scenarioNtB4_8Scenario14queue_overflow
FN:173,_RNvMs_NtCsgBpleClnEuB_15flyby_simulator8scenarioNtB4_8Scenario15corrupt_packets
FN:209,_RNvMs_NtCsgBpleClnEuB_15flyby_simulator8scenarioNtB4_8Scenario15protocol_quotes
FN:93,_RNvMs_NtCsgBpleClnEuB_15flyby_simulator8scenarioNtB4_8Scenario17market_open_burst
FN:224,_RNvMs_NtCsgBpleClnEuB_15flyby_simulator8scenarioNtB4_8Scenario7by_name
FN:58,_RNvXNtCsgBpleClnEuB_15flyby_simulator8scenarioNtB2_8ScenarioNtNtCsl8K0bEFm1U0_4core7default7Default7default
FNDA:1,_RNvMs_NtCs6vtiqiiMncD_15flyby_simulator8scenarioNtB4_8Scenario11packet_loss
FNDA:0,_RNvMs_NtCs6vtiqiiMncD_15flyby_simulator8scenarioNtB4_8Scenario13builtin_names
FNDA:9,_RNvMs_NtCs6vtiqiiMncD_15flyby_simulator8scenarioNtB4_8Scenario13constant_rate
FNDA:1,_RNvMs_NtCs6vtiqiiMncD_15flyby_simulator8scenarioNtB4_8Scenario13gaussian_rate
FNDA:0,_RNvMs_NtCs6vtiqiiMncD_15flyby_simulator8scenarioNtB4_8Scenario13slow_consumer
FNDA:0,_RNvMs_NtCs6vtiqiiMncD_15flyby_simulator8scenarioNtB4_8Scenario14queue_overflow
FNDA:1,_RNvMs_NtCs6vtiqiiMncD_15flyby_simulator8scenarioNtB4_8Scenario15corrupt_packets
FNDA:1,_RNvMs_NtCs6vtiqiiMncD_15flyby_simulator8scenarioNtB4_8Scenario15protocol_quotes
FNDA:0,_RNvMs_NtCs6vtiqiiMncD_15flyby_simulator8scenarioNtB4_8Scenario17market_open_burst
FNDA:0,_RNvMs_NtCs6vtiqiiMncD_15flyby_simulator8scenarioNtB4_8Scenario7by_name
FNDA:2,_RNvXNtCs6vtiqiiMncD_15flyby_simulator8scenarioNtB2_8ScenarioNtNtCsl8K0bEFm1U0_4core7default7Default7default
FNDA:1,_RNvNtNtCsgBpleClnEuB_15flyby_simulator8scenario5testss_25by_name_resolves_builtins
FNDA:1,_RNvNtNtCsgBpleClnEuB_15flyby_simulator8scenario5testss_27constant_rate_has_no_faults
FNDA:1,_RNvNtNtCsgBpleClnEuB_15flyby_simulator8scenario5testss_31slow_consumer_has_latency_spike
FNDA:1,_RNvNtNtCsgBpleClnEuB_15flyby_simulator8scenario5testss_33all_scenarios_have_nonempty_names
FNDA:1,_RNvNtNtCsgBpleClnEuB_15flyby_simulator8scenario5testss_33packet_loss_has_nonzero_drop_rate
FNDA:4,_RNvMs_NtCsgBpleClnEuB_15flyby_simulator8scenarioNtB4_8Scenario11packet_loss
FNDA:1,_RNvMs_NtCsgBpleClnEuB_15flyby_simulator8scenarioNtB4_8Scenario13builtin_names
FNDA:7,_RNvMs_NtCsgBpleClnEuB_15flyby_simulator8scenarioNtB4_8Scenario13constant_rate
FNDA:2,_RNvMs_NtCsgBpleClnEuB_15flyby_simulator8scenarioNtB4_8Scenario13gaussian_rate
FNDA:3,_RNvMs_NtCsgBpleClnEuB_15flyby_simulator8scenarioNtB4_8Scenario13slow_consumer
FNDA:2,_RNvMs_NtCsgBpleClnEuB_15flyby_simulator8scenarioNtB4_8Scenario14queue_overflow
FNDA:2,_RNvMs_NtCsgBpleClnEuB_15flyby_simulator8scenarioNtB4_8Scenario15corrupt_packets
FNDA:2,_RNvMs_NtCsgBpleClnEuB_15flyby_simulator8scenarioNtB4_8Scenario15protocol_quotes
FNDA:2,_RNvMs_NtCsgBpleClnEuB_15flyby_simulator8scenarioNtB4_8Scenario17market_open_burst
FNDA:9,_RNvMs_NtCsgBpleClnEuB_15flyby_simulator8scenarioNtB4_8Scenario7by_name
FNDA:9,_RNvXNtCsgBpleClnEuB_15flyby_simulator8scenarioNtB2_8ScenarioNtNtCsl8K0bEFm1U0_4core7default7Default7default
FNF:16
FNH:16
DA:58,11
DA:59,11
DA:60,11
DA:61,11
DA:62,11
DA:63,11
DA:64,11
DA:65,11
DA:66,11
DA:67,11
DA:68,11
DA:73,16
DA:76,16
DA:77,16
DA:78,16
DA:79,16
DA:80,16
DA:81,16
DA:82,16
DA:83,16
DA:84,16
DA:85,16
DA:86,16
DA:87,16
DA:88,16
DA:89,16
DA:90,16
DA:93,2
DA:94,2
DA:95,2
DA:96,2
DA:97,2
DA:98,2
DA:99,2
DA:100,2
DA:101,2
DA:102,2
DA:103,2
DA:106,2
DA:109,2
DA:110,2
DA:111,2
DA:112,2
DA:113,2
DA:114,2
DA:115,2
DA:116,2
DA:117,2
DA:118,2
DA:119,2
DA:120,2
DA:121,2
DA:122,2
DA:123,2
DA:126,5
DA:129,5
DA:130,5
DA:131,5
DA:132,5
DA:133,5
DA:134,5
DA:135,5
DA:136,5
DA:137,5
DA:138,5
DA:139,5
DA:140,5
DA:141,5
DA:142,5
DA:143,5
DA:144,5
DA:145,5
DA:146,5
DA:149,3
DA:152,3
DA:153,3
DA:154,3
DA:155,3
DA:156,3
DA:157,3
DA:158,3
DA:159,3
DA:160,3
DA:161,3
DA:162,3
DA:163,3
DA:164,3
DA:165,3
DA:166,3
DA:167,3
DA:168,3
DA:169,3
DA:170,3
DA:173,3
DA:176,3
DA:177,3
DA:178,3
DA:179,3
DA:180,3
DA:181,3
DA:182,3
DA:183,3
DA:184,3
DA:185,3
DA:186,3
DA:187,3
DA:188,3
DA:189,3
DA:190,3
DA:191,3
DA:192,3
DA:193,3
DA:196,3
DA:197,3
DA:198,3
DA:199,3
DA:200,3
DA:201,3
DA:202,3
DA:203,3
DA:204,3
DA:205,3
DA:206,3
DA:209,3
DA:210,3
DA:211,3
DA:212,3
DA:213,3
DA:214,3
DA:215,3
DA:216,3
DA:217,3
DA:218,3
DA:219,3
DA:224,9
DA:225,9
DA:226,9
DA:227,8
DA:228,7
DA:229,6
DA:230,5
DA:231,4
DA:232,3
DA:233,2
DA:234,1
DA:235,1
DA:237,9
DA:240,1
DA:241,1
DA:242,1
DA:243,1
DA:244,1
DA:245,1
DA:246,1
DA:247,1
DA:248,1
DA:249,1
DA:250,1
DA:251,1
DA:259,1
DA:260,1
DA:261,1
DA:262,1
DA:265,1
DA:266,1
DA:267,1
DA:268,1
DA:271,1
DA:272,1
DA:273,1
DA:274,1
DA:275,1
DA:278,1
DA:279,1
DA:280,1
DA:281,1
DA:282,1
DA:283,1
DA:284,1
DA:285,1
DA:286,1
DA:287,1
DA:288,1
DA:289,1
DA:290,9
DA:291,9
DA:292,9
DA:293,9
DA:297,1
DA:300,1
DA:301,8
DA:302,8
DA:303,8
DA:305,1
DA:306,1
BRF:0
BRH:0
LF:195
LH:195
end_of_record
SF:/Users/thanos/work/flyby/simulator/src/scheduler.rs
FN:512,_RNvMs1_NtCs6vtiqiiMncD_15flyby_simulator9schedulerINtB5_12SimSchedulerNtNtB7_6events13NullEventSinkE14apply_timelineCsiTMFchfn6h2_3dsl
FN:573,_RNvMs1_NtCs6vtiqiiMncD_15flyby_simulator9schedulerINtB5_12SimSchedulerNtNtB7_6events13NullEventSinkE18snapshot_nic_statsCsiTMFchfn6h2_3dsl
FN:328,_RNvMs1_NtCs6vtiqiiMncD_15flyby_simulator9schedulerINtB5_12SimSchedulerNtNtB7_6events13NullEventSinkE3runCsiTMFchfn6h2_3dsl
FN:358,_RNvMs1_NtCs6vtiqiiMncD_15flyby_simulator9schedulerINtB5_12SimSchedulerNtNtB7_6events13NullEventSinkE4stepCsiTMFchfn6h2_3dsl
FN:489,_RNvMs1_NtCs6vtiqiiMncD_15flyby_simulator9schedulerINtB5_12SimSchedulerNtNtB7_6events13NullEventSinkE5beginCsiTMFchfn6h2_3dsl
FN:549,_RNvMs1_NtCs6vtiqiiMncD_15flyby_simulator9schedulerINtB5_12SimSchedulerNtNtB7_6events13NullEventSinkE6finishCsiTMFchfn6h2_3dsl
FN:203,_RNvMs0_NtCs6vtiqiiMncD_15flyby_simulator9schedulerINtB5_12SimSchedulerNtNtB7_6events13NullEventSinkE3new
FN:266,_RINvMs1_NtCs6vtiqiiMncD_15flyby_simulator9schedulerINtB6_12SimSchedulerNtNtB8_6events12VecEventSinkE7add_nicINtNtB8_3nic10VirtualNicB17_EEB8_
FN:266,_RINvMs1_NtCs6vtiqiiMncD_15flyby_simulator9schedulerINtB6_12SimSchedulerNtNtB8_6events12VecEventSinkE7add_nicINtNtB8_4pcap10PcapSourceB17_EEB8_
FN:266,_RINvMs1_NtCs6vtiqiiMncD_15flyby_simulator9schedulerINtB6_12SimSchedulerNtNtB8_6events13NullEventSinkE7add_nicINtNtB8_3nic10VirtualNicB17_EEB8_
FN:266,_RINvMs1_NtCs6vtiqiiMncD_15flyby_simulator9schedulerINtB6_12SimSchedulerNtNtB8_6events13NullEventSinkE7add_nicINtNtB8_4pcap10PcapSourceB17_EEB8_
FN:254,_RNCNvMs1_NtCs6vtiqiiMncD_15flyby_simulator9schedulerINtB7_12SimSchedulerNtNtB9_6events12VecEventSinkE13with_timeline0B9_
FN:299,_RNCNvMs1_NtCs6vtiqiiMncD_15flyby_simulator9schedulerINtB7_12SimSchedulerNtNtB9_6events12VecEventSinkE14consumer_reads0B9_
FN:294,_RNCNvMs1_NtCs6vtiqiiMncD_15flyby_simulator9schedulerINtB7_12SimSchedulerNtNtB9_6events12VecEventSinkE14ring_occupancy0B9_
FN:309,_RNCNvMs1_NtCs6vtiqiiMncD_15flyby_simulator9schedulerINtB7_12SimSchedulerNtNtB9_6events12VecEventSinkE8clock_ns0B9_
FN:254,_RNCNvMs1_NtCs6vtiqiiMncD_15flyby_simulator9schedulerINtB7_12SimSchedulerNtNtB9_6events13NullEventSinkE13with_timeline0B9_
FN:349,_RNvMs1_NtCs6vtiqiiMncD_15flyby_simulator9schedulerINtB5_12SimSchedulerNtNtB7_6events12VecEventSinkE10finish_runB7_
FN:281,_RNvMs1_NtCs6vtiqiiMncD_15flyby_simulator9schedulerINtB5_12SimSchedulerNtNtB7_6events12VecEventSinkE10is_runningB7_
FN:303,_RNvMs1_NtCs6vtiqiiMncD_15flyby_simulator9schedulerINtB5_12SimSchedulerNtNtB7_6events12VecEventSinkE10last_batchB7_
FN:313,_RNvMs1_NtCs6vtiqiiMncD_15flyby_simulator9schedulerINtB5_12SimSchedulerNtNtB7_6events12VecEventSinkE11duration_nsB7_
FN:210,_RNvMs1_NtCs6vtiqiiMncD_15flyby_simulator9schedulerINtB5_12SimSchedulerNtNtB7_6events12VecEventSinkE11with_eventsB7_
FN:242,_RNvMs1_NtCs6vtiqiiMncD_15flyby_simulator9schedulerINtB5_12SimSchedulerNtNtB7_6events12VecEventSinkE12add_consumerB7_
FN:253,_RNvMs1_NtCs6vtiqiiMncD_15flyby_simulator9schedulerINtB5_12SimSchedulerNtNtB7_6events12VecEventSinkE13with_timelineB7_
FN:512,_RNvMs1_NtCs6vtiqiiMncD_15flyby_simulator9schedulerINtB5_12SimSchedulerNtNtB7_6events12VecEventSinkE14apply_timelineB7_
FN:298,_RNvMs1_NtCs6vtiqiiMncD_15flyby_simulator9schedulerINtB5_12SimSchedulerNtNtB7_6events12VecEventSinkE14consumer_readsB7_
FN:291,_RNvMs1_NtCs6vtiqiiMncD_15flyby_simulator9schedulerINtB5_12SimSchedulerNtNtB7_6events12VecEventSinkE14ring_occupancyB7_
FN:573,_RNvMs1_NtCs6vtiqiiMncD_15flyby_simulator9schedulerINtB5_12SimSchedulerNtNtB7_6events12VecEventSinkE18snapshot_nic_statsB7_
FN:328,_RNvMs1_NtCs6vtiqiiMncD_15flyby_simulator9schedulerINtB5_12SimSchedulerNtNtB7_6events12VecEventSinkE3runB7_
FN:358,_RNvMs1_NtCs6vtiqiiMncD_15flyby_simulator9schedulerINtB5_12SimSchedulerNtNtB7_6events12VecEventSinkE4stepB7_
FN:489,_RNvMs1_NtCs6vtiqiiMncD_15flyby_simulator9schedulerINtB5_12SimSchedulerNtNtB7_6events12VecEventSinkE5beginB7_
FN:318,_RNvMs1_NtCs6vtiqiiMncD_15flyby_simulator9schedulerINtB5_12SimSchedulerNtNtB7_6events12VecEventSinkE5pauseB7_
FN:271,_RNvMs1_NtCs6vtiqiiMncD_15flyby_simulator9schedulerINtB5_12SimSchedulerNtNtB7_6events12VecEventSinkE5statsB7_
FN:549,_RNvMs1_NtCs6vtiqiiMncD_15flyby_simulator9schedulerINtB5_12SimSchedulerNtNtB7_6events12VecEventSinkE6finishB7_
FN:323,_RNvMs1_NtCs6vtiqiiMncD_15flyby_simulator9schedulerINtB5_12SimSchedulerNtNtB7_6events12VecEventSinkE6resumeB7_
FN:261,_RNvMs1_NtCs6vtiqiiMncD_15flyby_simulator9schedulerINtB5_12SimSchedulerNtNtB7_6events12VecEventSinkE7edu_mutB7_
FN:308,_RNvMs1_NtCs6vtiqiiMncD_15flyby_simulator9schedulerINtB5_12SimSchedulerNtNtB7_6events12VecEventSinkE8clock_nsB7_
FN:247,_RNvMs1_NtCs6vtiqiiMncD_15flyby_simulator9schedulerINtB5_12SimSchedulerNtNtB7_6events12VecEventSinkE8with_eduB7_
FN:286,_RNvMs1_NtCs6vtiqiiMncD_15flyby_simulator9schedulerINtB5_12SimSchedulerNtNtB7_6events12VecEventSinkE9is_pausedB7_
FN:236,_RNvMs1_NtCs6vtiqiiMncD_15flyby_simulator9schedulerINtB5_12SimSchedulerNtNtB7_6events12VecEventSinkE9with_ringB7_
FN:210,_RNvMs1_NtCs6vtiqiiMncD_15flyby_simulator9schedulerINtB5_12SimSchedulerNtNtB7_6events13NullEventSinkE11with_eventsB7_
FN:242,_RNvMs1_NtCs6vtiqiiMncD_15flyby_simulator9schedulerINtB5_12SimSchedulerNtNtB7_6events13NullEventSinkE12add_consumerB7_
FN:253,_RNvMs1_NtCs6vtiqiiMncD_15flyby_simulator9schedulerINtB5_12SimSchedulerNtNtB7_6events13NullEventSinkE13with_timelineB7_
FN:247,_RNvMs1_NtCs6vtiqiiMncD_15flyby_simulator9schedulerINtB5_12SimSchedulerNtNtB7_6events13NullEventSinkE8with_eduB7_
FN:236,_RNvMs1_NtCs6vtiqiiMncD_15flyby_simulator9schedulerINtB5_12SimSchedulerNtNtB7_6events13NullEventSinkE9with_ringB7_
FN:230,_RNvMs1_NtCs6vtiqiiMncD_15flyby_simulator9schedulerINtB5_12SimSchedulerpE12with_metricsB7_
FN:276,_RNvMs1_NtCs6vtiqiiMncD_15flyby_simulator9schedulerINtB5_12SimSchedulerpE8scenarioB7_
FN:109,_RNvXNtCs6vtiqiiMncD_15flyby_simulator9schedulerINtNtB4_3nic10VirtualNicNtNtB4_6events12VecEventSinkENtB2_6DynNic11set_trafficB4_
FN:106,_RNvXNtCs6vtiqiiMncD_15flyby_simulator9schedulerINtNtB4_3nic10VirtualNicNtNtB4_6events12VecEventSinkENtB2_6DynNic13take_spike_nsB4_
FN:118,_RNvXNtCs6vtiqiiMncD_15flyby_simulator9schedulerINtNtB4_3nic10VirtualNicNtNtB4_6events12VecEventSinkENtB2_6DynNic15packets_droppedB4_
FN:100,_RNvXNtCs6vtiqiiMncD_15flyby_simulator9schedulerINtNtB4_3nic10VirtualNicNtNtB4_6events12VecEventSinkENtB2_6DynNic16set_tick_contextB4_
FN:121,_RNvXNtCs6vtiqiiMncD_15flyby_simulator9schedulerINtNtB4_3nic10VirtualNicNtNtB4_6events12VecEventSinkENtB2_6DynNic17packets_corruptedB4_
FN:115,_RNvXNtCs6vtiqiiMncD_15flyby_simulator9schedulerINtNtB4_3nic10VirtualNicNtNtB4_6events12VecEventSinkENtB2_6DynNic17packets_generatedB4_
FN:94,_RNvXNtCs6vtiqiiMncD_15flyby_simulator9schedulerINtNtB4_3nic10VirtualNicNtNtB4_6events12VecEventSinkENtB2_6DynNic4initB4_
FN:91,_RNvXNtCs6vtiqiiMncD_15flyby_simulator9schedulerINtNtB4_3nic10VirtualNicNtNtB4_6events12VecEventSinkENtB2_6DynNic4nameB4_
FN:103,_RNvXNtCs6vtiqiiMncD_15flyby_simulator9schedulerINtNtB4_3nic10VirtualNicNtNtB4_6events12VecEventSinkENtB2_6DynNic4pollB4_
FN:97,_RNvXNtCs6vtiqiiMncD_15flyby_simulator9schedulerINtNtB4_3nic10VirtualNicNtNtB4_6events12VecEventSinkENtB2_6DynNic8shutdownB4_
FN:112,_RNvXNtCs6vtiqiiMncD_15flyby_simulator9schedulerINtNtB4_3nic10VirtualNicNtNtB4_6events12VecEventSinkENtB2_6DynNic9set_faultB4_
FN:109,_RNvXNtCs6vtiqiiMncD_15flyby_simulator9schedulerINtNtB4_3nic10VirtualNicNtNtB4_6events13NullEventSinkENtB2_6DynNic11set_trafficB4_
FN:106,_RNvXNtCs6vtiqiiMncD_15flyby_simulator9schedulerINtNtB4_3nic10VirtualNicNtNtB4_6events13NullEventSinkENtB2_6DynNic13take_spike_nsB4_
FN:118,_RNvXNtCs6vtiqiiMncD_15flyby_simulator9schedulerINtNtB4_3nic10VirtualNicNtNtB4_6events13NullEventSinkENtB2_6DynNic15packets_droppedB4_
FN:100,_RNvXNtCs6vtiqiiMncD_15flyby_simulator9schedulerINtNtB4_3nic10VirtualNicNtNtB4_6events13NullEventSinkENtB2_6DynNic16set_tick_contextB4_
FN:121,_RNvXNtCs6vtiqiiMncD_15flyby_simulator9schedulerINtNtB4_3nic10VirtualNicNtNtB4_6events13NullEventSinkENtB2_6DynNic17packets_corruptedB4_
FN:115,_RNvXNtCs6vtiqiiMncD_15flyby_simulator9schedulerINtNtB4_3nic10VirtualNicNtNtB4_6events13NullEventSinkENtB2_6DynNic17packets_generatedB4_
FN:94,_RNvXNtCs6vtiqiiMncD_15flyby_simulator9schedulerINtNtB4_3nic10VirtualNicNtNtB4_6events13NullEventSinkENtB2_6DynNic4initB4_
FN:91,_RNvXNtCs6vtiqiiMncD_15flyby_simulator9schedulerINtNtB4_3nic10VirtualNicNtNtB4_6events13NullEventSinkENtB2_6DynNic4nameB4_
FN:103,_RNvXNtCs6vtiqiiMncD_15flyby_simulator9schedulerINtNtB4_3nic10VirtualNicNtNtB4_6events13NullEventSinkENtB2_6DynNic4pollB4_
FN:97,_RNvXNtCs6vtiqiiMncD_15flyby_simulator9schedulerINtNtB4_3nic10VirtualNicNtNtB4_6events13NullEventSinkENtB2_6DynNic8shutdownB4_
FN:112,_RNvXNtCs6vtiqiiMncD_15flyby_simulator9schedulerINtNtB4_3nic10VirtualNicNtNtB4_6events13NullEventSinkENtB2_6DynNic9set_faultB4_
FN:148,_RNvXs_NtCs6vtiqiiMncD_15flyby_simulator9schedulerINtNtB6_4pcap10PcapSourceNtNtB6_6events12VecEventSinkENtB4_6DynNic11set_trafficB6_
FN:145,_RNvXs_NtCs6vtiqiiMncD_15flyby_simulator9schedulerINtNtB6_4pcap10PcapSourceNtNtB6_6events12VecEventSinkENtB4_6DynNic13take_spike_nsB6_
FN:157,_RNvXs_NtCs6vtiqiiMncD_15flyby_simulator9schedulerINtNtB6_4pcap10PcapSourceNtNtB6_6events12VecEventSinkENtB4_6DynNic15packets_droppedB6_
FN:139,_RNvXs_NtCs6vtiqiiMncD_15flyby_simulator9schedulerINtNtB6_4pcap10PcapSourceNtNtB6_6events12VecEventSinkENtB4_6DynNic16set_tick_contextB6_
FN:160,_RNvXs_NtCs6vtiqiiMncD_15flyby_simulator9schedulerINtNtB6_4pcap10PcapSourceNtNtB6_6events12VecEventSinkENtB4_6DynNic17packets_corruptedB6_
FN:154,_RNvXs_NtCs6vtiqiiMncD_15flyby_simulator9schedulerINtNtB6_4pcap10PcapSourceNtNtB6_6events12VecEventSinkENtB4_6DynNic17packets_generatedB6_
FN:133,_RNvXs_NtCs6vtiqiiMncD_15flyby_simulator9schedulerINtNtB6_4pcap10PcapSourceNtNtB6_6events12VecEventSinkENtB4_6DynNic4initB6_
FN:130,_RNvXs_NtCs6vtiqiiMncD_15flyby_simulator9schedulerINtNtB6_4pcap10PcapSourceNtNtB6_6events12VecEventSinkENtB4_6DynNic4nameB6_
FN:142,_RNvXs_NtCs6vtiqiiMncD_15flyby_simulator9schedulerINtNtB6_4pcap10PcapSourceNtNtB6_6events12VecEventSinkENtB4_6DynNic4pollB6_
FN:136,_RNvXs_NtCs6vtiqiiMncD_15flyby_simulator9schedulerINtNtB6_4pcap10PcapSourceNtNtB6_6events12VecEventSinkENtB4_6DynNic8shutdownB6_
FN:151,_RNvXs_NtCs6vtiqiiMncD_15flyby_simulator9schedulerINtNtB6_4pcap10PcapSourceNtNtB6_6events12VecEventSinkENtB4_6DynNic9set_faultB6_
FN:148,_RNvXs_NtCs6vtiqiiMncD_15flyby_simulator9schedulerINtNtB6_4pcap10PcapSourceNtNtB6_6events13NullEventSinkENtB4_6DynNic11set_trafficB6_
FN:145,_RNvXs_NtCs6vtiqiiMncD_15flyby_simulator9schedulerINtNtB6_4pcap10PcapSourceNtNtB6_6events13NullEventSinkENtB4_6DynNic13take_spike_nsB6_
FN:157,_RNvXs_NtCs6vtiqiiMncD_15flyby_simulator9schedulerINtNtB6_4pcap10PcapSourceNtNtB6_6events13NullEventSinkENtB4_6DynNic15packets_droppedB6_
FN:139,_RNvXs_NtCs6vtiqiiMncD_15flyby_simulator9schedulerINtNtB6_4pcap10PcapSourceNtNtB6_6events13NullEventSinkENtB4_6DynNic16set_tick_contextB6_
FN:160,_RNvXs_NtCs6vtiqiiMncD_15flyby_simulator9schedulerINtNtB6_4pcap10PcapSourceNtNtB6_6events13NullEventSinkENtB4_6DynNic17packets_corruptedB6_
FN:154,_RNvXs_NtCs6vtiqiiMncD_15flyby_simulator9schedulerINtNtB6_4pcap10PcapSourceNtNtB6_6events13NullEventSinkENtB4_6DynNic17packets_generatedB6_
FN:133,_RNvXs_NtCs6vtiqiiMncD_15flyby_simulator9schedulerINtNtB6_4pcap10PcapSourceNtNtB6_6events13NullEventSinkENtB4_6DynNic4initB6_
FN:130,_RNvXs_NtCs6vtiqiiMncD_15flyby_simulator9schedulerINtNtB6_4pcap10PcapSourceNtNtB6_6events13NullEventSinkENtB4_6DynNic4nameB6_
FN:142,_RNvXs_NtCs6vtiqiiMncD_15flyby_simulator9schedulerINtNtB6_4pcap10PcapSourceNtNtB6_6events13NullEventSinkENtB4_6DynNic4pollB6_
FN:136,_RNvXs_NtCs6vtiqiiMncD_15flyby_simulator9schedulerINtNtB6_4pcap10PcapSourceNtNtB6_6events13NullEventSinkENtB4_6DynNic8shutdownB6_
FN:151,_RNvXs_NtCs6vtiqiiMncD_15flyby_simulator9schedulerINtNtB6_4pcap10PcapSourceNtNtB6_6events13NullEventSinkENtB4_6DynNic9set_faultB6_
FN:512,_RNvMs1_NtCs6vtiqiiMncD_15flyby_simulator9schedulerINtB5_12SimSchedulerNtNtB7_6events13NullEventSinkE14apply_timelineCsgMOyHKgvxbf_9flyby_sim
FN:573,_RNvMs1_NtCs6vtiqiiMncD_15flyby_simulator9schedulerINtB5_12SimSchedulerNtNtB7_6events13NullEventSinkE18snapshot_nic_statsCsgMOyHKgvxbf_9flyby_sim
FN:328,_RNvMs1_NtCs6vtiqiiMncD_15flyby_simulator9schedulerINtB5_12SimSchedulerNtNtB7_6events13NullEventSinkE3runCsgMOyHKgvxbf_9flyby_sim
FN:358,_RNvMs1_NtCs6vtiqiiMncD_15flyby_simulator9schedulerINtB5_12SimSchedulerNtNtB7_6events13NullEventSinkE4stepCsgMOyHKgvxbf_9flyby_sim
FN:489,_RNvMs1_NtCs6vtiqiiMncD_15flyby_simulator9schedulerINtB5_12SimSchedulerNtNtB7_6events13NullEventSinkE5beginCsgMOyHKgvxbf_9flyby_sim
FN:549,_RNvMs1_NtCs6vtiqiiMncD_15flyby_simulator9schedulerINtB5_12SimSchedulerNtNtB7_6events13NullEventSinkE6finishCsgMOyHKgvxbf_9flyby_sim
FN:695,_RNCNvNtNtCsgBpleClnEuB_15flyby_simulator9scheduler5testss_39event_sink_receives_started_and_stopped0B7_
FN:699,_RNCNvNtNtCsgBpleClnEuB_15flyby_simulator9scheduler5testss_39event_sink_receives_started_and_stoppeds_0B7_
FN:148,_RNvXs_NtCsgBpleClnEuB_15flyby_simulator9schedulerINtNtB6_4pcap10PcapSourceNtNtB6_6events12VecEventSinkENtB4_6DynNic11set_trafficB6_
FN:145,_RNvXs_NtCsgBpleClnEuB_15flyby_simulator9schedulerINtNtB6_4pcap10PcapSourceNtNtB6_6events12VecEventSinkENtB4_6DynNic13take_spike_nsB6_
FN:157,_RNvXs_NtCsgBpleClnEuB_15flyby_simulator9schedulerINtNtB6_4pcap10PcapSourceNtNtB6_6events12VecEventSinkENtB4_6DynNic15packets_droppedB6_
FN:139,_RNvXs_NtCsgBpleClnEuB_15flyby_simulator9schedulerINtNtB6_4pcap10PcapSourceNtNtB6_6events12VecEventSinkENtB4_6DynNic16set_tick_contextB6_
FN:160,_RNvXs_NtCsgBpleClnEuB_15flyby_simulator9schedulerINtNtB6_4pcap10PcapSourceNtNtB6_6events12VecEventSinkENtB4_6DynNic17packets_corruptedB6_
FN:154,_RNvXs_NtCsgBpleClnEuB_15flyby_simulator9schedulerINtNtB6_4pcap10PcapSourceNtNtB6_6events12VecEventSinkENtB4_6DynNic17packets_generatedB6_
FN:133,_RNvXs_NtCsgBpleClnEuB_15flyby_simulator9schedulerINtNtB6_4pcap10PcapSourceNtNtB6_6events12VecEventSinkENtB4_6DynNic4initB6_
FN:130,_RNvXs_NtCsgBpleClnEuB_15flyby_simulator9schedulerINtNtB6_4pcap10PcapSourceNtNtB6_6events12VecEventSinkENtB4_6DynNic4nameB6_
FN:142,_RNvXs_NtCsgBpleClnEuB_15flyby_simulator9schedulerINtNtB6_4pcap10PcapSourceNtNtB6_6events12VecEventSinkENtB4_6DynNic4pollB6_
FN:136,_RNvXs_NtCsgBpleClnEuB_15flyby_simulator9schedulerINtNtB6_4pcap10PcapSourceNtNtB6_6events12VecEventSinkENtB4_6DynNic8shutdownB6_
FN:151,_RNvXs_NtCsgBpleClnEuB_15flyby_simulator9schedulerINtNtB6_4pcap10PcapSourceNtNtB6_6events12VecEventSinkENtB4_6DynNic9set_faultB6_
FN:597,_RNvNtNtCsgBpleClnEuB_15flyby_simulator9scheduler5tests8make_nic
FN:773,_RNvNtNtCsgBpleClnEuB_15flyby_simulator9scheduler5testss_22breakpoint_tick_pauses
FN:706,_RNvNtNtCsgBpleClnEuB_15flyby_simulator9scheduler5testss_30multiple_nics_stats_are_summed
FN:728,_RNvNtNtCsgBpleClnEuB_15flyby_simulator9scheduler5testss_30ring_and_consumer_move_packets
FN:628,_RNvNtNtCsgBpleClnEuB_15flyby_simulator9scheduler5testss_32ticks_match_duration_div_tick_ns
FN:752,_RNvNtNtCsgBpleClnEuB_15flyby_simulator9scheduler5testss_34educational_step_advances_one_tick
FN:612,_RNvNtNtCsgBpleClnEuB_15flyby_simulator9scheduler5testss_35run_without_nics_returns_zero_stats
FN:619,_RNvNtNtCsgBpleClnEuB_15flyby_simulator9scheduler5testss_36run_constant_rate_scenario_completes
FN:642,_RNvNtNtCsgBpleClnEuB_15flyby_simulator9scheduler5testss_37packets_generated_is_nonzero_with_nic
FN:681,_RNvNtNtCsgBpleClnEuB_15flyby_simulator9scheduler5testss_39event_sink_receives_started_and_stopped
FN:656,_RNvNtNtCsgBpleClnEuB_15flyby_simulator9scheduler5testss_41drop_fault_produces_nonzero_dropped_count
FN:266,_RINvMs1_NtCsgBpleClnEuB_15flyby_simulator9schedulerINtB6_12SimSchedulerNtNtB8_6events12VecEventSinkE7add_nicINtNtB8_3nic10VirtualNicB17_EEB8_
FN:266,_RINvMs1_NtCsgBpleClnEuB_15flyby_simulator9schedulerINtB6_12SimSchedulerNtNtB8_6events12VecEventSinkE7add_nicINtNtB8_4pcap10PcapSourceB17_EEB8_
FN:266,_RINvMs1_NtCsgBpleClnEuB_15flyby_simulator9schedulerINtB6_12SimSchedulerNtNtB8_6events13NullEventSinkE7add_nicINtNtB8_3nic10VirtualNicB17_EEB8_
FN:254,_RNCNvMs1_NtCsgBpleClnEuB_15flyby_simulator9schedulerINtB7_12SimSchedulerNtNtB9_6events12VecEventSinkE13with_timeline0B9_
FN:299,_RNCNvMs1_NtCsgBpleClnEuB_15flyby_simulator9schedulerINtB7_12SimSchedulerNtNtB9_6events12VecEventSinkE14consumer_reads0B9_
FN:294,_RNCNvMs1_NtCsgBpleClnEuB_15flyby_simulator9schedulerINtB7_12SimSchedulerNtNtB9_6events12VecEventSinkE14ring_occupancy0B9_
FN:309,_RNCNvMs1_NtCsgBpleClnEuB_15flyby_simulator9schedulerINtB7_12SimSchedulerNtNtB9_6events12VecEventSinkE8clock_ns0B9_
FN:349,_RNvMs1_NtCsgBpleClnEuB_15flyby_simulator9schedulerINtB5_12SimSchedulerNtNtB7_6events12VecEventSinkE10finish_runB7_
FN:281,_RNvMs1_NtCsgBpleClnEuB_15flyby_simulator9schedulerINtB5_12SimSchedulerNtNtB7_6events12VecEventSinkE10is_runningB7_
FN:303,_RNvMs1_NtCsgBpleClnEuB_15flyby_simulator9schedulerINtB5_12SimSchedulerNtNtB7_6events12VecEventSinkE10last_batchB7_
FN:313,_RNvMs1_NtCsgBpleClnEuB_15flyby_simulator9schedulerINtB5_12SimSchedulerNtNtB7_6events12VecEventSinkE11duration_nsB7_
FN:210,_RNvMs1_NtCsgBpleClnEuB_15flyby_simulator9schedulerINtB5_12SimSchedulerNtNtB7_6events12VecEventSinkE11with_eventsB7_
FN:242,_RNvMs1_NtCsgBpleClnEuB_15flyby_simulator9schedulerINtB5_12SimSchedulerNtNtB7_6events12VecEventSinkE12add_consumerB7_
FN:253,_RNvMs1_NtCsgBpleClnEuB_15flyby_simulator9schedulerINtB5_12SimSchedulerNtNtB7_6events12VecEventSinkE13with_timelineB7_
FN:512,_RNvMs1_NtCsgBpleClnEuB_15flyby_simulator9schedulerINtB5_12SimSchedulerNtNtB7_6events12VecEventSinkE14apply_timelineB7_
FN:298,_RNvMs1_NtCsgBpleClnEuB_15flyby_simulator9schedulerINtB5_12SimSchedulerNtNtB7_6events12VecEventSinkE14consumer_readsB7_
FN:291,_RNvMs1_NtCsgBpleClnEuB_15flyby_simulator9schedulerINtB5_12SimSchedulerNtNtB7_6events12VecEventSinkE14ring_occupancyB7_
FN:573,_RNvMs1_NtCsgBpleClnEuB_15flyby_simulator9schedulerINtB5_12SimSchedulerNtNtB7_6events12VecEventSinkE18snapshot_nic_statsB7_
FN:328,_RNvMs1_NtCsgBpleClnEuB_15flyby_simulator9schedulerINtB5_12SimSchedulerNtNtB7_6events12VecEventSinkE3runB7_
FN:358,_RNvMs1_NtCsgBpleClnEuB_15flyby_simulator9schedulerINtB5_12SimSchedulerNtNtB7_6events12VecEventSinkE4stepB7_
FN:489,_RNvMs1_NtCsgBpleClnEuB_15flyby_simulator9schedulerINtB5_12SimSchedulerNtNtB7_6events12VecEventSinkE5beginB7_
FN:271,_RNvMs1_NtCsgBpleClnEuB_15flyby_simulator9schedulerINtB5_12SimSchedulerNtNtB7_6events12VecEventSinkE5statsB7_
FN:549,_RNvMs1_NtCsgBpleClnEuB_15flyby_simulator9schedulerINtB5_12SimSchedulerNtNtB7_6events12VecEventSinkE6finishB7_
FN:323,_RNvMs1_NtCsgBpleClnEuB_15flyby_simulator9schedulerINtB5_12SimSchedulerNtNtB7_6events12VecEventSinkE6resumeB7_
FN:261,_RNvMs1_NtCsgBpleClnEuB_15flyby_simulator9schedulerINtB5_12SimSchedulerNtNtB7_6events12VecEventSinkE7edu_mutB7_
FN:308,_RNvMs1_NtCsgBpleClnEuB_15flyby_simulator9schedulerINtB5_12SimSchedulerNtNtB7_6events12VecEventSinkE8clock_nsB7_
FN:247,_RNvMs1_NtCsgBpleClnEuB_15flyby_simulator9schedulerINtB5_12SimSchedulerNtNtB7_6events12VecEventSinkE8with_eduB7_
FN:286,_RNvMs1_NtCsgBpleClnEuB_15flyby_simulator9schedulerINtB5_12SimSchedulerNtNtB7_6events12VecEventSinkE9is_pausedB7_
FN:236,_RNvMs1_NtCsgBpleClnEuB_15flyby_simulator9schedulerINtB5_12SimSchedulerNtNtB7_6events12VecEventSinkE9with_ringB7_
FN:303,_RNvMs1_NtCsgBpleClnEuB_15flyby_simulator9schedulerINtB5_12SimSchedulerNtNtB7_6events13NullEventSinkE10last_batchB7_
FN:210,_RNvMs1_NtCsgBpleClnEuB_15flyby_simulator9schedulerINtB5_12SimSchedulerNtNtB7_6events13NullEventSinkE11with_eventsB7_
FN:242,_RNvMs1_NtCsgBpleClnEuB_15flyby_simulator9schedulerINtB5_12SimSchedulerNtNtB7_6events13NullEventSinkE12add_consumerB7_
FN:512,_RNvMs1_NtCsgBpleClnEuB_15flyby_simulator9schedulerINtB5_12SimSchedulerNtNtB7_6events13NullEventSinkE14apply_timelineB7_
FN:573,_RNvMs1_NtCsgBpleClnEuB_15flyby_simulator9schedulerINtB5_12SimSchedulerNtNtB7_6events13NullEventSinkE18snapshot_nic_statsB7_
FN:328,_RNvMs1_NtCsgBpleClnEuB_15flyby_simulator9schedulerINtB5_12SimSchedulerNtNtB7_6events13NullEventSinkE3runB7_
FN:358,_RNvMs1_NtCsgBpleClnEuB_15flyby_simulator9schedulerINtB5_12SimSchedulerNtNtB7_6events13NullEventSinkE4stepB7_
FN:489,_RNvMs1_NtCsgBpleClnEuB_15flyby_simulator9schedulerINtB5_12SimSchedulerNtNtB7_6events13NullEventSinkE5beginB7_
FN:549,_RNvMs1_NtCsgBpleClnEuB_15flyby_simulator9schedulerINtB5_12SimSchedulerNtNtB7_6events13NullEventSinkE6finishB7_
FN:247,_RNvMs1_NtCsgBpleClnEuB_15flyby_simulator9schedulerINtB5_12SimSchedulerNtNtB7_6events13NullEventSinkE8with_eduB7_
FN:236,_RNvMs1_NtCsgBpleClnEuB_15flyby_simulator9schedulerINtB5_12SimSchedulerNtNtB7_6events13NullEventSinkE9with_ringB7_
FN:109,_RNvXNtCsgBpleClnEuB_15flyby_simulator9schedulerINtNtB4_3nic10VirtualNicNtNtB4_6events12VecEventSinkENtB2_6DynNic11set_trafficB4_
FN:106,_RNvXNtCsgBpleClnEuB_15flyby_simulator9schedulerINtNtB4_3nic10VirtualNicNtNtB4_6events12VecEventSinkENtB2_6DynNic13take_spike_nsB4_
FN:118,_RNvXNtCsgBpleClnEuB_15flyby_simulator9schedulerINtNtB4_3nic10VirtualNicNtNtB4_6events12VecEventSinkENtB2_6DynNic15packets_droppedB4_
FN:100,_RNvXNtCsgBpleClnEuB_15flyby_simulator9schedulerINtNtB4_3nic10VirtualNicNtNtB4_6events12VecEventSinkENtB2_6DynNic16set_tick_contextB4_
FN:121,_RNvXNtCsgBpleClnEuB_15flyby_simulator9schedulerINtNtB4_3nic10VirtualNicNtNtB4_6events12VecEventSinkENtB2_6DynNic17packets_corruptedB4_
FN:115,_RNvXNtCsgBpleClnEuB_15flyby_simulator9schedulerINtNtB4_3nic10VirtualNicNtNtB4_6events12VecEventSinkENtB2_6DynNic17packets_generatedB4_
FN:94,_RNvXNtCsgBpleClnEuB_15flyby_simulator9schedulerINtNtB4_3nic10VirtualNicNtNtB4_6events12VecEventSinkENtB2_6DynNic4initB4_
FN:91,_RNvXNtCsgBpleClnEuB_15flyby_simulator9schedulerINtNtB4_3nic10VirtualNicNtNtB4_6events12VecEventSinkENtB2_6DynNic4nameB4_
FN:103,_RNvXNtCsgBpleClnEuB_15flyby_simulator9schedulerINtNtB4_3nic10VirtualNicNtNtB4_6events12VecEventSinkENtB2_6DynNic4pollB4_
FN:97,_RNvXNtCsgBpleClnEuB_15flyby_simulator9schedulerINtNtB4_3nic10VirtualNicNtNtB4_6events12VecEventSinkENtB2_6DynNic8shutdownB4_
FN:112,_RNvXNtCsgBpleClnEuB_15flyby_simulator9schedulerINtNtB4_3nic10VirtualNicNtNtB4_6events12VecEventSinkENtB2_6DynNic9set_faultB4_
FN:109,_RNvXNtCsgBpleClnEuB_15flyby_simulator9schedulerINtNtB4_3nic10VirtualNicNtNtB4_6events13NullEventSinkENtB2_6DynNic11set_trafficB4_
FN:106,_RNvXNtCsgBpleClnEuB_15flyby_simulator9schedulerINtNtB4_3nic10VirtualNicNtNtB4_6events13NullEventSinkENtB2_6DynNic13take_spike_nsB4_
FN:118,_RNvXNtCsgBpleClnEuB_15flyby_simulator9schedulerINtNtB4_3nic10VirtualNicNtNtB4_6events13NullEventSinkENtB2_6DynNic15packets_droppedB4_
FN:100,_RNvXNtCsgBpleClnEuB_15flyby_simulator9schedulerINtNtB4_3nic10VirtualNicNtNtB4_6events13NullEventSinkENtB2_6DynNic16set_tick_contextB4_
FN:121,_RNvXNtCsgBpleClnEuB_15flyby_simulator9schedulerINtNtB4_3nic10VirtualNicNtNtB4_6events13NullEventSinkENtB2_6DynNic17packets_corruptedB4_
FN:115,_RNvXNtCsgBpleClnEuB_15flyby_simulator9schedulerINtNtB4_3nic10VirtualNicNtNtB4_6events13NullEventSinkENtB2_6DynNic17packets_generatedB4_
FN:94,_RNvXNtCsgBpleClnEuB_15flyby_simulator9schedulerINtNtB4_3nic10VirtualNicNtNtB4_6events13NullEventSinkENtB2_6DynNic4initB4_
FN:91,_RNvXNtCsgBpleClnEuB_15flyby_simulator9schedulerINtNtB4_3nic10VirtualNicNtNtB4_6events13NullEventSinkENtB2_6DynNic4nameB4_
FN:103,_RNvXNtCsgBpleClnEuB_15flyby_simulator9schedulerINtNtB4_3nic10VirtualNicNtNtB4_6events13NullEventSinkENtB2_6DynNic4pollB4_
FN:97,_RNvXNtCsgBpleClnEuB_15flyby_simulator9schedulerINtNtB4_3nic10VirtualNicNtNtB4_6events13NullEventSinkENtB2_6DynNic8shutdownB4_
FN:112,_RNvXNtCsgBpleClnEuB_15flyby_simulator9schedulerINtNtB4_3nic10VirtualNicNtNtB4_6events13NullEventSinkENtB2_6DynNic9set_faultB4_
FN:203,_RNvMs0_NtCsgBpleClnEuB_15flyby_simulator9schedulerINtB5_12SimSchedulerNtNtB7_6events13NullEventSinkE3new
FN:230,_RNvMs1_NtCsgBpleClnEuB_15flyby_simulator9schedulerINtB5_12SimSchedulerpE12with_metricsB7_
FN:318,_RNvMs1_NtCsgBpleClnEuB_15flyby_simulator9schedulerINtB5_12SimSchedulerpE5pauseB7_
FN:276,_RNvMs1_NtCsgBpleClnEuB_15flyby_simulator9schedulerINtB5_12SimSchedulerpE8scenarioB7_
FN:266,_RINvMs1_NtCs6vtiqiiMncD_15flyby_simulator9schedulerINtB6_12SimSchedulerNtNtB8_6events12VecEventSinkE7add_nicINtNtB8_3nic10VirtualNicNtB19_13NullEventSinkEECshkIP76xL6qM_9scenarios
FN:349,_RNvMs1_NtCs6vtiqiiMncD_15flyby_simulator9schedulerINtB5_12SimSchedulerNtNtB7_6events13NullEventSinkE10finish_runCshkIP76xL6qM_9scenarios
FN:303,_RNvMs1_NtCs6vtiqiiMncD_15flyby_simulator9schedulerINtB5_12SimSchedulerNtNtB7_6events13NullEventSinkE10last_batchCshkIP76xL6qM_9scenarios
FN:230,_RNvMs1_NtCs6vtiqiiMncD_15flyby_simulator9schedulerINtB5_12SimSchedulerNtNtB7_6events13NullEventSinkE12with_metricsCshkIP76xL6qM_9scenarios
FN:512,_RNvMs1_NtCs6vtiqiiMncD_15flyby_simulator9schedulerINtB5_12SimSchedulerNtNtB7_6events13NullEventSinkE14apply_timelineCshkIP76xL6qM_9scenarios
FN:573,_RNvMs1_NtCs6vtiqiiMncD_15flyby_simulator9schedulerINtB5_12SimSchedulerNtNtB7_6events13NullEventSinkE18snapshot_nic_statsCshkIP76xL6qM_9scenarios
FN:328,_RNvMs1_NtCs6vtiqiiMncD_15flyby_simulator9schedulerINtB5_12SimSchedulerNtNtB7_6events13NullEventSinkE3runCshkIP76xL6qM_9scenarios
FN:358,_RNvMs1_NtCs6vtiqiiMncD_15flyby_simulator9schedulerINtB5_12SimSchedulerNtNtB7_6events13NullEventSinkE4stepCshkIP76xL6qM_9scenarios
FN:489,_RNvMs1_NtCs6vtiqiiMncD_15flyby_simulator9schedulerINtB5_12SimSchedulerNtNtB7_6events13NullEventSinkE5beginCshkIP76xL6qM_9scenarios
FN:549,_RNvMs1_NtCs6vtiqiiMncD_15flyby_simulator9schedulerINtB5_12SimSchedulerNtNtB7_6events13NullEventSinkE6finishCshkIP76xL6qM_9scenarios
FNDA:4003,_RNvMs1_NtCs6vtiqiiMncD_15flyby_simulator9schedulerINtB5_12SimSchedulerNtNtB7_6events13NullEventSinkE14apply_timelineCsiTMFchfn6h2_3dsl
FNDA:4003,_RNvMs1_NtCs6vtiqiiMncD_15flyby_simulator9schedulerINtB5_12SimSchedulerNtNtB7_6events13NullEventSinkE18snapshot_nic_statsCsiTMFchfn6h2_3dsl
FNDA:3,_RNvMs1_NtCs6vtiqiiMncD_15flyby_simulator9schedulerINtB5_12SimSchedulerNtNtB7_6events13NullEventSinkE3runCsiTMFchfn6h2_3dsl
FNDA:4000,_RNvMs1_NtCs6vtiqiiMncD_15flyby_simulator9schedulerINtB5_12SimSchedulerNtNtB7_6events13NullEventSinkE4stepCsiTMFchfn6h2_3dsl
FNDA:3,_RNvMs1_NtCs6vtiqiiMncD_15flyby_simulator9schedulerINtB5_12SimSchedulerNtNtB7_6events13NullEventSinkE5beginCsiTMFchfn6h2_3dsl
FNDA:3,_RNvMs1_NtCs6vtiqiiMncD_15flyby_simulator9schedulerINtB5_12SimSchedulerNtNtB7_6events13NullEventSinkE6finishCsiTMFchfn6h2_3dsl
FNDA:14,_RNvMs0_NtCs6vtiqiiMncD_15flyby_simulator9schedulerINtB5_12SimSchedulerNtNtB7_6events13NullEventSinkE3new
FNDA:0,_RINvMs1_NtCs6vtiqiiMncD_15flyby_simulator9schedulerINtB6_12SimSchedulerNtNtB8_6events12VecEventSinkE7add_nicINtNtB8_3nic10VirtualNicB17_EEB8_
FNDA:0,_RINvMs1_NtCs6vtiqiiMncD_15flyby_simulator9schedulerINtB6_12SimSchedulerNtNtB8_6events12VecEventSinkE7add_nicINtNtB8_4pcap10PcapSourceB17_EEB8_
FNDA:15,_RINvMs1_NtCs6vtiqiiMncD_15flyby_simulator9schedulerINtB6_12SimSchedulerNtNtB8_6events13NullEventSinkE7add_nicINtNtB8_3nic10VirtualNicB17_EEB8_
FNDA:1,_RINvMs1_NtCs6vtiqiiMncD_15flyby_simulator9schedulerINtB6_12SimSchedulerNtNtB8_6events13NullEventSinkE7add_nicINtNtB8_4pcap10PcapSourceB17_EEB8_
FNDA:0,_RNCNvMs1_NtCs6vtiqiiMncD_15flyby_simulator9schedulerINtB7_12SimSchedulerNtNtB9_6events12VecEventSinkE13with_timeline0B9_
FNDA:0,_RNCNvMs1_NtCs6vtiqiiMncD_15flyby_simulator9schedulerINtB7_12SimSchedulerNtNtB9_6events12VecEventSinkE14consumer_reads0B9_
FNDA:0,_RNCNvMs1_NtCs6vtiqiiMncD_15flyby_simulator9schedulerINtB7_12SimSchedulerNtNtB9_6events12VecEventSinkE14ring_occupancy0B9_
FNDA:0,_RNCNvMs1_NtCs6vtiqiiMncD_15flyby_simulator9schedulerINtB7_12SimSchedulerNtNtB9_6events12VecEventSinkE8clock_ns0B9_
FNDA:24,_RNCNvMs1_NtCs6vtiqiiMncD_15flyby_simulator9schedulerINtB7_12SimSchedulerNtNtB9_6events13NullEventSinkE13with_timeline0B9_
FNDA:0,_RNvMs1_NtCs6vtiqiiMncD_15flyby_simulator9schedulerINtB5_12SimSchedulerNtNtB7_6events12VecEventSinkE10finish_runB7_
FNDA:0,_RNvMs1_NtCs6vtiqiiMncD_15flyby_simulator9schedulerINtB5_12SimSchedulerNtNtB7_6events12VecEventSinkE10is_runningB7_
FNDA:0,_RNvMs1_NtCs6vtiqiiMncD_15flyby_simulator9schedulerINtB5_12SimSchedulerNtNtB7_6events12VecEventSinkE10last_batchB7_
FNDA:0,_RNvMs1_NtCs6vtiqiiMncD_15flyby_simulator9schedulerINtB5_12SimSchedulerNtNtB7_6events12VecEventSinkE11duration_nsB7_
FNDA:2,_RNvMs1_NtCs6vtiqiiMncD_15flyby_simulator9schedulerINtB5_12SimSchedulerNtNtB7_6events12VecEventSinkE11with_eventsB7_
FNDA:0,_RNvMs1_NtCs6vtiqiiMncD_15flyby_simulator9schedulerINtB5_12SimSchedulerNtNtB7_6events12VecEventSinkE12add_consumerB7_
FNDA:0,_RNvMs1_NtCs6vtiqiiMncD_15flyby_simulator9schedulerINtB5_12SimSchedulerNtNtB7_6events12VecEventSinkE13with_timelineB7_
FNDA:8,_RNvMs1_NtCs6vtiqiiMncD_15flyby_simulator9schedulerINtB5_12SimSchedulerNtNtB7_6events12VecEventSinkE14apply_timelineB7_
FNDA:0,_RNvMs1_NtCs6vtiqiiMncD_15flyby_simulator9schedulerINtB5_12SimSchedulerNtNtB7_6events12VecEventSinkE14consumer_readsB7_
FNDA:0,_RNvMs1_NtCs6vtiqiiMncD_15flyby_simulator9schedulerINtB5_12SimSchedulerNtNtB7_6events12VecEventSinkE14ring_occupancyB7_
FNDA:8,_RNvMs1_NtCs6vtiqiiMncD_15flyby_simulator9schedulerINtB5_12SimSchedulerNtNtB7_6events12VecEventSinkE18snapshot_nic_statsB7_
FNDA:2,_RNvMs1_NtCs6vtiqiiMncD_15flyby_simulator9schedulerINtB5_12SimSchedulerNtNtB7_6events12VecEventSinkE3runB7_
FNDA:6,_RNvMs1_NtCs6vtiqiiMncD_15flyby_simulator9schedulerINtB5_12SimSchedulerNtNtB7_6events12VecEventSinkE4stepB7_
FNDA:2,_RNvMs1_NtCs6vtiqiiMncD_15flyby_simulator9schedulerINtB5_12SimSchedulerNtNtB7_6events12VecEventSinkE5beginB7_
FNDA:0,_RNvMs1_NtCs6vtiqiiMncD_15flyby_simulator9schedulerINtB5_12SimSchedulerNtNtB7_6events12VecEventSinkE5pauseB7_
FNDA:0,_RNvMs1_NtCs6vtiqiiMncD_15flyby_simulator9schedulerINtB5_12SimSchedulerNtNtB7_6events12VecEventSinkE5statsB7_
FNDA:2,_RNvMs1_NtCs6vtiqiiMncD_15flyby_simulator9schedulerINtB5_12SimSchedulerNtNtB7_6events12VecEventSinkE6finishB7_
FNDA:0,_RNvMs1_NtCs6vtiqiiMncD_15flyby_simulator9schedulerINtB5_12SimSchedulerNtNtB7_6events12VecEventSinkE6resumeB7_
FNDA:0,_RNvMs1_NtCs6vtiqiiMncD_15flyby_simulator9schedulerINtB5_12SimSchedulerNtNtB7_6events12VecEventSinkE7edu_mutB7_
FNDA:0,_RNvMs1_NtCs6vtiqiiMncD_15flyby_simulator9schedulerINtB5_12SimSchedulerNtNtB7_6events12VecEventSinkE8clock_nsB7_
FNDA:0,_RNvMs1_NtCs6vtiqiiMncD_15flyby_simulator9schedulerINtB5_12SimSchedulerNtNtB7_6events12VecEventSinkE8with_eduB7_
FNDA:0,_RNvMs1_NtCs6vtiqiiMncD_15flyby_simulator9schedulerINtB5_12SimSchedulerNtNtB7_6events12VecEventSinkE9is_pausedB7_
FNDA:0,_RNvMs1_NtCs6vtiqiiMncD_15flyby_simulator9schedulerINtB5_12SimSchedulerNtNtB7_6events12VecEventSinkE9with_ringB7_
FNDA:17,_RNvMs1_NtCs6vtiqiiMncD_15flyby_simulator9schedulerINtB5_12SimSchedulerNtNtB7_6events13NullEventSinkE11with_eventsB7_
FNDA:5,_RNvMs1_NtCs6vtiqiiMncD_15flyby_simulator9schedulerINtB5_12SimSchedulerNtNtB7_6events13NullEventSinkE12add_consumerB7_
FNDA:3,_RNvMs1_NtCs6vtiqiiMncD_15flyby_simulator9schedulerINtB5_12SimSchedulerNtNtB7_6events13NullEventSinkE13with_timelineB7_
FNDA:4,_RNvMs1_NtCs6vtiqiiMncD_15flyby_simulator9schedulerINtB5_12SimSchedulerNtNtB7_6events13NullEventSinkE8with_eduB7_
FNDA:5,_RNvMs1_NtCs6vtiqiiMncD_15flyby_simulator9schedulerINtB5_12SimSchedulerNtNtB7_6events13NullEventSinkE9with_ringB7_
FNDA:0,_RNvMs1_NtCs6vtiqiiMncD_15flyby_simulator9schedulerINtB5_12SimSchedulerpE12with_metricsB7_
FNDA:0,_RNvMs1_NtCs6vtiqiiMncD_15flyby_simulator9schedulerINtB5_12SimSchedulerpE8scenarioB7_
FNDA:0,_RNvXNtCs6vtiqiiMncD_15flyby_simulator9schedulerINtNtB4_3nic10VirtualNicNtNtB4_6events12VecEventSinkENtB2_6DynNic11set_trafficB4_
FNDA:0,_RNvXNtCs6vtiqiiMncD_15flyby_simulator9schedulerINtNtB4_3nic10VirtualNicNtNtB4_6events12VecEventSinkENtB2_6DynNic13take_spike_nsB4_
FNDA:0,_RNvXNtCs6vtiqiiMncD_15flyby_simulator9schedulerINtNtB4_3nic10VirtualNicNtNtB4_6events12VecEventSinkENtB2_6DynNic15packets_droppedB4_
FNDA:0,_RNvXNtCs6vtiqiiMncD_15flyby_simulator9schedulerINtNtB4_3nic10VirtualNicNtNtB4_6events12VecEventSinkENtB2_6DynNic16set_tick_contextB4_
FNDA:0,_RNvXNtCs6vtiqiiMncD_15flyby_simulator9schedulerINtNtB4_3nic10VirtualNicNtNtB4_6events12VecEventSinkENtB2_6DynNic17packets_corruptedB4_
FNDA:0,_RNvXNtCs6vtiqiiMncD_15flyby_simulator9schedulerINtNtB4_3nic10VirtualNicNtNtB4_6events12VecEventSinkENtB2_6DynNic17packets_generatedB4_
FNDA:0,_RNvXNtCs6vtiqiiMncD_15flyby_simulator9schedulerINtNtB4_3nic10VirtualNicNtNtB4_6events12VecEventSinkENtB2_6DynNic4initB4_
FNDA:0,_RNvXNtCs6vtiqiiMncD_15flyby_simulator9schedulerINtNtB4_3nic10VirtualNicNtNtB4_6events12VecEventSinkENtB2_6DynNic4nameB4_
FNDA:0,_RNvXNtCs6vtiqiiMncD_15flyby_simulator9schedulerINtNtB4_3nic10VirtualNicNtNtB4_6events12VecEventSinkENtB2_6DynNic4pollB4_
FNDA:0,_RNvXNtCs6vtiqiiMncD_15flyby_simulator9schedulerINtNtB4_3nic10VirtualNicNtNtB4_6events12VecEventSinkENtB2_6DynNic8shutdownB4_
FNDA:0,_RNvXNtCs6vtiqiiMncD_15flyby_simulator9schedulerINtNtB4_3nic10VirtualNicNtNtB4_6events12VecEventSinkENtB2_6DynNic9set_faultB4_
FNDA:1,_RNvXNtCs6vtiqiiMncD_15flyby_simulator9schedulerINtNtB4_3nic10VirtualNicNtNtB4_6events13NullEventSinkENtB2_6DynNic11set_trafficB4_
FNDA:16065,_RNvXNtCs6vtiqiiMncD_15flyby_simulator9schedulerINtNtB4_3nic10VirtualNicNtNtB4_6events13NullEventSinkENtB2_6DynNic13take_spike_nsB4_
FNDA:16082,_RNvXNtCs6vtiqiiMncD_15flyby_simulator9schedulerINtNtB4_3nic10VirtualNicNtNtB4_6events13NullEventSinkENtB2_6DynNic15packets_droppedB4_
FNDA:16065,_RNvXNtCs6vtiqiiMncD_15flyby_simulator9schedulerINtNtB4_3nic10VirtualNicNtNtB4_6events13NullEventSinkENtB2_6DynNic16set_tick_contextB4_
FNDA:16082,_RNvXNtCs6vtiqiiMncD_15flyby_simulator9schedulerINtNtB4_3nic10VirtualNicNtNtB4_6events13NullEventSinkENtB2_6DynNic17packets_corruptedB4_
FNDA:16082,_RNvXNtCs6vtiqiiMncD_15flyby_simulator9schedulerINtNtB4_3nic10VirtualNicNtNtB4_6events13NullEventSinkENtB2_6DynNic17packets_generatedB4_
FNDA:17,_RNvXNtCs6vtiqiiMncD_15flyby_simulator9schedulerINtNtB4_3nic10VirtualNicNtNtB4_6events13NullEventSinkENtB2_6DynNic4initB4_
FNDA:12,_RNvXNtCs6vtiqiiMncD_15flyby_simulator9schedulerINtNtB4_3nic10VirtualNicNtNtB4_6events13NullEventSinkENtB2_6DynNic4nameB4_
FNDA:16065,_RNvXNtCs6vtiqiiMncD_15flyby_simulator9schedulerINtNtB4_3nic10VirtualNicNtNtB4_6events13NullEventSinkENtB2_6DynNic4pollB4_
FNDA:17,_RNvXNtCs6vtiqiiMncD_15flyby_simulator9schedulerINtNtB4_3nic10VirtualNicNtNtB4_6events13NullEventSinkENtB2_6DynNic8shutdownB4_
FNDA:11,_RNvXNtCs6vtiqiiMncD_15flyby_simulator9schedulerINtNtB4_3nic10VirtualNicNtNtB4_6events13NullEventSinkENtB2_6DynNic9set_faultB4_
FNDA:0,_RNvXs_NtCs6vtiqiiMncD_15flyby_simulator9schedulerINtNtB6_4pcap10PcapSourceNtNtB6_6events12VecEventSinkENtB4_6DynNic11set_trafficB6_
FNDA:0,_RNvXs_NtCs6vtiqiiMncD_15flyby_simulator9schedulerINtNtB6_4pcap10PcapSourceNtNtB6_6events12VecEventSinkENtB4_6DynNic13take_spike_nsB6_
FNDA:0,_RNvXs_NtCs6vtiqiiMncD_15flyby_simulator9schedulerINtNtB6_4pcap10PcapSourceNtNtB6_6events12VecEventSinkENtB4_6DynNic15packets_droppedB6_
FNDA:0,_RNvXs_NtCs6vtiqiiMncD_15flyby_simulator9schedulerINtNtB6_4pcap10PcapSourceNtNtB6_6events12VecEventSinkENtB4_6DynNic16set_tick_contextB6_
FNDA:0,_RNvXs_NtCs6vtiqiiMncD_15flyby_simulator9schedulerINtNtB6_4pcap10PcapSourceNtNtB6_6events12VecEventSinkENtB4_6DynNic17packets_corruptedB6_
FNDA:0,_RNvXs_NtCs6vtiqiiMncD_15flyby_simulator9schedulerINtNtB6_4pcap10PcapSourceNtNtB6_6events12VecEventSinkENtB4_6DynNic17packets_generatedB6_
FNDA:0,_RNvXs_NtCs6vtiqiiMncD_15flyby_simulator9schedulerINtNtB6_4pcap10PcapSourceNtNtB6_6events12VecEventSinkENtB4_6DynNic4initB6_
FNDA:0,_RNvXs_NtCs6vtiqiiMncD_15flyby_simulator9schedulerINtNtB6_4pcap10PcapSourceNtNtB6_6events12VecEventSinkENtB4_6DynNic4nameB6_
FNDA:0,_RNvXs_NtCs6vtiqiiMncD_15flyby_simulator9schedulerINtNtB6_4pcap10PcapSourceNtNtB6_6events12VecEventSinkENtB4_6DynNic4pollB6_
FNDA:0,_RNvXs_NtCs6vtiqiiMncD_15flyby_simulator9schedulerINtNtB6_4pcap10PcapSourceNtNtB6_6events12VecEventSinkENtB4_6DynNic8shutdownB6_
FNDA:0,_RNvXs_NtCs6vtiqiiMncD_15flyby_simulator9schedulerINtNtB6_4pcap10PcapSourceNtNtB6_6events12VecEventSinkENtB4_6DynNic9set_faultB6_
FNDA:0,_RNvXs_NtCs6vtiqiiMncD_15flyby_simulator9schedulerINtNtB6_4pcap10PcapSourceNtNtB6_6events13NullEventSinkENtB4_6DynNic11set_trafficB6_
FNDA:10,_RNvXs_NtCs6vtiqiiMncD_15flyby_simulator9schedulerINtNtB6_4pcap10PcapSourceNtNtB6_6events13NullEventSinkENtB4_6DynNic13take_spike_nsB6_
FNDA:11,_RNvXs_NtCs6vtiqiiMncD_15flyby_simulator9schedulerINtNtB6_4pcap10PcapSourceNtNtB6_6events13NullEventSinkENtB4_6DynNic15packets_droppedB6_
FNDA:10,_RNvXs_NtCs6vtiqiiMncD_15flyby_simulator9schedulerINtNtB6_4pcap10PcapSourceNtNtB6_6events13NullEventSinkENtB4_6DynNic16set_tick_contextB6_
FNDA:11,_RNvXs_NtCs6vtiqiiMncD_15flyby_simulator9schedulerINtNtB6_4pcap10PcapSourceNtNtB6_6events13NullEventSinkENtB4_6DynNic17packets_corruptedB6_
FNDA:11,_RNvXs_NtCs6vtiqiiMncD_15flyby_simulator9schedulerINtNtB6_4pcap10PcapSourceNtNtB6_6events13NullEventSinkENtB4_6DynNic17packets_generatedB6_
FNDA:1,_RNvXs_NtCs6vtiqiiMncD_15flyby_simulator9schedulerINtNtB6_4pcap10PcapSourceNtNtB6_6events13NullEventSinkENtB4_6DynNic4initB6_
FNDA:0,_RNvXs_NtCs6vtiqiiMncD_15flyby_simulator9schedulerINtNtB6_4pcap10PcapSourceNtNtB6_6events13NullEventSinkENtB4_6DynNic4nameB6_
FNDA:10,_RNvXs_NtCs6vtiqiiMncD_15flyby_simulator9schedulerINtNtB6_4pcap10PcapSourceNtNtB6_6events13NullEventSinkENtB4_6DynNic4pollB6_
FNDA:1,_RNvXs_NtCs6vtiqiiMncD_15flyby_simulator9schedulerINtNtB6_4pcap10PcapSourceNtNtB6_6events13NullEventSinkENtB4_6DynNic8shutdownB6_
FNDA:0,_RNvXs_NtCs6vtiqiiMncD_15flyby_simulator9schedulerINtNtB6_4pcap10PcapSourceNtNtB6_6events13NullEventSinkENtB4_6DynNic9set_faultB6_
FNDA:0,_RNvMs1_NtCs6vtiqiiMncD_15flyby_simulator9schedulerINtB5_12SimSchedulerNtNtB7_6events13NullEventSinkE14apply_timelineCsgMOyHKgvxbf_9flyby_sim
FNDA:0,_RNvMs1_NtCs6vtiqiiMncD_15flyby_simulator9schedulerINtB5_12SimSchedulerNtNtB7_6events13NullEventSinkE18snapshot_nic_statsCsgMOyHKgvxbf_9flyby_sim
FNDA:0,_RNvMs1_NtCs6vtiqiiMncD_15flyby_simulator9schedulerINtB5_12SimSchedulerNtNtB7_6events13NullEventSinkE3runCsgMOyHKgvxbf_9flyby_sim
FNDA:0,_RNvMs1_NtCs6vtiqiiMncD_15flyby_simulator9schedulerINtB5_12SimSchedulerNtNtB7_6events13NullEventSinkE4stepCsgMOyHKgvxbf_9flyby_sim
FNDA:0,_RNvMs1_NtCs6vtiqiiMncD_15flyby_simulator9schedulerINtB5_12SimSchedulerNtNtB7_6events13NullEventSinkE5beginCsgMOyHKgvxbf_9flyby_sim
FNDA:0,_RNvMs1_NtCs6vtiqiiMncD_15flyby_simulator9schedulerINtB5_12SimSchedulerNtNtB7_6events13NullEventSinkE6finishCsgMOyHKgvxbf_9flyby_sim
FNDA:4,_RNCNvNtNtCsgBpleClnEuB_15flyby_simulator9scheduler5testss_39event_sink_receives_started_and_stopped0B7_
FNDA:4,_RNCNvNtNtCsgBpleClnEuB_15flyby_simulator9scheduler5testss_39event_sink_receives_started_and_stoppeds_0B7_
FNDA:0,_RNvXs_NtCsgBpleClnEuB_15flyby_simulator9schedulerINtNtB6_4pcap10PcapSourceNtNtB6_6events12VecEventSinkENtB4_6DynNic11set_trafficB6_
FNDA:0,_RNvXs_NtCsgBpleClnEuB_15flyby_simulator9schedulerINtNtB6_4pcap10PcapSourceNtNtB6_6events12VecEventSinkENtB4_6DynNic13take_spike_nsB6_
FNDA:0,_RNvXs_NtCsgBpleClnEuB_15flyby_simulator9schedulerINtNtB6_4pcap10PcapSourceNtNtB6_6events12VecEventSinkENtB4_6DynNic15packets_droppedB6_
FNDA:0,_RNvXs_NtCsgBpleClnEuB_15flyby_simulator9schedulerINtNtB6_4pcap10PcapSourceNtNtB6_6events12VecEventSinkENtB4_6DynNic16set_tick_contextB6_
FNDA:0,_RNvXs_NtCsgBpleClnEuB_15flyby_simulator9schedulerINtNtB6_4pcap10PcapSourceNtNtB6_6events12VecEventSinkENtB4_6DynNic17packets_corruptedB6_
FNDA:0,_RNvXs_NtCsgBpleClnEuB_15flyby_simulator9schedulerINtNtB6_4pcap10PcapSourceNtNtB6_6events12VecEventSinkENtB4_6DynNic17packets_generatedB6_
FNDA:0,_RNvXs_NtCsgBpleClnEuB_15flyby_simulator9schedulerINtNtB6_4pcap10PcapSourceNtNtB6_6events12VecEventSinkENtB4_6DynNic4initB6_
FNDA:0,_RNvXs_NtCsgBpleClnEuB_15flyby_simulator9schedulerINtNtB6_4pcap10PcapSourceNtNtB6_6events12VecEventSinkENtB4_6DynNic4nameB6_
FNDA:0,_RNvXs_NtCsgBpleClnEuB_15flyby_simulator9schedulerINtNtB6_4pcap10PcapSourceNtNtB6_6events12VecEventSinkENtB4_6DynNic4pollB6_
FNDA:0,_RNvXs_NtCsgBpleClnEuB_15flyby_simulator9schedulerINtNtB6_4pcap10PcapSourceNtNtB6_6events12VecEventSinkENtB4_6DynNic8shutdownB6_
FNDA:0,_RNvXs_NtCsgBpleClnEuB_15flyby_simulator9schedulerINtNtB6_4pcap10PcapSourceNtNtB6_6events12VecEventSinkENtB4_6DynNic9set_faultB6_
FNDA:7,_RNvNtNtCsgBpleClnEuB_15flyby_simulator9scheduler5tests8make_nic
FNDA:1,_RNvNtNtCsgBpleClnEuB_15flyby_simulator9scheduler5testss_22breakpoint_tick_pauses
FNDA:1,_RNvNtNtCsgBpleClnEuB_15flyby_simulator9scheduler5testss_30multiple_nics_stats_are_summed
FNDA:1,_RNvNtNtCsgBpleClnEuB_15flyby_simulator9scheduler5testss_30ring_and_consumer_move_packets
FNDA:1,_RNvNtNtCsgBpleClnEuB_15flyby_simulator9scheduler5testss_32ticks_match_duration_div_tick_ns
FNDA:1,_RNvNtNtCsgBpleClnEuB_15flyby_simulator9scheduler5testss_34educational_step_advances_one_tick
FNDA:1,_RNvNtNtCsgBpleClnEuB_15flyby_simulator9scheduler5testss_35run_without_nics_returns_zero_stats
FNDA:1,_RNvNtNtCsgBpleClnEuB_15flyby_simulator9scheduler5testss_36run_constant_rate_scenario_completes
FNDA:1,_RNvNtNtCsgBpleClnEuB_15flyby_simulator9scheduler5testss_37packets_generated_is_nonzero_with_nic
FNDA:1,_RNvNtNtCsgBpleClnEuB_15flyby_simulator9scheduler5testss_39event_sink_receives_started_and_stopped
FNDA:1,_RNvNtNtCsgBpleClnEuB_15flyby_simulator9scheduler5testss_41drop_fault_produces_nonzero_dropped_count
FNDA:3,_RINvMs1_NtCsgBpleClnEuB_15flyby_simulator9schedulerINtB6_12SimSchedulerNtNtB8_6events12VecEventSinkE7add_nicINtNtB8_3nic10VirtualNicB17_EEB8_
FNDA:0,_RINvMs1_NtCsgBpleClnEuB_15flyby_simulator9schedulerINtB6_12SimSchedulerNtNtB8_6events12VecEventSinkE7add_nicINtNtB8_4pcap10PcapSourceB17_EEB8_
FNDA:8,_RINvMs1_NtCsgBpleClnEuB_15flyby_simulator9schedulerINtB6_12SimSchedulerNtNtB8_6events13NullEventSinkE7add_nicINtNtB8_3nic10VirtualNicB17_EEB8_
FNDA:0,_RNCNvMs1_NtCsgBpleClnEuB_15flyby_simulator9schedulerINtB7_12SimSchedulerNtNtB9_6events12VecEventSinkE13with_timeline0B9_
FNDA:2,_RNCNvMs1_NtCsgBpleClnEuB_15flyby_simulator9schedulerINtB7_12SimSchedulerNtNtB9_6events12VecEventSinkE14consumer_reads0B9_
FNDA:2,_RNCNvMs1_NtCsgBpleClnEuB_15flyby_simulator9schedulerINtB7_12SimSchedulerNtNtB9_6events12VecEventSinkE14ring_occupancy0B9_
FNDA:2,_RNCNvMs1_NtCsgBpleClnEuB_15flyby_simulator9schedulerINtB7_12SimSchedulerNtNtB9_6events12VecEventSinkE8clock_ns0B9_
FNDA:0,_RNvMs1_NtCsgBpleClnEuB_15flyby_simulator9schedulerINtB5_12SimSchedulerNtNtB7_6events12VecEventSinkE10finish_runB7_
FNDA:1,_RNvMs1_NtCsgBpleClnEuB_15flyby_simulator9schedulerINtB5_12SimSchedulerNtNtB7_6events12VecEventSinkE10is_runningB7_
FNDA:2,_RNvMs1_NtCsgBpleClnEuB_15flyby_simulator9schedulerINtB5_12SimSchedulerNtNtB7_6events12VecEventSinkE10last_batchB7_
FNDA:2,_RNvMs1_NtCsgBpleClnEuB_15flyby_simulator9schedulerINtB5_12SimSchedulerNtNtB7_6events12VecEventSinkE11duration_nsB7_
FNDA:4,_RNvMs1_NtCsgBpleClnEuB_15flyby_simulator9schedulerINtB5_12SimSchedulerNtNtB7_6events12VecEventSinkE11with_eventsB7_
FNDA:3,_RNvMs1_NtCsgBpleClnEuB_15flyby_simulator9schedulerINtB5_12SimSchedulerNtNtB7_6events12VecEventSinkE12add_consumerB7_
FNDA:0,_RNvMs1_NtCsgBpleClnEuB_15flyby_simulator9schedulerINtB5_12SimSchedulerNtNtB7_6events12VecEventSinkE13with_timelineB7_
FNDA:7,_RNvMs1_NtCsgBpleClnEuB_15flyby_simulator9schedulerINtB5_12SimSchedulerNtNtB7_6events12VecEventSinkE14apply_timelineB7_
FNDA:2,_RNvMs1_NtCsgBpleClnEuB_15flyby_simulator9schedulerINtB5_12SimSchedulerNtNtB7_6events12VecEventSinkE14consumer_readsB7_
FNDA:2,_RNvMs1_NtCsgBpleClnEuB_15flyby_simulator9schedulerINtB5_12SimSchedulerNtNtB7_6events12VecEventSinkE14ring_occupancyB7_
FNDA:4,_RNvMs1_NtCsgBpleClnEuB_15flyby_simulator9schedulerINtB5_12SimSchedulerNtNtB7_6events12VecEventSinkE18snapshot_nic_statsB7_
FNDA:4,_RNvMs1_NtCsgBpleClnEuB_15flyby_simulator9schedulerINtB5_12SimSchedulerNtNtB7_6events12VecEventSinkE3runB7_
FNDA:3,_RNvMs1_NtCsgBpleClnEuB_15flyby_simulator9schedulerINtB5_12SimSchedulerNtNtB7_6events12VecEventSinkE4stepB7_
FNDA:4,_RNvMs1_NtCsgBpleClnEuB_15flyby_simulator9schedulerINtB5_12SimSchedulerNtNtB7_6events12VecEventSinkE5beginB7_
FNDA:4,_RNvMs1_NtCsgBpleClnEuB_15flyby_simulator9schedulerINtB5_12SimSchedulerNtNtB7_6events12VecEventSinkE5statsB7_
FNDA:1,_RNvMs1_NtCsgBpleClnEuB_15flyby_simulator9schedulerINtB5_12SimSchedulerNtNtB7_6events12VecEventSinkE6finishB7_
FNDA:1,_RNvMs1_NtCsgBpleClnEuB_15flyby_simulator9schedulerINtB5_12SimSchedulerNtNtB7_6events12VecEventSinkE6resumeB7_
FNDA:3,_RNvMs1_NtCsgBpleClnEuB_15flyby_simulator9schedulerINtB5_12SimSchedulerNtNtB7_6events12VecEventSinkE7edu_mutB7_
FNDA:2,_RNvMs1_NtCsgBpleClnEuB_15flyby_simulator9schedulerINtB5_12SimSchedulerNtNtB7_6events12VecEventSinkE8clock_nsB7_
FNDA:3,_RNvMs1_NtCsgBpleClnEuB_15flyby_simulator9schedulerINtB5_12SimSchedulerNtNtB7_6events12VecEventSinkE8with_eduB7_
FNDA:0,_RNvMs1_NtCsgBpleClnEuB_15flyby_simulator9schedulerINtB5_12SimSchedulerNtNtB7_6events12VecEventSinkE9is_pausedB7_
FNDA:3,_RNvMs1_NtCsgBpleClnEuB_15flyby_simulator9schedulerINtB5_12SimSchedulerNtNtB7_6events12VecEventSinkE9with_ringB7_
FNDA:1,_RNvMs1_NtCsgBpleClnEuB_15flyby_simulator9schedulerINtB5_12SimSchedulerNtNtB7_6events13NullEventSinkE10last_batchB7_
FNDA:10,_RNvMs1_NtCsgBpleClnEuB_15flyby_simulator9schedulerINtB5_12SimSchedulerNtNtB7_6events13NullEventSinkE11with_eventsB7_
FNDA:1,_RNvMs1_NtCsgBpleClnEuB_15flyby_simulator9schedulerINtB5_12SimSchedulerNtNtB7_6events13NullEventSinkE12add_consumerB7_
FNDA:2050,_RNvMs1_NtCsgBpleClnEuB_15flyby_simulator9schedulerINtB5_12SimSchedulerNtNtB7_6events13NullEventSinkE14apply_timelineB7_
FNDA:2047,_RNvMs1_NtCsgBpleClnEuB_15flyby_simulator9schedulerINtB5_12SimSchedulerNtNtB7_6events13NullEventSinkE18snapshot_nic_statsB7_
FNDA:10,_RNvMs1_NtCsgBpleClnEuB_15flyby_simulator9schedulerINtB5_12SimSchedulerNtNtB7_6events13NullEventSinkE3runB7_
FNDA:2040,_RNvMs1_NtCsgBpleClnEuB_15flyby_simulator9schedulerINtB5_12SimSchedulerNtNtB7_6events13NullEventSinkE4stepB7_
FNDA:10,_RNvMs1_NtCsgBpleClnEuB_15flyby_simulator9schedulerINtB5_12SimSchedulerNtNtB7_6events13NullEventSinkE5beginB7_
FNDA:8,_RNvMs1_NtCsgBpleClnEuB_15flyby_simulator9schedulerINtB5_12SimSchedulerNtNtB7_6events13NullEventSinkE6finishB7_
FNDA:2,_RNvMs1_NtCsgBpleClnEuB_15flyby_simulator9schedulerINtB5_12SimSchedulerNtNtB7_6events13NullEventSinkE8with_eduB7_
FNDA:1,_RNvMs1_NtCsgBpleClnEuB_15flyby_simulator9schedulerINtB5_12SimSchedulerNtNtB7_6events13NullEventSinkE9with_ringB7_
FNDA:0,_RNvXNtCsgBpleClnEuB_15flyby_simulator9schedulerINtNtB4_3nic10VirtualNicNtNtB4_6events12VecEventSinkENtB2_6DynNic11set_trafficB4_
FNDA:1,_RNvXNtCsgBpleClnEuB_15flyby_simulator9schedulerINtNtB4_3nic10VirtualNicNtNtB4_6events12VecEventSinkENtB2_6DynNic13take_spike_nsB4_
FNDA:1,_RNvXNtCsgBpleClnEuB_15flyby_simulator9schedulerINtNtB4_3nic10VirtualNicNtNtB4_6events12VecEventSinkENtB2_6DynNic15packets_droppedB4_
FNDA:1,_RNvXNtCsgBpleClnEuB_15flyby_simulator9schedulerINtNtB4_3nic10VirtualNicNtNtB4_6events12VecEventSinkENtB2_6DynNic16set_tick_contextB4_
FNDA:1,_RNvXNtCsgBpleClnEuB_15flyby_simulator9schedulerINtNtB4_3nic10VirtualNicNtNtB4_6events12VecEventSinkENtB2_6DynNic17packets_corruptedB4_
FNDA:1,_RNvXNtCsgBpleClnEuB_15flyby_simulator9schedulerINtNtB4_3nic10VirtualNicNtNtB4_6events12VecEventSinkENtB2_6DynNic17packets_generatedB4_
FNDA:3,_RNvXNtCsgBpleClnEuB_15flyby_simulator9schedulerINtNtB4_3nic10VirtualNicNtNtB4_6events12VecEventSinkENtB2_6DynNic4initB4_
FNDA:0,_RNvXNtCsgBpleClnEuB_15flyby_simulator9schedulerINtNtB4_3nic10VirtualNicNtNtB4_6events12VecEventSinkENtB2_6DynNic4nameB4_
FNDA:1,_RNvXNtCsgBpleClnEuB_15flyby_simulator9schedulerINtNtB4_3nic10VirtualNicNtNtB4_6events12VecEventSinkENtB2_6DynNic4pollB4_
FNDA:0,_RNvXNtCsgBpleClnEuB_15flyby_simulator9schedulerINtNtB4_3nic10VirtualNicNtNtB4_6events12VecEventSinkENtB2_6DynNic8shutdownB4_
FNDA:0,_RNvXNtCsgBpleClnEuB_15flyby_simulator9schedulerINtNtB4_3nic10VirtualNicNtNtB4_6events12VecEventSinkENtB2_6DynNic9set_faultB4_
FNDA:0,_RNvXNtCsgBpleClnEuB_15flyby_simulator9schedulerINtNtB4_3nic10VirtualNicNtNtB4_6events13NullEventSinkENtB2_6DynNic11set_trafficB4_
FNDA:1031,_RNvXNtCsgBpleClnEuB_15flyby_simulator9schedulerINtNtB4_3nic10VirtualNicNtNtB4_6events13NullEventSinkENtB2_6DynNic13take_spike_nsB4_
FNDA:1038,_RNvXNtCsgBpleClnEuB_15flyby_simulator9schedulerINtNtB4_3nic10VirtualNicNtNtB4_6events13NullEventSinkENtB2_6DynNic15packets_droppedB4_
FNDA:1031,_RNvXNtCsgBpleClnEuB_15flyby_simulator9schedulerINtNtB4_3nic10VirtualNicNtNtB4_6events13NullEventSinkENtB2_6DynNic16set_tick_contextB4_
FNDA:1038,_RNvXNtCsgBpleClnEuB_15flyby_simulator9schedulerINtNtB4_3nic10VirtualNicNtNtB4_6events13NullEventSinkENtB2_6DynNic17packets_corruptedB4_
FNDA:1038,_RNvXNtCsgBpleClnEuB_15flyby_simulator9schedulerINtNtB4_3nic10VirtualNicNtNtB4_6events13NullEventSinkENtB2_6DynNic17packets_generatedB4_
FNDA:8,_RNvXNtCsgBpleClnEuB_15flyby_simulator9schedulerINtNtB4_3nic10VirtualNicNtNtB4_6events13NullEventSinkENtB2_6DynNic4initB4_
FNDA:0,_RNvXNtCsgBpleClnEuB_15flyby_simulator9schedulerINtNtB4_3nic10VirtualNicNtNtB4_6events13NullEventSinkENtB2_6DynNic4nameB4_
FNDA:1031,_RNvXNtCsgBpleClnEuB_15flyby_simulator9schedulerINtNtB4_3nic10VirtualNicNtNtB4_6events13NullEventSinkENtB2_6DynNic4pollB4_
FNDA:7,_RNvXNtCsgBpleClnEuB_15flyby_simulator9schedulerINtNtB4_3nic10VirtualNicNtNtB4_6events13NullEventSinkENtB2_6DynNic8shutdownB4_
FNDA:0,_RNvXNtCsgBpleClnEuB_15flyby_simulator9schedulerINtNtB4_3nic10VirtualNicNtNtB4_6events13NullEventSinkENtB2_6DynNic9set_faultB4_
FNDA:10,_RNvMs0_NtCsgBpleClnEuB_15flyby_simulator9schedulerINtB5_12SimSchedulerNtNtB7_6events13NullEventSinkE3new
FNDA:0,_RNvMs1_NtCsgBpleClnEuB_15flyby_simulator9schedulerINtB5_12SimSchedulerpE12with_metricsB7_
FNDA:0,_RNvMs1_NtCsgBpleClnEuB_15flyby_simulator9schedulerINtB5_12SimSchedulerpE5pauseB7_
FNDA:0,_RNvMs1_NtCsgBpleClnEuB_15flyby_simulator9schedulerINtB5_12SimSchedulerpE8scenarioB7_
FNDA:2,_RINvMs1_NtCs6vtiqiiMncD_15flyby_simulator9schedulerINtB6_12SimSchedulerNtNtB8_6events12VecEventSinkE7add_nicINtNtB8_3nic10VirtualNicNtB19_13NullEventSinkEECshkIP76xL6qM_9scenarios
FNDA:1,_RNvMs1_NtCs6vtiqiiMncD_15flyby_simulator9schedulerINtB5_12SimSchedulerNtNtB7_6events13NullEventSinkE10finish_runCshkIP76xL6qM_9scenarios
FNDA:1,_RNvMs1_NtCs6vtiqiiMncD_15flyby_simulator9schedulerINtB5_12SimSchedulerNtNtB7_6events13NullEventSinkE10last_batchCshkIP76xL6qM_9scenarios
FNDA:1,_RNvMs1_NtCs6vtiqiiMncD_15flyby_simulator9schedulerINtB5_12SimSchedulerNtNtB7_6events13NullEventSinkE12with_metricsCshkIP76xL6qM_9scenarios
FNDA:13080,_RNvMs1_NtCs6vtiqiiMncD_15flyby_simulator9schedulerINtB5_12SimSchedulerNtNtB7_6events13NullEventSinkE14apply_timelineCshkIP76xL6qM_9scenarios
FNDA:13080,_RNvMs1_NtCs6vtiqiiMncD_15flyby_simulator9schedulerINtB5_12SimSchedulerNtNtB7_6events13NullEventSinkE18snapshot_nic_statsCshkIP76xL6qM_9scenarios
FNDA:14,_RNvMs1_NtCs6vtiqiiMncD_15flyby_simulator9schedulerINtB5_12SimSchedulerNtNtB7_6events13NullEventSinkE3runCshkIP76xL6qM_9scenarios
FNDA:13066,_RNvMs1_NtCs6vtiqiiMncD_15flyby_simulator9schedulerINtB5_12SimSchedulerNtNtB7_6events13NullEventSinkE4stepCshkIP76xL6qM_9scenarios
FNDA:14,_RNvMs1_NtCs6vtiqiiMncD_15flyby_simulator9schedulerINtB5_12SimSchedulerNtNtB7_6events13NullEventSinkE5beginCshkIP76xL6qM_9scenarios
FNDA:14,_RNvMs1_NtCs6vtiqiiMncD_15flyby_simulator9schedulerINtB5_12SimSchedulerNtNtB7_6events13NullEventSinkE6finishCshkIP76xL6qM_9scenarios
FNF:66
FNH:60
DA:91,12
DA:92,12
DA:93,12
DA:94,28
DA:95,28
DA:96,28
DA:97,24
DA:98,24
DA:99,24
DA:100,17097
DA:101,17097
DA:102,17097
DA:103,17097
DA:104,17097
DA:105,17097
DA:106,17097
DA:107,17097
DA:108,17097
DA:109,1
DA:110,1
DA:111,1
DA:112,11
DA:113,11
DA:114,11
DA:115,17121
DA:116,17121
DA:117,17121
DA:118,17121
DA:119,17121
DA:120,17121
DA:121,17121
DA:122,17121
DA:123,17121
DA:130,0
DA:131,0
DA:132,0
DA:133,1
DA:134,1
DA:135,1
DA:136,1
DA:137,1
DA:138,1
DA:139,10
DA:140,10
DA:141,10
DA:142,10
DA:143,10
DA:144,10
DA:145,10
DA:146,10
DA:147,10
DA:148,0
DA:149,0
DA:150,0
DA:151,0
DA:152,0
DA:153,0
DA:154,11
DA:155,11
DA:156,11
DA:157,11
DA:158,11
DA:159,11
DA:160,11
DA:161,11
DA:162,11
DA:203,24
DA:204,24
DA:205,24
DA:210,33
DA:211,33
DA:212,33
DA:213,33
DA:214,33
DA:215,33
DA:216,33
DA:217,33
DA:218,33
DA:219,33
DA:220,33
DA:221,33
DA:222,33
DA:223,33
DA:224,33
DA:225,33
DA:226,33
DA:227,33
DA:230,1
DA:231,1
DA:232,1
DA:233,1
DA:236,9
DA:237,9
DA:238,9
DA:239,9
DA:242,9
DA:243,9
DA:244,9
DA:247,9
DA:248,9
DA:249,9
DA:250,9
DA:253,3
DA:254,24
DA:255,3
DA:256,3
DA:257,3
DA:258,3
DA:261,3
DA:262,3
DA:263,3
DA:266,29
DA:267,29
DA:268,29
DA:271,4
DA:272,4
DA:273,4
DA:276,0
DA:277,0
DA:278,0
DA:281,1
DA:282,1
DA:283,1
DA:286,0
DA:287,0
DA:288,0
DA:291,2
DA:292,2
DA:293,2
DA:294,2
DA:295,2
DA:298,2
DA:299,2
DA:300,2
DA:303,4
DA:304,4
DA:305,4
DA:308,2
DA:309,2
DA:310,2
DA:313,2
DA:314,2
DA:315,2
DA:318,0
DA:319,0
DA:320,0
DA:323,1
DA:324,1
DA:325,1
DA:328,33
DA:329,33
DA:330,33
DA:332,5
DA:333,28
DA:334,19112
DA:335,19112
DA:336,28
DA:337,19084
DA:338,19084
DA:339,0
DA:340,19084
DA:342,28
DA:343,27
DA:344,1
DA:345,28
DA:346,33
DA:349,1
DA:350,1
DA:351,1
DA:352,1
DA:358,19115
DA:359,19115
DA:360,0
DA:361,19115
DA:363,19115
DA:364,19115
DA:365,19115
DA:367,19115
DA:368,0
DA:369,0
DA:370,19115
DA:372,19115
DA:374,19115
DA:375,0
DA:377,0
DA:378,0
DA:379,19115
DA:380,19115
DA:381,4
DA:383,1
DA:384,1
DA:385,19114
DA:386,19114
DA:387,0
DA:389,0
DA:390,0
DA:391,19114
DA:393,19114
DA:394,19114
DA:395,19114
DA:396,19114
DA:397,19114
DA:399,19114
DA:400,19114
DA:402,19114
DA:403,17107
DA:404,17107
DA:405,17107
DA:406,17107
DA:409,19114
DA:410,255379
DA:411,255379
DA:412,238380
DA:413,238380
DA:414,238380
DA:415,238380
DA:416,238380
DA:417,238380
DA:418,238380
DA:419,238380
DA:420,238380
DA:421,238380
DA:422,238380
DA:423,16999
DA:424,16999
DA:425,16999
DA:426,16999
DA:427,16999
DA:428,16999
DA:429,16999
DA:432,4021
DA:433,4021
DA:434,4021
DA:435,4021
DA:436,15093
DA:439,19114
DA:440,4021
DA:441,4021
DA:442,4021
DA:443,237360
DA:444,237360
DA:445,237360
DA:446,237360
DA:447,237360
DA:448,237360
DA:449,237360
DA:450,237360
DA:451,237360
DA:453,15093
DA:455,19114
DA:456,19114
DA:458,19114
DA:459,19114
DA:460,19114
DA:461,19114
DA:462,19114
DA:463,19114
DA:464,19114
DA:465,19114
DA:466,19114
DA:467,19114
DA:468,19114
DA:471,19114
DA:472,19114
DA:473,19114
DA:474,19114
DA:475,19114
DA:476,19114
DA:479,19114
DA:480,19114
DA:482,19114
DA:483,27
DA:484,27
DA:485,19087
DA:486,19087
DA:487,19115
DA:489,33
DA:490,33
DA:491,0
DA:492,33
DA:493,33
DA:494,29
DA:496,33
DA:497,33
DA:498,33
DA:499,33
DA:500,33
DA:502,33
DA:503,33
DA:504,33
DA:505,33
DA:506,33
DA:507,33
DA:508,33
DA:509,33
DA:510,33
DA:512,19148
DA:513,19162
DA:514,1716
DA:515,1702
DA:516,14
DA:517,14
DA:518,14
DA:519,14
DA:520,1
DA:521,1
DA:522,1
DA:523,1
DA:524,1
DA:527,11
DA:528,11
DA:529,11
DA:530,11
DA:531,11
DA:535,2
DA:536,2
DA:539,2
DA:540,2
DA:541,2
DA:542,2
DA:547,19148
DA:549,28
DA:550,28
DA:551,28
DA:552,28
DA:553,28
DA:554,28
DA:555,28
DA:556,28
DA:558,28
DA:559,28
DA:560,28
DA:561,28
DA:562,28
DA:563,28
DA:564,28
DA:566,28
DA:567,25
DA:569,28
DA:570,28
DA:571,28
DA:573,19142
DA:574,19142
DA:575,19142
DA:576,19142
DA:577,19142
DA:578,17132
DA:579,17132
DA:580,17132
DA:581,17132
DA:582,19142
DA:597,7
DA:598,7
DA:599,7
DA:600,7
DA:601,7
DA:602,7
DA:603,7
DA:604,7
DA:605,7
DA:606,7
DA:607,7
DA:608,7
DA:609,7
DA:612,1
DA:613,1
DA:614,1
DA:615,1
DA:616,1
DA:619,1
DA:620,1
DA:621,1
DA:622,1
DA:623,1
DA:624,1
DA:625,1
DA:628,1
DA:629,1
DA:630,1
DA:631,1
DA:632,1
DA:633,1
DA:634,1
DA:635,1
DA:636,1
DA:637,1
DA:638,1
DA:639,1
DA:642,1
DA:643,1
DA:644,1
DA:645,1
DA:646,1
DA:647,1
DA:648,1
DA:649,1
DA:650,1
DA:651,1
DA:652,1
DA:653,1
DA:656,1
DA:657,1
DA:658,1
DA:659,1
DA:660,1
DA:661,1
DA:662,1
DA:663,1
DA:664,1
DA:665,1
DA:666,1
DA:667,1
DA:668,1
DA:669,1
DA:670,1
DA:671,1
DA:672,1
DA:673,1
DA:674,1
DA:678,1
DA:681,1
DA:682,1
DA:683,1
DA:684,1
DA:685,1
DA:686,1
DA:687,1
DA:688,1
DA:689,1
DA:690,1
DA:692,1
DA:693,1
DA:694,1
DA:695,4
DA:696,1
DA:697,1
DA:698,1
DA:699,4
DA:700,1
DA:701,1
DA:702,1
DA:703,1
DA:706,1
DA:707,1
DA:708,1
DA:709,1
DA:710,1
DA:711,1
DA:712,1
DA:713,1
DA:714,1
DA:715,1
DA:717,1
DA:718,1
DA:719,1
DA:720,1
DA:723,1
DA:724,1
DA:725,1
DA:728,1
DA:729,1
DA:730,1
DA:731,1
DA:732,1
DA:733,1
DA:734,1
DA:735,1
DA:736,1
DA:737,1
DA:738,1
DA:739,1
DA:740,1
DA:741,1
DA:742,1
DA:743,1
DA:744,1
DA:745,1
DA:746,1
DA:747,1
DA:748,1
DA:749,1
DA:752,1
DA:753,1
DA:754,1
DA:755,1
DA:756,1
DA:757,1
DA:758,1
DA:759,1
DA:760,1
DA:761,1
DA:762,1
DA:763,1
DA:764,1
DA:765,1
DA:767,1
DA:768,1
DA:769,1
DA:770,1
DA:773,1
DA:774,1
DA:775,1
DA:776,1
DA:777,1
DA:778,1
DA:779,1
DA:780,1
DA:781,1
DA:782,1
DA:783,1
DA:784,1
DA:790,1
DA:791,1
DA:792,1
BRF:0
BRH:0
LF:520
LH:486
end_of_record
SF:/Users/thanos/work/flyby/simulator/src/storage.rs
FN:174,_RNCNvXININtCs6vtiqiiMncD_15flyby_simulator7storages1_0ppEINtB7_20VirtualStorageSourceppENtNtCshMj2EFajhOT_13flyby_storage6source13StorageSource10poll_batch0B9_
FN:117,_RNvMs_NtCs6vtiqiiMncD_15flyby_simulator7storageINtB4_20VirtualStorageSourceppE12set_clock_nsB6_
FN:85,_RNvMs_NtCs6vtiqiiMncD_15flyby_simulator7storageINtB4_20VirtualStorageSourceppE12with_metricsB6_
FN:122,_RNvMs_NtCs6vtiqiiMncD_15flyby_simulator7storageINtB4_20VirtualStorageSourceppE13take_spike_nsB6_
FN:80,_RNvMs_NtCs6vtiqiiMncD_15flyby_simulator7storageINtB4_20VirtualStorageSourceppE3newB6_
FN:128,_RNvMs_NtCs6vtiqiiMncD_15flyby_simulator7storageINtB4_20VirtualStorageSourceppE4emitB6_
FN:112,_RNvMs_NtCs6vtiqiiMncD_15flyby_simulator7storageINtB4_20VirtualStorageSourceppE4nameB6_
FN:137,_RNvXININtCs6vtiqiiMncD_15flyby_simulator7storages0_0ppEINtB5_20VirtualStorageSourceppENtNtCscf8MsWp3cCb_10flyby_core9lifecycle9Lifecycle4initB7_
FN:147,_RNvXININtCs6vtiqiiMncD_15flyby_simulator7storages0_0ppEINtB5_20VirtualStorageSourceppENtNtCscf8MsWp3cCb_10flyby_core9lifecycle9Lifecycle8shutdownB7_
FN:155,_RNvXININtCs6vtiqiiMncD_15flyby_simulator7storages1_0ppEINtB5_20VirtualStorageSourceppENtNtCshMj2EFajhOT_13flyby_storage6source13StorageSource10poll_batchB7_
FN:225,_RNvXININtCs6vtiqiiMncD_15flyby_simulator7storages1_0ppEINtB5_20VirtualStorageSourceppENtNtCshMj2EFajhOT_13flyby_storage6source13StorageSource12backend_nameB7_
FN:232,_RNvXININtCs6vtiqiiMncD_15flyby_simulator7storages1_0ppEINtB5_20VirtualStorageSourceppENtNtCshMj2EFajhOT_13flyby_storage6source13StorageSource12is_exhaustedB7_
FN:255,_RNvNtNtCsgBpleClnEuB_15flyby_simulator7storage5tests11make_source
FN:245,_RNvNtNtCsgBpleClnEuB_15flyby_simulator7storage5tests19make_delimited_file
FN:349,_RNvNtNtCsgBpleClnEuB_15flyby_simulator7storage5testss_22reinit_resets_counters
FN:334,_RNvNtNtCsgBpleClnEuB_15flyby_simulator7storage5testss_27is_exhausted_after_eof_stop
FN:278,_RNvNtNtCsgBpleClnEuB_15flyby_simulator7storage5testss_30reads_records_and_emits_events
FN:270,_RNvNtNtCsgBpleClnEuB_15flyby_simulator7storage5testss_31poll_without_init_returns_error
FN:307,_RNvNtNtCsgBpleClnEuB_15flyby_simulator7storage5testss_37drop_fault_removes_records_from_batch
FN:301,_RNCNvNtNtCsgBpleClnEuB_15flyby_simulator7storage5testss_30reads_records_and_emits_events0B7_
FN:45,_RNvXNtCsgBpleClnEuB_15flyby_simulator7storageNtB2_20VirtualStorageConfigNtNtCsl8K0bEFm1U0_4core7default7Default7default
FN:174,_RNCNvXs1_NtCsgBpleClnEuB_15flyby_simulator7storageINtB7_20VirtualStorageSourceNtNtCshMj2EFajhOT_13flyby_storage7framing9DelimiterNtNtB9_6events12VecEventSinkENtNtB1i_6source13StorageSource10poll_batch0B9_
FN:174,_RNCNvXs1_NtCsgBpleClnEuB_15flyby_simulator7storageINtB7_20VirtualStorageSourceNtNtCshMj2EFajhOT_13flyby_storage7framing9DelimiterNtNtB9_6events13NullEventSinkENtNtB1i_6source13StorageSource10poll_batch0B9_
FN:85,_RNvMs_NtCsgBpleClnEuB_15flyby_simulator7storageINtB4_20VirtualStorageSourceNtNtCshMj2EFajhOT_13flyby_storage7framing9DelimiterNtNtB6_6events12VecEventSinkE12with_metricsB6_
FN:80,_RNvMs_NtCsgBpleClnEuB_15flyby_simulator7storageINtB4_20VirtualStorageSourceNtNtCshMj2EFajhOT_13flyby_storage7framing9DelimiterNtNtB6_6events12VecEventSinkE3newB6_
FN:128,_RNvMs_NtCsgBpleClnEuB_15flyby_simulator7storageINtB4_20VirtualStorageSourceNtNtCshMj2EFajhOT_13flyby_storage7framing9DelimiterNtNtB6_6events12VecEventSinkE4emitB6_
FN:85,_RNvMs_NtCsgBpleClnEuB_15flyby_simulator7storageINtB4_20VirtualStorageSourceNtNtCshMj2EFajhOT_13flyby_storage7framing9DelimiterNtNtB6_6events13NullEventSinkE12with_metricsB6_
FN:80,_RNvMs_NtCsgBpleClnEuB_15flyby_simulator7storageINtB4_20VirtualStorageSourceNtNtCshMj2EFajhOT_13flyby_storage7framing9DelimiterNtNtB6_6events13NullEventSinkE3newB6_
FN:128,_RNvMs_NtCsgBpleClnEuB_15flyby_simulator7storageINtB4_20VirtualStorageSourceNtNtCshMj2EFajhOT_13flyby_storage7framing9DelimiterNtNtB6_6events13NullEventSinkE4emitB6_
FN:137,_RNvXs0_NtCsgBpleClnEuB_15flyby_simulator7storageINtB5_20VirtualStorageSourceNtNtCshMj2EFajhOT_13flyby_storage7framing9DelimiterNtNtB7_6events12VecEventSinkENtNtCscf8MsWp3cCb_10flyby_core9lifecycle9Lifecycle4initB7_
FN:147,_RNvXs0_NtCsgBpleClnEuB_15flyby_simulator7storageINtB5_20VirtualStorageSourceNtNtCshMj2EFajhOT_13flyby_storage7framing9DelimiterNtNtB7_6events12VecEventSinkENtNtCscf8MsWp3cCb_10flyby_core9lifecycle9Lifecycle8shutdownB7_
FN:137,_RNvXs0_NtCsgBpleClnEuB_15flyby_simulator7storageINtB5_20VirtualStorageSourceNtNtCshMj2EFajhOT_13flyby_storage7framing9DelimiterNtNtB7_6events13NullEventSinkENtNtCscf8MsWp3cCb_10flyby_core9lifecycle9Lifecycle4initB7_
FN:155,_RNvXs1_NtCsgBpleClnEuB_15flyby_simulator7storageINtB5_20VirtualStorageSourceNtNtCshMj2EFajhOT_13flyby_storage7framing9DelimiterNtNtB7_6events12VecEventSinkENtNtB1g_6source13StorageSource10poll_batchB7_
FN:232,_RNvXs1_NtCsgBpleClnEuB_15flyby_simulator7storageINtB5_20VirtualStorageSourceNtNtCshMj2EFajhOT_13flyby_storage7framing9DelimiterNtNtB7_6events12VecEventSinkENtNtB1g_6source13StorageSource12is_exhaustedB7_
FN:155,_RNvXs1_NtCsgBpleClnEuB_15flyby_simulator7storageINtB5_20VirtualStorageSourceNtNtCshMj2EFajhOT_13flyby_storage7framing9DelimiterNtNtB7_6events13NullEventSinkENtNtB1g_6source13StorageSource10poll_batchB7_
FN:117,_RNvMs_NtCsgBpleClnEuB_15flyby_simulator7storageINtB4_20VirtualStorageSourceppE12set_clock_nsB6_
FN:122,_RNvMs_NtCsgBpleClnEuB_15flyby_simulator7storageINtB4_20VirtualStorageSourceppE13take_spike_nsB6_
FN:112,_RNvMs_NtCsgBpleClnEuB_15flyby_simulator7storageINtB4_20VirtualStorageSourceppE4nameB6_
FN:225,_RNvXININtCsgBpleClnEuB_15flyby_simulator7storages1_0ppEINtB5_20VirtualStorageSourceppENtNtCshMj2EFajhOT_13flyby_storage6source13StorageSource12backend_nameB7_
FNDA:0,_RNCNvXININtCs6vtiqiiMncD_15flyby_simulator7storages1_0ppEINtB7_20VirtualStorageSourceppENtNtCshMj2EFajhOT_13flyby_storage6source13StorageSource10poll_batch0B9_
FNDA:0,_RNvMs_NtCs6vtiqiiMncD_15flyby_simulator7storageINtB4_20VirtualStorageSourceppE12set_clock_nsB6_
FNDA:0,_RNvMs_NtCs6vtiqiiMncD_15flyby_simulator7storageINtB4_20VirtualStorageSourceppE12with_metricsB6_
FNDA:0,_RNvMs_NtCs6vtiqiiMncD_15flyby_simulator7storageINtB4_20VirtualStorageSourceppE13take_spike_nsB6_
FNDA:0,_RNvMs_NtCs6vtiqiiMncD_15flyby_simulator7storageINtB4_20VirtualStorageSourceppE3newB6_
FNDA:0,_RNvMs_NtCs6vtiqiiMncD_15flyby_simulator7storageINtB4_20VirtualStorageSourceppE4emitB6_
FNDA:0,_RNvMs_NtCs6vtiqiiMncD_15flyby_simulator7storageINtB4_20VirtualStorageSourceppE4nameB6_
FNDA:0,_RNvXININtCs6vtiqiiMncD_15flyby_simulator7storages0_0ppEINtB5_20VirtualStorageSourceppENtNtCscf8MsWp3cCb_10flyby_core9lifecycle9Lifecycle4initB7_
FNDA:0,_RNvXININtCs6vtiqiiMncD_15flyby_simulator7storages0_0ppEINtB5_20VirtualStorageSourceppENtNtCscf8MsWp3cCb_10flyby_core9lifecycle9Lifecycle8shutdownB7_
FNDA:0,_RNvXININtCs6vtiqiiMncD_15flyby_simulator7storages1_0ppEINtB5_20VirtualStorageSourceppENtNtCshMj2EFajhOT_13flyby_storage6source13StorageSource10poll_batchB7_
FNDA:0,_RNvXININtCs6vtiqiiMncD_15flyby_simulator7storages1_0ppEINtB5_20VirtualStorageSourceppENtNtCshMj2EFajhOT_13flyby_storage6source13StorageSource12backend_nameB7_
FNDA:0,_RNvXININtCs6vtiqiiMncD_15flyby_simulator7storages1_0ppEINtB5_20VirtualStorageSourceppENtNtCshMj2EFajhOT_13flyby_storage6source13StorageSource12is_exhaustedB7_
FNDA:3,_RNvNtNtCsgBpleClnEuB_15flyby_simulator7storage5tests11make_source
FNDA:5,_RNvNtNtCsgBpleClnEuB_15flyby_simulator7storage5tests19make_delimited_file
FNDA:1,_RNvNtNtCsgBpleClnEuB_15flyby_simulator7storage5testss_22reinit_resets_counters
FNDA:1,_RNvNtNtCsgBpleClnEuB_15flyby_simulator7storage5testss_27is_exhausted_after_eof_stop
FNDA:1,_RNvNtNtCsgBpleClnEuB_15flyby_simulator7storage5testss_30reads_records_and_emits_events
FNDA:1,_RNvNtNtCsgBpleClnEuB_15flyby_simulator7storage5testss_31poll_without_init_returns_error
FNDA:1,_RNvNtNtCsgBpleClnEuB_15flyby_simulator7storage5testss_37drop_fault_removes_records_from_batch
FNDA:3,_RNCNvNtNtCsgBpleClnEuB_15flyby_simulator7storage5testss_30reads_records_and_emits_events0B7_
FNDA:5,_RNvXNtCsgBpleClnEuB_15flyby_simulator7storageNtB2_20VirtualStorageConfigNtNtCsl8K0bEFm1U0_4core7default7Default7default
FNDA:6,_RNCNvXs1_NtCsgBpleClnEuB_15flyby_simulator7storageINtB7_20VirtualStorageSourceNtNtCshMj2EFajhOT_13flyby_storage7framing9DelimiterNtNtB9_6events12VecEventSinkENtNtB1i_6source13StorageSource10poll_batch0B9_
FNDA:8,_RNCNvXs1_NtCsgBpleClnEuB_15flyby_simulator7storageINtB7_20VirtualStorageSourceNtNtCshMj2EFajhOT_13flyby_storage7framing9DelimiterNtNtB9_6events13NullEventSinkENtNtB1i_6source13StorageSource10poll_batch0B9_
FNDA:4,_RNvMs_NtCsgBpleClnEuB_15flyby_simulator7storageINtB4_20VirtualStorageSourceNtNtCshMj2EFajhOT_13flyby_storage7framing9DelimiterNtNtB6_6events12VecEventSinkE12with_metricsB6_
FNDA:4,_RNvMs_NtCsgBpleClnEuB_15flyby_simulator7storageINtB4_20VirtualStorageSourceNtNtCshMj2EFajhOT_13flyby_storage7framing9DelimiterNtNtB6_6events12VecEventSinkE3newB6_
FNDA:6,_RNvMs_NtCsgBpleClnEuB_15flyby_simulator7storageINtB4_20VirtualStorageSourceNtNtCshMj2EFajhOT_13flyby_storage7framing9DelimiterNtNtB6_6events12VecEventSinkE4emitB6_
FNDA:1,_RNvMs_NtCsgBpleClnEuB_15flyby_simulator7storageINtB4_20VirtualStorageSourceNtNtCshMj2EFajhOT_13flyby_storage7framing9DelimiterNtNtB6_6events13NullEventSinkE12with_metricsB6_
FNDA:1,_RNvMs_NtCsgBpleClnEuB_15flyby_simulator7storageINtB4_20VirtualStorageSourceNtNtCshMj2EFajhOT_13flyby_storage7framing9DelimiterNtNtB6_6events13NullEventSinkE3newB6_
FNDA:8,_RNvMs_NtCsgBpleClnEuB_15flyby_simulator7storageINtB4_20VirtualStorageSourceNtNtCshMj2EFajhOT_13flyby_storage7framing9DelimiterNtNtB6_6events13NullEventSinkE4emitB6_
FNDA:4,_RNvXs0_NtCsgBpleClnEuB_15flyby_simulator7storageINtB5_20VirtualStorageSourceNtNtCshMj2EFajhOT_13flyby_storage7framing9DelimiterNtNtB7_6events12VecEventSinkENtNtCscf8MsWp3cCb_10flyby_core9lifecycle9Lifecycle4initB7_
FNDA:1,_RNvXs0_NtCsgBpleClnEuB_15flyby_simulator7storageINtB5_20VirtualStorageSourceNtNtCshMj2EFajhOT_13flyby_storage7framing9DelimiterNtNtB7_6events12VecEventSinkENtNtCscf8MsWp3cCb_10flyby_core9lifecycle9Lifecycle8shutdownB7_
FNDA:1,_RNvXs0_NtCsgBpleClnEuB_15flyby_simulator7storageINtB5_20VirtualStorageSourceNtNtCshMj2EFajhOT_13flyby_storage7framing9DelimiterNtNtB7_6events13NullEventSinkENtNtCscf8MsWp3cCb_10flyby_core9lifecycle9Lifecycle4initB7_
FNDA:5,_RNvXs1_NtCsgBpleClnEuB_15flyby_simulator7storageINtB5_20VirtualStorageSourceNtNtCshMj2EFajhOT_13flyby_storage7framing9DelimiterNtNtB7_6events12VecEventSinkENtNtB1g_6source13StorageSource10poll_batchB7_
FNDA:1,_RNvXs1_NtCsgBpleClnEuB_15flyby_simulator7storageINtB5_20VirtualStorageSourceNtNtCshMj2EFajhOT_13flyby_storage7framing9DelimiterNtNtB7_6events12VecEventSinkENtNtB1g_6source13StorageSource12is_exhaustedB7_
FNDA:1,_RNvXs1_NtCsgBpleClnEuB_15flyby_simulator7storageINtB5_20VirtualStorageSourceNtNtCshMj2EFajhOT_13flyby_storage7framing9DelimiterNtNtB7_6events13NullEventSinkENtNtB1g_6source13StorageSource10poll_batchB7_
FNDA:0,_RNvMs_NtCsgBpleClnEuB_15flyby_simulator7storageINtB4_20VirtualStorageSourceppE12set_clock_nsB6_
FNDA:0,_RNvMs_NtCsgBpleClnEuB_15flyby_simulator7storageINtB4_20VirtualStorageSourceppE13take_spike_nsB6_
FNDA:0,_RNvMs_NtCsgBpleClnEuB_15flyby_simulator7storageINtB4_20VirtualStorageSourceppE4nameB6_
FNDA:0,_RNvXININtCsgBpleClnEuB_15flyby_simulator7storages1_0ppEINtB5_20VirtualStorageSourceppENtNtCshMj2EFajhOT_13flyby_storage6source13StorageSource12backend_nameB7_
FNF:21
FNH:17
DA:45,5
DA:46,5
DA:47,5
DA:48,5
DA:49,5
DA:50,5
DA:51,5
DA:52,5
DA:80,5
DA:81,5
DA:82,5
DA:85,5
DA:86,5
DA:87,5
DA:88,5
DA:89,5
DA:90,5
DA:91,5
DA:92,5
DA:93,5
DA:94,5
DA:95,5
DA:96,5
DA:97,5
DA:98,5
DA:99,5
DA:100,5
DA:101,5
DA:102,5
DA:103,5
DA:104,5
DA:105,5
DA:106,5
DA:107,5
DA:108,5
DA:109,5
DA:112,0
DA:113,0
DA:114,0
DA:117,0
DA:118,0
DA:119,0
DA:122,0
DA:123,0
DA:124,0
DA:125,0
DA:126,0
DA:128,14
DA:129,14
DA:130,14
DA:131,14
DA:132,14
DA:133,14
DA:137,5
DA:138,5
DA:139,5
DA:140,5
DA:141,5
DA:142,5
DA:143,5
DA:144,5
DA:145,5
DA:147,1
DA:148,1
DA:149,1
DA:150,1
DA:151,1
DA:155,6
DA:156,6
DA:157,1
DA:158,1
DA:159,1
DA:160,1
DA:161,1
DA:162,1
DA:163,1
DA:164,5
DA:166,5
DA:167,5
DA:168,5
DA:170,5
DA:171,5
DA:172,5
DA:173,5
DA:174,14
DA:175,5
DA:177,5
DA:179,14
DA:180,14
DA:181,14
DA:183,14
DA:184,8
DA:185,8
DA:186,8
DA:187,8
DA:188,8
DA:189,6
DA:191,6
DA:192,0
DA:193,0
DA:194,6
DA:196,6
DA:197,6
DA:198,0
DA:199,6
DA:201,6
DA:202,6
DA:203,6
DA:204,6
DA:205,6
DA:206,6
DA:207,6
DA:208,6
DA:209,6
DA:210,6
DA:211,6
DA:212,6
DA:213,0
DA:214,0
DA:215,0
DA:216,0
DA:217,0
DA:218,0
DA:222,5
DA:223,6
DA:225,0
DA:226,0
DA:227,0
DA:229,0
DA:230,0
DA:232,1
DA:233,1
DA:234,1
DA:245,5
DA:246,5
DA:247,15
DA:248,15
DA:249,15
DA:250,15
DA:251,5
DA:252,5
DA:253,5
DA:255,3
DA:256,3
DA:257,3
DA:258,3
DA:259,3
DA:260,3
DA:261,3
DA:262,3
DA:263,3
DA:264,3
DA:265,3
DA:266,3
DA:267,3
DA:270,1
DA:271,1
DA:272,1
DA:273,1
DA:274,1
DA:275,1
DA:278,1
DA:279,1
DA:280,1
DA:281,1
DA:282,1
DA:283,1
DA:284,1
DA:285,1
DA:286,1
DA:287,1
DA:288,1
DA:289,1
DA:290,1
DA:291,1
DA:293,1
DA:294,1
DA:295,1
DA:296,1
DA:298,1
DA:299,1
DA:300,1
DA:301,3
DA:302,1
DA:303,1
DA:304,1
DA:307,1
DA:308,1
DA:309,1
DA:310,1
DA:311,1
DA:312,1
DA:313,1
DA:314,1
DA:315,1
DA:316,1
DA:317,1
DA:318,1
DA:319,1
DA:320,1
DA:321,1
DA:322,1
DA:323,1
DA:324,1
DA:325,1
DA:326,1
DA:327,1
DA:328,1
DA:329,1
DA:330,1
DA:331,1
DA:334,1
DA:335,1
DA:336,1
DA:337,1
DA:338,1
DA:340,2
DA:341,2
DA:342,1
DA:343,1
DA:345,1
DA:346,1
DA:349,1
DA:350,1
DA:351,1
DA:352,1
DA:353,1
DA:354,1
DA:355,1
DA:357,1
DA:358,1
DA:359,1
DA:360,1
BRF:0
BRH:0
LF:235
LH:205
end_of_record
SF:/Users/thanos/work/flyby/simulator/src/timeline.rs
FN:41,_RNvMNtCs6vtiqiiMncD_15flyby_simulator8timelineNtB2_14TimelineAction5at_ns
FN:41,_RNvMNtCsgBpleClnEuB_15flyby_simulator8timelineNtB2_14TimelineAction5at_ns
FNDA:1796,_RNvMNtCs6vtiqiiMncD_15flyby_simulator8timelineNtB2_14TimelineAction5at_ns
FNDA:0,_RNvMNtCsgBpleClnEuB_15flyby_simulator8timelineNtB2_14TimelineAction5at_ns
FNF:1
FNH:1
DA:41,1796
DA:42,1796
DA:43,305
DA:44,1178
DA:45,1796
DA:47,1796
BRF:0
BRH:0
LF:6
LH:6
end_of_record
SF:/Users/thanos/work/flyby/simulator/src/traffic.rs
FN:159,_RNvMs1_NtCs6vtiqiiMncD_15flyby_simulator7trafficNtB5_13TrafficConfig10saturation
FN:136,_RNvMs1_NtCs6vtiqiiMncD_15flyby_simulator7trafficNtB5_13TrafficConfig11market_data
FN:169,_RNvMs1_NtCs6vtiqiiMncD_15flyby_simulator7trafficNtB5_13TrafficConfig13gaussian_rate
FN:183,_RNvMs1_NtCs6vtiqiiMncD_15flyby_simulator7trafficNtB5_13TrafficConfig15protocol_quotes
FN:113,_RNvMs1_NtCs6vtiqiiMncD_15flyby_simulator7trafficNtB5_13TrafficConfig16packets_for_tick
FN:146,_RNvMs1_NtCs6vtiqiiMncD_15flyby_simulator7trafficNtB5_13TrafficConfig17market_open_burst
FN:298,_RNvMs2_NtCs6vtiqiiMncD_15flyby_simulator7trafficNtB5_12TrafficPacer15sample_gaussian
FN:237,_RNvMs2_NtCs6vtiqiiMncD_15flyby_simulator7trafficNtB5_12TrafficPacer16packets_for_tick
FN:212,_RNvMs2_NtCs6vtiqiiMncD_15flyby_simulator7trafficNtB5_12TrafficPacer3new
FN:232,_RNvMs2_NtCs6vtiqiiMncD_15flyby_simulator7trafficNtB5_12TrafficPacer6config
FN:286,_RNvMs2_NtCs6vtiqiiMncD_15flyby_simulator7trafficNtB5_12TrafficPacer8next_u64
FN:294,_RNvMs2_NtCs6vtiqiiMncD_15flyby_simulator7trafficNtB5_12TrafficPacer9next_unit
FN:67,_RNvXNtCs6vtiqiiMncD_15flyby_simulator7trafficNtB2_14TrafficPatternNtNtCsl8K0bEFm1U0_4core7default7Default7default
FN:101,_RNvXs0_NtCs6vtiqiiMncD_15flyby_simulator7trafficNtB5_13TrafficConfigNtNtCsl8K0bEFm1U0_4core3cmp9PartialEq2eq
FN:90,_RNvXs_NtCs6vtiqiiMncD_15flyby_simulator7trafficNtB4_13TrafficConfigNtNtCsl8K0bEFm1U0_4core7default7Default7default
FN:360,_RNvNtNtCsgBpleClnEuB_15flyby_simulator7traffic5testss_21zero_pps_returns_zero
FN:385,_RNvNtNtCsgBpleClnEuB_15flyby_simulator7traffic5testss_31pacer_burst_then_gap_then_burst
FN:379,_RNvNtNtCsgBpleClnEuB_15flyby_simulator7traffic5testss_31saturation_preset_is_full_speed
FN:370,_RNvNtNtCsgBpleClnEuB_15flyby_simulator7traffic5testss_35market_data_preset_has_expected_pps
FN:336,_RNvNtNtCsgBpleClnEuB_15flyby_simulator7traffic5testss_36full_speed_always_returns_batch_size
FN:347,_RNvNtNtCsgBpleClnEuB_15flyby_simulator7traffic5testss_40burst_returns_burst_size_capped_at_batch
FN:316,_RNvNtNtCsgBpleClnEuB_15flyby_simulator7traffic5testss_41fixed_rate_1kpps_1ms_tick_yields_1_packet
FN:421,_RNvNtNtCsgBpleClnEuB_15flyby_simulator7traffic5testss_43gaussian_pacer_is_deterministic_and_bounded
FN:405,_RNvNtNtCsgBpleClnEuB_15flyby_simulator7traffic5testss_45pacer_fixed_rate_accumulates_fractional_ticks
FN:326,_RNvNtNtCsgBpleClnEuB_15flyby_simulator7traffic5testss_53fixed_rate_1mpps_1ms_tick_yields_1000_capped_at_batch
FN:159,_RNvMs1_NtCsgBpleClnEuB_15flyby_simulator7trafficNtB5_13TrafficConfig10saturation
FN:136,_RNvMs1_NtCsgBpleClnEuB_15flyby_simulator7trafficNtB5_13TrafficConfig11market_data
FN:169,_RNvMs1_NtCsgBpleClnEuB_15flyby_simulator7trafficNtB5_13TrafficConfig13gaussian_rate
FN:183,_RNvMs1_NtCsgBpleClnEuB_15flyby_simulator7trafficNtB5_13TrafficConfig15protocol_quotes
FN:113,_RNvMs1_NtCsgBpleClnEuB_15flyby_simulator7trafficNtB5_13TrafficConfig16packets_for_tick
FN:146,_RNvMs1_NtCsgBpleClnEuB_15flyby_simulator7trafficNtB5_13TrafficConfig17market_open_burst
FN:298,_RNvMs2_NtCsgBpleClnEuB_15flyby_simulator7trafficNtB5_12TrafficPacer15sample_gaussian
FN:237,_RNvMs2_NtCsgBpleClnEuB_15flyby_simulator7trafficNtB5_12TrafficPacer16packets_for_tick
FN:212,_RNvMs2_NtCsgBpleClnEuB_15flyby_simulator7trafficNtB5_12TrafficPacer3new
FN:286,_RNvMs2_NtCsgBpleClnEuB_15flyby_simulator7trafficNtB5_12TrafficPacer8next_u64
FN:294,_RNvMs2_NtCsgBpleClnEuB_15flyby_simulator7trafficNtB5_12TrafficPacer9next_unit
FN:67,_RNvXNtCsgBpleClnEuB_15flyby_simulator7trafficNtB2_14TrafficPatternNtNtCsl8K0bEFm1U0_4core7default7Default7default
FN:90,_RNvXs_NtCsgBpleClnEuB_15flyby_simulator7trafficNtB4_13TrafficConfigNtNtCsl8K0bEFm1U0_4core7default7Default7default
FN:232,_RNvMs2_NtCsgBpleClnEuB_15flyby_simulator7trafficNtB5_12TrafficPacer6config
FN:101,_RNvXs0_NtCsgBpleClnEuB_15flyby_simulator7trafficNtB5_13TrafficConfigNtNtCsl8K0bEFm1U0_4core3cmp9PartialEq2eq
FNDA:0,_RNvMs1_NtCs6vtiqiiMncD_15flyby_simulator7trafficNtB5_13TrafficConfig10saturation
FNDA:0,_RNvMs1_NtCs6vtiqiiMncD_15flyby_simulator7trafficNtB5_13TrafficConfig11market_data
FNDA:1,_RNvMs1_NtCs6vtiqiiMncD_15flyby_simulator7trafficNtB5_13TrafficConfig13gaussian_rate
FNDA:1,_RNvMs1_NtCs6vtiqiiMncD_15flyby_simulator7trafficNtB5_13TrafficConfig15protocol_quotes
FNDA:0,_RNvMs1_NtCs6vtiqiiMncD_15flyby_simulator7trafficNtB5_13TrafficConfig16packets_for_tick
FNDA:0,_RNvMs1_NtCs6vtiqiiMncD_15flyby_simulator7trafficNtB5_13TrafficConfig17market_open_burst
FNDA:20,_RNvMs2_NtCs6vtiqiiMncD_15flyby_simulator7trafficNtB5_12TrafficPacer15sample_gaussian
FNDA:16065,_RNvMs2_NtCs6vtiqiiMncD_15flyby_simulator7trafficNtB5_12TrafficPacer16packets_for_tick
FNDA:35,_RNvMs2_NtCs6vtiqiiMncD_15flyby_simulator7trafficNtB5_12TrafficPacer3new
FNDA:0,_RNvMs2_NtCs6vtiqiiMncD_15flyby_simulator7trafficNtB5_12TrafficPacer6config
FNDA:20,_RNvMs2_NtCs6vtiqiiMncD_15flyby_simulator7trafficNtB5_12TrafficPacer8next_u64
FNDA:20,_RNvMs2_NtCs6vtiqiiMncD_15flyby_simulator7trafficNtB5_12TrafficPacer9next_unit
FNDA:16,_RNvXNtCs6vtiqiiMncD_15flyby_simulator7trafficNtB2_14TrafficPatternNtNtCsl8K0bEFm1U0_4core7default7Default7default
FNDA:0,_RNvXs0_NtCs6vtiqiiMncD_15flyby_simulator7trafficNtB5_13TrafficConfigNtNtCsl8K0bEFm1U0_4core3cmp9PartialEq2eq
FNDA:16,_RNvXs_NtCs6vtiqiiMncD_15flyby_simulator7trafficNtB4_13TrafficConfigNtNtCsl8K0bEFm1U0_4core7default7Default7default
FNDA:1,_RNvNtNtCsgBpleClnEuB_15flyby_simulator7traffic5testss_21zero_pps_returns_zero
FNDA:1,_RNvNtNtCsgBpleClnEuB_15flyby_simulator7traffic5testss_31pacer_burst_then_gap_then_burst
FNDA:1,_RNvNtNtCsgBpleClnEuB_15flyby_simulator7traffic5testss_31saturation_preset_is_full_speed
FNDA:1,_RNvNtNtCsgBpleClnEuB_15flyby_simulator7traffic5testss_35market_data_preset_has_expected_pps
FNDA:1,_RNvNtNtCsgBpleClnEuB_15flyby_simulator7traffic5testss_36full_speed_always_returns_batch_size
FNDA:1,_RNvNtNtCsgBpleClnEuB_15flyby_simulator7traffic5testss_40burst_returns_burst_size_capped_at_batch
FNDA:1,_RNvNtNtCsgBpleClnEuB_15flyby_simulator7traffic5testss_41fixed_rate_1kpps_1ms_tick_yields_1_packet
FNDA:1,_RNvNtNtCsgBpleClnEuB_15flyby_simulator7traffic5testss_43gaussian_pacer_is_deterministic_and_bounded
FNDA:1,_RNvNtNtCsgBpleClnEuB_15flyby_simulator7traffic5testss_45pacer_fixed_rate_accumulates_fractional_ticks
FNDA:1,_RNvNtNtCsgBpleClnEuB_15flyby_simulator7traffic5testss_53fixed_rate_1mpps_1ms_tick_yields_1000_capped_at_batch
FNDA:1,_RNvMs1_NtCsgBpleClnEuB_15flyby_simulator7trafficNtB5_13TrafficConfig10saturation
FNDA:1,_RNvMs1_NtCsgBpleClnEuB_15flyby_simulator7trafficNtB5_13TrafficConfig11market_data
FNDA:2,_RNvMs1_NtCsgBpleClnEuB_15flyby_simulator7trafficNtB5_13TrafficConfig13gaussian_rate
FNDA:2,_RNvMs1_NtCsgBpleClnEuB_15flyby_simulator7trafficNtB5_13TrafficConfig15protocol_quotes
FNDA:6,_RNvMs1_NtCsgBpleClnEuB_15flyby_simulator7trafficNtB5_13TrafficConfig16packets_for_tick
FNDA:2,_RNvMs1_NtCsgBpleClnEuB_15flyby_simulator7trafficNtB5_13TrafficConfig17market_open_burst
FNDA:200,_RNvMs2_NtCsgBpleClnEuB_15flyby_simulator7trafficNtB5_12TrafficPacer15sample_gaussian
FNDA:1255,_RNvMs2_NtCsgBpleClnEuB_15flyby_simulator7trafficNtB5_12TrafficPacer16packets_for_tick
FNDA:48,_RNvMs2_NtCsgBpleClnEuB_15flyby_simulator7trafficNtB5_12TrafficPacer3new
FNDA:200,_RNvMs2_NtCsgBpleClnEuB_15flyby_simulator7trafficNtB5_12TrafficPacer8next_u64
FNDA:200,_RNvMs2_NtCsgBpleClnEuB_15flyby_simulator7trafficNtB5_12TrafficPacer9next_unit
FNDA:36,_RNvXNtCsgBpleClnEuB_15flyby_simulator7trafficNtB2_14TrafficPatternNtNtCsl8K0bEFm1U0_4core7default7Default7default
FNDA:36,_RNvXs_NtCsgBpleClnEuB_15flyby_simulator7trafficNtB4_13TrafficConfigNtNtCsl8K0bEFm1U0_4core7default7Default7default
FNDA:0,_RNvMs2_NtCsgBpleClnEuB_15flyby_simulator7trafficNtB5_12TrafficPacer6config
FNDA:0,_RNvXs0_NtCsgBpleClnEuB_15flyby_simulator7trafficNtB5_13TrafficConfigNtNtCsl8K0bEFm1U0_4core3cmp9PartialEq2eq
FNF:25
FNH:23
DA:67,52
DA:68,52
DA:69,52
DA:90,52
DA:91,52
DA:92,52
DA:93,52
DA:94,52
DA:95,52
DA:96,52
DA:97,52
DA:101,0
DA:102,0
DA:103,0
DA:104,0
DA:105,0
DA:106,0
DA:113,6
DA:114,6
DA:115,2
DA:116,3
DA:117,3
DA:118,1
DA:119,2
DA:120,2
DA:121,2
DA:122,0
DA:123,2
DA:124,2
DA:125,2
DA:127,1
DA:128,0
DA:129,0
DA:130,0
DA:133,6
DA:136,1
DA:137,1
DA:138,1
DA:139,1
DA:140,1
DA:141,1
DA:142,1
DA:143,1
DA:146,2
DA:147,2
DA:148,2
DA:149,2
DA:150,2
DA:151,2
DA:152,2
DA:153,2
DA:154,2
DA:155,2
DA:156,2
DA:159,1
DA:160,1
DA:161,1
DA:162,1
DA:163,1
DA:164,1
DA:165,1
DA:166,1
DA:169,3
DA:170,3
DA:171,3
DA:172,3
DA:173,3
DA:174,3
DA:175,3
DA:176,3
DA:177,3
DA:178,3
DA:179,3
DA:180,3
DA:183,3
DA:185,3
DA:186,3
DA:187,3
DA:188,3
DA:189,3
DA:190,3
DA:191,3
DA:212,83
DA:213,83
DA:214,3
DA:215,80
DA:217,83
DA:218,4
DA:219,79
DA:221,83
DA:222,83
DA:223,83
DA:224,83
DA:225,83
DA:226,83
DA:227,83
DA:228,83
DA:229,83
DA:232,0
DA:233,0
DA:234,0
DA:237,17320
DA:238,17320
DA:239,17320
DA:240,6
DA:241,16588
DA:242,16588
DA:243,0
DA:244,16588
DA:245,16588
DA:246,16588
DA:247,16588
DA:248,0
DA:249,0
DA:250,16588
DA:251,16588
DA:252,16588
DA:253,16588
DA:255,506
DA:256,506
DA:258,506
DA:259,14
DA:260,14
DA:261,492
DA:263,492
DA:264,13
DA:265,479
DA:267,492
DA:268,492
DA:269,492
DA:270,13
DA:271,479
DA:272,492
DA:275,220
DA:277,220
DA:278,220
DA:279,220
DA:280,220
DA:281,220
DA:284,17320
DA:286,220
DA:287,220
DA:288,220
DA:289,220
DA:290,220
DA:291,220
DA:292,220
DA:294,220
DA:295,220
DA:296,220
DA:298,220
DA:299,220
DA:300,110
DA:301,110
DA:302,110
DA:303,110
DA:304,110
DA:305,110
DA:306,110
DA:307,110
DA:308,220
DA:316,1
DA:317,1
DA:318,1
DA:319,1
DA:320,1
DA:321,1
DA:322,1
DA:323,1
DA:326,1
DA:327,1
DA:328,1
DA:329,1
DA:330,1
DA:331,1
DA:332,1
DA:333,1
DA:336,1
DA:337,1
DA:338,1
DA:339,1
DA:340,1
DA:341,1
DA:342,1
DA:343,1
DA:344,1
DA:347,1
DA:348,1
DA:349,1
DA:350,1
DA:351,1
DA:352,1
DA:353,1
DA:354,1
DA:355,1
DA:356,1
DA:357,1
DA:360,1
DA:361,1
DA:362,1
DA:363,1
DA:364,1
DA:365,1
DA:366,1
DA:367,1
DA:370,1
DA:371,1
DA:372,1
DA:373,1
DA:376,1
DA:379,1
DA:380,1
DA:381,1
DA:382,1
DA:385,1
DA:386,1
DA:387,1
DA:388,1
DA:389,1
DA:390,1
DA:391,1
DA:392,1
DA:393,1
DA:394,1
DA:395,1
DA:396,1
DA:397,1
DA:398,1
DA:399,1
DA:400,1
DA:401,1
DA:402,1
DA:405,1
DA:406,1
DA:407,1
DA:408,1
DA:409,1
DA:410,1
DA:411,1
DA:412,1
DA:413,1
DA:414,10
DA:415,10
DA:416,10
DA:417,1
DA:418,1
DA:421,1
DA:422,1
DA:423,1
DA:424,1
DA:425,1
DA:426,1
DA:427,1
DA:428,1
DA:429,1
DA:430,1
DA:431,1
DA:432,1
DA:433,1
DA:434,1
DA:435,1
DA:436,100
DA:437,100
DA:438,100
DA:439,100
DA:440,100
DA:443,1
DA:444,1
BRF:0
BRH:0
LF:268
LH:252
end_of_record
SF:/Users/thanos/work/flyby/simulator/src/tui/app.rs
FN:434,_RNCNCNvNtNtCs6vtiqiiMncD_15flyby_simulator3tui3app19run_dashboard_inner00B9_
FN:290,_RNCNvMs0_NtNtCs6vtiqiiMncD_15flyby_simulator3tui3appNtB7_9Dashboard8snapshot0Bb_
FN:431,_RNCNvNtNtCs6vtiqiiMncD_15flyby_simulator3tui3app19run_dashboard_inner0B7_
FN:212,_RNvMs0_NtNtCs6vtiqiiMncD_15flyby_simulator3tui3appNtB5_9Dashboard10auto_ticks
FN:296,_RNvMs0_NtNtCs6vtiqiiMncD_15flyby_simulator3tui3appNtB5_9Dashboard10handle_key
FN:144,_RNvMs0_NtNtCs6vtiqiiMncD_15flyby_simulator3tui3appNtB5_9Dashboard11from_source
FN:140,_RNvMs0_NtNtCs6vtiqiiMncD_15flyby_simulator3tui3appNtB5_9Dashboard12new_compiled
FN:240,_RNvMs0_NtNtCs6vtiqiiMncD_15flyby_simulator3tui3appNtB5_9Dashboard14refresh_events
FN:225,_RNvMs0_NtNtCs6vtiqiiMncD_15flyby_simulator3tui3appNtB5_9Dashboard19ingest_tick_samples
FN:136,_RNvMs0_NtNtCs6vtiqiiMncD_15flyby_simulator3tui3appNtB5_9Dashboard3new
FN:168,_RNvMs0_NtNtCs6vtiqiiMncD_15flyby_simulator3tui3appNtB5_9Dashboard7restart
FN:276,_RNvMs0_NtNtCs6vtiqiiMncD_15flyby_simulator3tui3appNtB5_9Dashboard8snapshot
FN:188,_RNvMs0_NtNtCs6vtiqiiMncD_15flyby_simulator3tui3appNtB5_9Dashboard9step_once
FN:119,_RNvMs_NtNtCs6vtiqiiMncD_15flyby_simulator3tui3appNtB4_10DashSource5build
FN:112,_RNvMs_NtNtCs6vtiqiiMncD_15flyby_simulator3tui3appNtB4_10DashSource8scenario
FN:346,_RNvNtNtCs6vtiqiiMncD_15flyby_simulator3tui3app12format_event
FN:412,_RNvNtNtCs6vtiqiiMncD_15flyby_simulator3tui3app13run_dashboard
FN:421,_RNvNtNtCs6vtiqiiMncD_15flyby_simulator3tui3app19run_dashboard_inner
FN:417,_RNvNtNtCs6vtiqiiMncD_15flyby_simulator3tui3app22run_dashboard_compiled
FN:366,_RNvNtNtCs6vtiqiiMncD_15flyby_simulator3tui3app23build_scheduler_builtin
FN:460,_RNvNtNtCs6vtiqiiMncD_15flyby_simulator3tui3app6io_err
FN:338,_RNvNtNtCs6vtiqiiMncD_15flyby_simulator3tui3app9push_hist
FN:69,_RNvXNtNtCs6vtiqiiMncD_15flyby_simulator3tui3appNtB2_9DashStateNtNtCsl8K0bEFm1U0_4core7default7Default7default
FN:290,_RNCNvMs0_NtNtCsgBpleClnEuB_15flyby_simulator3tui3appNtB7_9Dashboard8snapshot0Bb_
FN:144,_RNvMs0_NtNtCsgBpleClnEuB_15flyby_simulator3tui3appNtB5_9Dashboard11from_source
FN:240,_RNvMs0_NtNtCsgBpleClnEuB_15flyby_simulator3tui3appNtB5_9Dashboard14refresh_events
FN:225,_RNvMs0_NtNtCsgBpleClnEuB_15flyby_simulator3tui3appNtB5_9Dashboard19ingest_tick_samples
FN:136,_RNvMs0_NtNtCsgBpleClnEuB_15flyby_simulator3tui3appNtB5_9Dashboard3new
FN:276,_RNvMs0_NtNtCsgBpleClnEuB_15flyby_simulator3tui3appNtB5_9Dashboard8snapshot
FN:188,_RNvMs0_NtNtCsgBpleClnEuB_15flyby_simulator3tui3appNtB5_9Dashboard9step_once
FN:119,_RNvMs_NtNtCsgBpleClnEuB_15flyby_simulator3tui3appNtB4_10DashSource5build
FN:112,_RNvMs_NtNtCsgBpleClnEuB_15flyby_simulator3tui3appNtB4_10DashSource8scenario
FN:346,_RNvNtNtCsgBpleClnEuB_15flyby_simulator3tui3app12format_event
FN:366,_RNvNtNtCsgBpleClnEuB_15flyby_simulator3tui3app23build_scheduler_builtin
FN:338,_RNvNtNtCsgBpleClnEuB_15flyby_simulator3tui3app9push_hist
FN:493,_RNvNtNtNtCsgBpleClnEuB_15flyby_simulator3tui3app5testss_23dashboard_step_advances
FN:480,_RNvNtNtNtCsgBpleClnEuB_15flyby_simulator3tui3app5testss_26format_event_includes_drop
FN:470,_RNvNtNtNtCsgBpleClnEuB_15flyby_simulator3tui3app5testss_27build_scheduler_arms_paused
FN:434,_RNCNCNvNtNtCsgBpleClnEuB_15flyby_simulator3tui3app19run_dashboard_inner00B9_
FN:431,_RNCNvNtNtCsgBpleClnEuB_15flyby_simulator3tui3app19run_dashboard_inner0B7_
FN:212,_RNvMs0_NtNtCsgBpleClnEuB_15flyby_simulator3tui3appNtB5_9Dashboard10auto_ticks
FN:296,_RNvMs0_NtNtCsgBpleClnEuB_15flyby_simulator3tui3appNtB5_9Dashboard10handle_key
FN:140,_RNvMs0_NtNtCsgBpleClnEuB_15flyby_simulator3tui3appNtB5_9Dashboard12new_compiled
FN:168,_RNvMs0_NtNtCsgBpleClnEuB_15flyby_simulator3tui3appNtB5_9Dashboard7restart
FN:412,_RNvNtNtCsgBpleClnEuB_15flyby_simulator3tui3app13run_dashboard
FN:421,_RNvNtNtCsgBpleClnEuB_15flyby_simulator3tui3app19run_dashboard_inner
FN:417,_RNvNtNtCsgBpleClnEuB_15flyby_simulator3tui3app22run_dashboard_compiled
FN:460,_RNvNtNtCsgBpleClnEuB_15flyby_simulator3tui3app6io_err
FN:69,_RNvXNtNtCsgBpleClnEuB_15flyby_simulator3tui3appNtB2_9DashStateNtNtCsl8K0bEFm1U0_4core7default7Default7default
FNDA:0,_RNCNCNvNtNtCs6vtiqiiMncD_15flyby_simulator3tui3app19run_dashboard_inner00B9_
FNDA:0,_RNCNvMs0_NtNtCs6vtiqiiMncD_15flyby_simulator3tui3appNtB7_9Dashboard8snapshot0Bb_
FNDA:0,_RNCNvNtNtCs6vtiqiiMncD_15flyby_simulator3tui3app19run_dashboard_inner0B7_
FNDA:0,_RNvMs0_NtNtCs6vtiqiiMncD_15flyby_simulator3tui3appNtB5_9Dashboard10auto_ticks
FNDA:0,_RNvMs0_NtNtCs6vtiqiiMncD_15flyby_simulator3tui3appNtB5_9Dashboard10handle_key
FNDA:0,_RNvMs0_NtNtCs6vtiqiiMncD_15flyby_simulator3tui3appNtB5_9Dashboard11from_source
FNDA:0,_RNvMs0_NtNtCs6vtiqiiMncD_15flyby_simulator3tui3appNtB5_9Dashboard12new_compiled
FNDA:0,_RNvMs0_NtNtCs6vtiqiiMncD_15flyby_simulator3tui3appNtB5_9Dashboard14refresh_events
FNDA:0,_RNvMs0_NtNtCs6vtiqiiMncD_15flyby_simulator3tui3appNtB5_9Dashboard19ingest_tick_samples
FNDA:0,_RNvMs0_NtNtCs6vtiqiiMncD_15flyby_simulator3tui3appNtB5_9Dashboard3new
FNDA:0,_RNvMs0_NtNtCs6vtiqiiMncD_15flyby_simulator3tui3appNtB5_9Dashboard7restart
FNDA:0,_RNvMs0_NtNtCs6vtiqiiMncD_15flyby_simulator3tui3appNtB5_9Dashboard8snapshot
FNDA:0,_RNvMs0_NtNtCs6vtiqiiMncD_15flyby_simulator3tui3appNtB5_9Dashboard9step_once
FNDA:0,_RNvMs_NtNtCs6vtiqiiMncD_15flyby_simulator3tui3appNtB4_10DashSource5build
FNDA:0,_RNvMs_NtNtCs6vtiqiiMncD_15flyby_simulator3tui3appNtB4_10DashSource8scenario
FNDA:0,_RNvNtNtCs6vtiqiiMncD_15flyby_simulator3tui3app12format_event
FNDA:0,_RNvNtNtCs6vtiqiiMncD_15flyby_simulator3tui3app13run_dashboard
FNDA:0,_RNvNtNtCs6vtiqiiMncD_15flyby_simulator3tui3app19run_dashboard_inner
FNDA:0,_RNvNtNtCs6vtiqiiMncD_15flyby_simulator3tui3app22run_dashboard_compiled
FNDA:0,_RNvNtNtCs6vtiqiiMncD_15flyby_simulator3tui3app23build_scheduler_builtin
FNDA:0,_RNvNtNtCs6vtiqiiMncD_15flyby_simulator3tui3app6io_err
FNDA:0,_RNvNtNtCs6vtiqiiMncD_15flyby_simulator3tui3app9push_hist
FNDA:0,_RNvXNtNtCs6vtiqiiMncD_15flyby_simulator3tui3appNtB2_9DashStateNtNtCsl8K0bEFm1U0_4core7default7Default7default
FNDA:1,_RNCNvMs0_NtNtCsgBpleClnEuB_15flyby_simulator3tui3appNtB7_9Dashboard8snapshot0Bb_
FNDA:2,_RNvMs0_NtNtCsgBpleClnEuB_15flyby_simulator3tui3appNtB5_9Dashboard11from_source
FNDA:3,_RNvMs0_NtNtCsgBpleClnEuB_15flyby_simulator3tui3appNtB5_9Dashboard14refresh_events
FNDA:1,_RNvMs0_NtNtCsgBpleClnEuB_15flyby_simulator3tui3appNtB5_9Dashboard19ingest_tick_samples
FNDA:2,_RNvMs0_NtNtCsgBpleClnEuB_15flyby_simulator3tui3appNtB5_9Dashboard3new
FNDA:2,_RNvMs0_NtNtCsgBpleClnEuB_15flyby_simulator3tui3appNtB5_9Dashboard8snapshot
FNDA:1,_RNvMs0_NtNtCsgBpleClnEuB_15flyby_simulator3tui3appNtB5_9Dashboard9step_once
FNDA:2,_RNvMs_NtNtCsgBpleClnEuB_15flyby_simulator3tui3appNtB4_10DashSource5build
FNDA:4,_RNvMs_NtNtCsgBpleClnEuB_15flyby_simulator3tui3appNtB4_10DashSource8scenario
FNDA:306,_RNvNtNtCsgBpleClnEuB_15flyby_simulator3tui3app12format_event
FNDA:3,_RNvNtNtCsgBpleClnEuB_15flyby_simulator3tui3app23build_scheduler_builtin
FNDA:2,_RNvNtNtCsgBpleClnEuB_15flyby_simulator3tui3app9push_hist
FNDA:1,_RNvNtNtNtCsgBpleClnEuB_15flyby_simulator3tui3app5testss_23dashboard_step_advances
FNDA:1,_RNvNtNtNtCsgBpleClnEuB_15flyby_simulator3tui3app5testss_26format_event_includes_drop
FNDA:1,_RNvNtNtNtCsgBpleClnEuB_15flyby_simulator3tui3app5testss_27build_scheduler_arms_paused
FNDA:0,_RNCNCNvNtNtCsgBpleClnEuB_15flyby_simulator3tui3app19run_dashboard_inner00B9_
FNDA:0,_RNCNvNtNtCsgBpleClnEuB_15flyby_simulator3tui3app19run_dashboard_inner0B7_
FNDA:0,_RNvMs0_NtNtCsgBpleClnEuB_15flyby_simulator3tui3appNtB5_9Dashboard10auto_ticks
FNDA:0,_RNvMs0_NtNtCsgBpleClnEuB_15flyby_simulator3tui3appNtB5_9Dashboard10handle_key
FNDA:0,_RNvMs0_NtNtCsgBpleClnEuB_15flyby_simulator3tui3appNtB5_9Dashboard12new_compiled
FNDA:0,_RNvMs0_NtNtCsgBpleClnEuB_15flyby_simulator3tui3appNtB5_9Dashboard7restart
FNDA:0,_RNvNtNtCsgBpleClnEuB_15flyby_simulator3tui3app13run_dashboard
FNDA:0,_RNvNtNtCsgBpleClnEuB_15flyby_simulator3tui3app19run_dashboard_inner
FNDA:0,_RNvNtNtCsgBpleClnEuB_15flyby_simulator3tui3app22run_dashboard_compiled
FNDA:0,_RNvNtNtCsgBpleClnEuB_15flyby_simulator3tui3app6io_err
FNDA:0,_RNvXNtNtCsgBpleClnEuB_15flyby_simulator3tui3appNtB2_9DashStateNtNtCsl8K0bEFm1U0_4core7default7Default7default
FNF:26
FNH:15
DA:69,0
DA:70,0
DA:71,0
DA:72,0
DA:73,0
DA:74,0
DA:75,0
DA:76,0
DA:77,0
DA:78,0
DA:79,0
DA:80,0
DA:81,0
DA:82,0
DA:83,0
DA:84,0
DA:85,0
DA:86,0
DA:87,0
DA:112,4
DA:113,4
DA:114,4
DA:115,0
DA:117,4
DA:119,2
DA:120,2
DA:121,2
DA:122,0
DA:123,0
DA:125,0
DA:126,0
DA:129,2
DA:136,2
DA:137,2
DA:138,2
DA:140,0
DA:141,0
DA:142,0
DA:144,2
DA:145,2
DA:146,2
DA:147,2
DA:148,2
DA:149,2
DA:150,2
DA:151,2
DA:152,2
DA:153,2
DA:154,2
DA:155,2
DA:156,2
DA:157,2
DA:158,2
DA:159,2
DA:160,2
DA:162,2
DA:163,2
DA:164,2
DA:165,2
DA:166,2
DA:168,0
DA:169,0
DA:170,0
DA:171,0
DA:172,0
DA:173,0
DA:174,0
DA:175,0
DA:176,0
DA:177,0
DA:178,0
DA:179,0
DA:180,0
DA:181,0
DA:182,0
DA:183,0
DA:184,0
DA:185,0
DA:186,0
DA:188,1
DA:189,1
DA:190,0
DA:191,0
DA:192,1
DA:194,1
DA:195,1
DA:196,1
DA:197,1
DA:198,1
DA:199,0
DA:200,0
DA:201,0
DA:202,0
DA:203,0
DA:204,0
DA:205,0
DA:206,0
DA:207,0
DA:208,1
DA:209,1
DA:210,1
DA:212,0
DA:213,0
DA:214,0
DA:215,0
DA:216,0
DA:217,0
DA:218,0
DA:219,0
DA:220,0
DA:222,0
DA:223,0
DA:225,1
DA:226,1
DA:227,1
DA:228,1
DA:229,1
DA:232,1
DA:233,301
DA:234,301
DA:235,1
DA:236,300
DA:238,1
DA:240,3
DA:241,3
DA:242,3
DA:243,3
DA:244,305
DA:245,305
DA:246,0
DA:247,0
DA:254,0
DA:255,305
DA:257,5
DA:258,305
DA:262,300
DA:264,0
DA:265,305
DA:266,305
DA:268,3
DA:269,1
DA:270,1
DA:271,2
DA:272,3
DA:273,3
DA:274,3
DA:276,2
DA:278,2
DA:279,2
DA:280,2
DA:281,2
DA:282,2
DA:283,2
DA:284,2
DA:285,2
DA:286,2
DA:287,2
DA:288,2
DA:289,2
DA:290,2
DA:291,2
DA:292,2
DA:294,2
DA:296,0
DA:298,0
DA:299,0
DA:300,0
DA:302,0
DA:303,0
DA:304,0
DA:305,0
DA:306,0
DA:307,0
DA:308,0
DA:309,0
DA:310,0
DA:311,0
DA:312,0
DA:315,0
DA:316,0
DA:317,0
DA:318,0
DA:319,0
DA:321,0
DA:322,0
DA:323,0
DA:324,0
DA:325,0
DA:326,0
DA:327,0
DA:328,0
DA:330,0
DA:332,0
DA:334,0
DA:335,0
DA:338,2
DA:339,2
DA:340,2
DA:341,0
DA:342,0
DA:343,2
DA:344,2
DA:346,306
DA:347,306
DA:348,306
DA:349,100
DA:350,100
DA:352,1
DA:353,0
DA:354,100
DA:355,100
DA:356,0
DA:357,1
DA:358,1
DA:360,4
DA:361,0
DA:362,0
DA:364,306
DA:366,3
DA:367,3
DA:368,3
DA:369,3
DA:370,3
DA:371,3
DA:372,3
DA:373,3
DA:374,3
DA:375,3
DA:376,3
DA:377,3
DA:378,3
DA:379,3
DA:380,3
DA:381,3
DA:382,3
DA:383,3
DA:384,3
DA:385,3
DA:386,3
DA:387,3
DA:388,3
DA:391,3
DA:392,3
DA:393,3
DA:394,3
DA:396,3
DA:397,3
DA:398,3
DA:399,3
DA:400,3
DA:401,3
DA:402,3
DA:403,3
DA:404,0
DA:405,3
DA:406,3
DA:407,3
DA:408,3
DA:409,3
DA:412,0
DA:413,0
DA:414,0
DA:417,0
DA:418,0
DA:419,0
DA:421,0
DA:422,0
DA:423,0
DA:424,0
DA:425,0
DA:426,0
DA:428,0
DA:429,0
DA:431,0
DA:433,0
DA:434,0
DA:435,0
DA:437,0
DA:438,0
DA:439,0
DA:440,0
DA:441,0
DA:443,0
DA:444,0
DA:446,0
DA:447,0
DA:448,0
DA:449,0
DA:451,0
DA:454,0
DA:455,0
DA:456,0
DA:457,0
DA:458,0
DA:460,0
DA:461,0
DA:462,0
DA:470,1
DA:471,1
DA:472,1
DA:473,1
DA:474,1
DA:475,1
DA:476,1
DA:477,1
DA:480,1
DA:481,1
DA:482,1
DA:483,1
DA:484,1
DA:485,1
DA:486,1
DA:487,1
DA:488,1
DA:489,1
DA:490,1
DA:493,1
DA:494,1
DA:495,1
DA:496,1
DA:497,1
DA:498,1
DA:499,1
DA:500,1
DA:501,1
DA:502,1
DA:503,1
DA:504,1
DA:505,1
BRF:0
BRH:0
LF:332
LH:181
end_of_record
SF:/Users/thanos/work/flyby/simulator/src/tui/snapshot.rs
FN:94,_RNCNvNtNtCs6vtiqiiMncD_15flyby_simulator3tui8snapshot10xml_escape0B7_
FN:26,_RNCNvNtNtCs6vtiqiiMncD_15flyby_simulator3tui8snapshot17render_text_frame0B7_
FN:32,_RNCNvNtNtCs6vtiqiiMncD_15flyby_simulator3tui8snapshot17render_text_frames0_0B7_
FN:31,_RNCNvNtNtCs6vtiqiiMncD_15flyby_simulator3tui8snapshot17render_text_frames_0B7_
FN:53,_RNCNvNtNtCs6vtiqiiMncD_15flyby_simulator3tui8snapshot17text_frame_to_svg0B7_
FN:40,_RNCNvNtNtCs6vtiqiiMncD_15flyby_simulator3tui8snapshot18clean_backend_text0B7_
FN:26,_RNCNvNtNtCsgBpleClnEuB_15flyby_simulator3tui8snapshot17render_text_frame0B7_
FN:32,_RNCNvNtNtCsgBpleClnEuB_15flyby_simulator3tui8snapshot17render_text_frames0_0B7_
FN:31,_RNCNvNtNtCsgBpleClnEuB_15flyby_simulator3tui8snapshot17render_text_frames_0B7_
FN:40,_RNCNvNtNtCsgBpleClnEuB_15flyby_simulator3tui8snapshot18clean_backend_text0B7_
FN:12,_RNvNtNtCsgBpleClnEuB_15flyby_simulator3tui8snapshot17render_text_frame
FN:38,_RNvNtNtCsgBpleClnEuB_15flyby_simulator3tui8snapshot18clean_backend_text
FN:111,_RNvNtNtNtCsgBpleClnEuB_15flyby_simulator3tui8snapshot5testss_37render_paused_frame_contains_scenario
FN:94,_RNCNvNtNtCsgBpleClnEuB_15flyby_simulator3tui8snapshot10xml_escape0B7_
FN:53,_RNCNvNtNtCsgBpleClnEuB_15flyby_simulator3tui8snapshot17text_frame_to_svg0B7_
FN:92,_RNvNtNtCsgBpleClnEuB_15flyby_simulator3tui8snapshot10xml_escape
FN:51,_RNvNtNtCsgBpleClnEuB_15flyby_simulator3tui8snapshot17text_frame_to_svg
FNDA:0,_RNCNvNtNtCs6vtiqiiMncD_15flyby_simulator3tui8snapshot10xml_escape0B7_
FNDA:0,_RNCNvNtNtCs6vtiqiiMncD_15flyby_simulator3tui8snapshot17render_text_frame0B7_
FNDA:0,_RNCNvNtNtCs6vtiqiiMncD_15flyby_simulator3tui8snapshot17render_text_frames0_0B7_
FNDA:0,_RNCNvNtNtCs6vtiqiiMncD_15flyby_simulator3tui8snapshot17render_text_frames_0B7_
FNDA:0,_RNCNvNtNtCs6vtiqiiMncD_15flyby_simulator3tui8snapshot17text_frame_to_svg0B7_
FNDA:0,_RNCNvNtNtCs6vtiqiiMncD_15flyby_simulator3tui8snapshot18clean_backend_text0B7_
FNDA:0,_RNCNvNtNtCsgBpleClnEuB_15flyby_simulator3tui8snapshot17render_text_frame0B7_
